{
  "main_library": {
    "exported_symbols": [
      {
        "data": {
          "global": [
            "_$sScTyxq_G11Superscript23UniffiForeignFutureTaskABMc",
            "_$s11Superscript15HostContextImplC9NoPointerVN",
            "_UNIFFI_META_NAMESPACE_CEL",
            "_$s11Superscript15HostContextImplC18uniffiClonePointerSvyFTq",
            "_$s11Superscript27FfiConverterTypeHostContextVACycfC",
            "_$s11Superscript15HostContextImplC9noPointerA2C02NoF0V_tcfc",
            "_$s11Superscript11HostContextTL",
            "_$s11Superscript23UniffiForeignFutureTaskTL",
            "_$s11Superscript15HostContextImplC9NoPointerVMa",
            "_$s11Superscript27FfiConverterTypeHostContextVMa",
            "_$s11Superscript33FfiConverterTypeHostContext_lowerySvAA0eF0_pF",
            "_$s11Superscript15HostContextImplC9noPointerA2C02NoF0V_tcfCTq",
            "_$s11Superscript23UniffiForeignFutureTaskMp",
            "_$s11Superscript15HostContextImplC20unsafeFromRawPointerACSv_tcfC",
            "_$s11Superscript15HostContextImplCMn",
            "_$s11Superscript15HostContextImplCAA0bC0AAMc",
            "_$s11Superscript15HostContextImplC9noPointerA2C02NoF0V_tcfC",
            "_$s11Superscript27FfiConverterTypeHostContextVN",
            "_$s11Superscript15HostContextImplCMa",
            "_$s11Superscript32FfiConverterTypeHostContext_liftyAA0eF0_pSvKF",
            "_$s11Superscript15HostContextImplC14deviceProperty4name4argsS2S_SStYaF",
            "_$s11Superscript27FfiConverterTypeHostContextV5write_4intoyAA0eF0_p_Says5UInt8VGztFZ",
            "_$s11Superscript27FfiConverterTypeHostContextV5lowerySvAA0eF0_pFZ",
            "_$s11Superscript19evaluateWithContext10definition7contextS2S_AA04HostD0_ptF",
            "___rust_alloc_error_handler_should_panic",
            "_$sScTyxq_G11Superscript23UniffiForeignFutureTaskABWP",
            "_$s11Superscript15HostContextImplC9NoPointerVAEycfC",
            "_$s11Superscript11HostContextMp",
            "_$s11Superscript15HostContextImplCAA0bC0AAWP",
            "_$s11Superscript15HostContextImplC14deviceProperty4name4argsS2S_SStYaFTu",
            "_$s11Superscript11evaluateAst3astS2S_tF",
            "_$s11Superscript15HostContextImplC20unsafeFromRawPointerACSv_tcfCTq",
            "_UNIFFI_META_UDL_CEL",
            "_$s11Superscript27FfiConverterTypeHostContextV4read4fromAA0eF0_p10Foundation4DataV4data_Si6offsettz_tKFZ",
            "_$s11Superscript15HostContextImplC18uniffiClonePointerSvyF",
            "_$s11Superscript15HostContextImplCMm",
            "_$s11Superscript10parseToAst10expressionS2S_tF",
            "_$s11Superscript15HostContextImplCN",
            "_$s11Superscript15HostContextImplC16computedProperty4name4argsS2S_SStYaF",
            "_$s11Superscript15HostContextImplCfd",
            "_$s11Superscript15HostContextImplC20unsafeFromRawPointerACSv_tcfc",
            "_SuperscriptVersionString",
            "_$s11Superscript33uniffiForeignFutureHandleCountCelSiyF",
            "_$s11Superscript22evaluateAstWithContext10definition7contextS2S_AA04HostE0_ptF",
            "_$s11Superscript15HostContextImplC16computedProperty4name4argsS2S_SStYaFTu",
            "_$s11Superscript15HostContextImplCfD",
            "_$s11Superscript27FfiConverterTypeHostContextVMn",
            "_$s11Superscript15HostContextImplC9NoPointerVMn",
            "_$s11Superscript27FfiConverterTypeHostContextV4liftyAA0eF0_pSvKFZ",
            "_$s11Superscript15HostContextImplC16computedProperty4name4argsS2S_SStYaFTq",
            "___rust_no_alloc_shim_is_unstable",
            "_$s11Superscript15HostContextImplC14deviceProperty4name4argsS2S_SStYaFTq",
            "_SuperscriptVersionNumber"
          ],
          "objc_class": [
            "PodsDummy_Superscript"
          ]
        },
        "text": {
          "global": [
            "___rdl_dealloc",
            "_ffi_cel_eval_rust_future_free_u8",
            "_rust_begin_unwind",
            "___rust_drop_panic",
            "_ffi_cel_eval_rust_future_complete_pointer",
            "_uniffi_cel_eval_fn_free_hostcontext",
            "_ffi_cel_eval_rust_future_free_u64",
            "_ffi_cel_eval_rust_future_cancel_i32",
            "___rdl_realloc",
            "_ffi_cel_eval_rust_future_complete_i32",
            "_ffi_cel_eval_rust_future_poll_i32",
            "_ffi_cel_eval_rust_future_complete_i16",
            "_ffi_cel_eval_rust_future_free_u16",
            "_ffi_cel_eval_rust_future_poll_i64",
            "_ffi_cel_eval_rust_future_poll_u32",
            "_ffi_cel_eval_rust_future_complete_f32",
            "_ffi_cel_eval_rust_future_poll_rust_buffer",
            "_uniffi_cel_eval_checksum_method_hostcontext_computed_property",
            "_ffi_cel_eval_rust_future_free_void",
            "___rust_start_panic",
            "___rust_dealloc",
            "___rdl_alloc_zeroed",
            "_ffi_cel_eval_rust_future_cancel_i8",
            "_uniffi_cel_eval_fn_func_evaluate_with_context",
            "_rust_panic",
            "_ffi_cel_eval_rust_future_cancel_u16",
            "_uniffi_cel_eval_fn_method_hostcontext_device_property",
            "___rust_alloc_zeroed",
            "_ffi_cel_eval_rust_future_complete_i64",
            "_ffi_cel_eval_rust_future_complete_u32",
            "_uniffi_cel_eval_checksum_method_hostcontext_device_property",
            "_ffi_cel_eval_rustbuffer_alloc",
            "_ffi_cel_eval_rust_future_cancel_u64",
            "___rdl_oom",
            "___rust_realloc",
            "_uniffi_cel_eval_checksum_func_evaluate_ast",
            "___rust_foreign_exception",
            "_ffi_cel_eval_rust_future_cancel_i64",
            "___rust_alloc",
            "_ffi_cel_eval_rust_future_cancel_f64",
            "_ffi_cel_eval_rust_future_poll_i16",
            "_uniffi_cel_eval_checksum_func_parse_to_ast",
            "_ffi_cel_eval_rust_future_poll_u64",
            "_ffi_cel_eval_rust_future_free_i16",
            "_ffi_cel_eval_rust_future_cancel_void",
            "_ffi_cel_eval_rust_future_free_f32",
            "_ffi_cel_eval_rust_future_free_f64",
            "_ffi_cel_eval_rust_future_complete_f64",
            "_ffi_cel_eval_rust_future_poll_i8",
            "___rdl_alloc",
            "_ffi_cel_eval_rust_future_cancel_u32",
            "_uniffi_cel_eval_fn_method_hostcontext_computed_property",
            "_ffi_cel_eval_rust_future_cancel_f32",
            "_ffi_cel_eval_rust_future_poll_void",
            "_ffi_cel_eval_rust_future_poll_u8",
            "_uniffi_cel_eval_checksum_func_evaluate_with_context",
            "_ffi_cel_eval_rust_future_complete_void",
            "_ffi_cel_eval_rust_future_complete_rust_buffer",
            "_uniffi_cel_eval_fn_func_evaluate_ast",
            "_ffi_cel_eval_rust_future_poll_f32",
            "_rust_eh_personality",
            "_ffi_cel_eval_rustbuffer_from_bytes",
            "_ffi_cel_eval_rustbuffer_reserve",
            "_ffi_cel_eval_rust_future_free_i32",
            "_uniffi_cel_eval_fn_func_evaluate_ast_with_context",
            "___rust_panic_cleanup",
            "_uniffi_cel_eval_fn_init_callback_vtable_hostcontext",
            "_uniffi_cel_eval_fn_clone_hostcontext",
            "_ffi_cel_eval_rust_future_poll_u16",
            "_ffi_cel_eval_rust_future_complete_u8",
            "_ffi_cel_eval_rust_future_cancel_u8",
            "_ffi_cel_eval_rust_future_free_i64",
            "_ffi_cel_eval_rust_future_complete_u16",
            "_ffi_cel_eval_rust_future_free_u32",
            "_ffi_cel_eval_rust_future_cancel_i16",
            "_ffi_cel_eval_rust_future_free_rust_buffer",
            "_ffi_cel_eval_rust_future_free_i8",
            "_ffi_cel_eval_rust_future_poll_pointer",
            "_ffi_cel_eval_rust_future_complete_u64",
            "_ffi_cel_eval_rust_future_poll_f64",
            "___rust_alloc_error_handler",
            "___rg_oom",
            "_ffi_cel_eval_rust_future_cancel_rust_buffer",
            "_ffi_cel_eval_rust_future_free_pointer",
            "_ffi_cel_eval_rust_future_complete_i8",
            "_uniffi_cel_eval_checksum_func_evaluate_ast_with_context",
            "_ffi_cel_eval_rustbuffer_free",
            "_ffi_cel_eval_rust_future_cancel_pointer",
            "_ffi_cel_eval_uniffi_contract_version",
            "_uniffi_cel_eval_fn_func_parse_to_ast"
          ]
        }
      },
      {
        "data": {
          "global": [
            "__ZN14regex_automata4util4pool5inner15THREAD_ID_INUSE17h7d69b477b2a0c4faE",
            "__ZN10serde_json5value5index87_$LT$impl$u20$core..ops..index..Index$LT$I$GT$$u20$for$u20$serde_json..value..Value$GT$5index4NULL17h4cf30d8655f8d832E",
            "__ZN14regex_automata4util4pool5inner7COUNTER17h27660c43c7652a3bE",
            "__ZN4core3num7flt2dec8strategy5grisu12CACHED_POW1017h27dfb3591f74814dE",
            "__ZN4core7unicode12unicode_data9lowercase14BITSET_MAPPING17h94640cbe20c2e3c1E",
            "__ZN3std9panicking4HOOK17h6960dbebd81d643aE",
            "__ZN3std6thread7Builder16spawn_unchecked_28_$u7b$$u7b$closure$u7d$$u7d$3MIN17hb7a8ba1b6aea3847E",
            "__ZN3std9panicking11panic_count18GLOBAL_PANIC_COUNT17ha71c46900ed29c1fE",
            "__ZN10serde_json2de5POW1017h9a89637b41c66df5E",
            "__ZN4core7unicode12unicode_data9lowercase17BITSET_CHUNKS_MAP17he3478110a301280bE",
            "__ZN10serde_json3ser9Formatter17write_char_escape10HEX_DIGITS17hed9582a76ddaeab3E",
            "__ZN5bytes5bytes21PROMOTABLE_ODD_VTABLE17hdb8ae9e89ef9e50eE",
            "__ZN5serde2de5impls79_$LT$impl$u20$serde..de..Deserialize$u20$for$u20$core..net..ip_addr..IpAddr$GT$11deserialize8VARIANTS17h0209e69ab8850261E",
            "__ZN5bytes5bytes12OWNED_VTABLE17hf17dc16c725a1e68E",
            "__ZN3std2io5stdio6stderr8INSTANCE17h37356efe7e2c7ddbE",
            "__ZN5serde2de5impls74_$LT$impl$u20$serde..de..Deserialize$u20$for$u20$std..time..SystemTime$GT$11deserialize14check_overflow13NANOS_PER_SEC17h460ee35d9e8ec24cE",
            "__ZN5bytes5bytes22PROMOTABLE_EVEN_VTABLE17h2f935821e5f72bf1E",
            "__ZN10serde_json3ser6ESCAPE17h669ea7ec2b8f5fe6E",
            "__ZN4core7unicode12unicode_data9uppercase16BITSET_CANONICAL17hb6ceb21bffc428c4E",
            "__ZN3std9panicking11EMPTY_PANIC17hfd6e0fc84c717293E",
            "__ZN5serde2de5impls87_$LT$impl$u20$serde..de..Deserialize$u20$for$u20$core..net..socket_addr..SocketAddr$GT$11deserialize8VARIANTS17he37d1d728c48c1abE",
            "__ZN5bytes9bytes_mut13SHARED_VTABLE17h463a3c8893b12bfbE",
            "__ZN5alloc4sync18STATIC_INNER_SLICE17hceb46e8c7a77be8bE",
            "__ZN4core7unicode12unicode_data9uppercase17BITSET_CHUNKS_MAP17h21b8408e27712cf5E",
            "__ZN4core7unicode12unicode_data9lowercase19BITSET_INDEX_CHUNKS17h53099beb0206dfeeE",
            "__ZN3log20MAX_LOG_LEVEL_FILTER17he6b7ac16f833e24dE",
            "__ZN14regex_automata4util4pool5inner17THREAD_ID_DROPPED17h3cf9f51c6bc0d84dE",
            "__ZN14regex_automata4util4pool5inner17THREAD_ID_UNOWNED17hd663205f1c5a6ff6E",
            "__ZN5serde2de5impls14OSSTR_VARIANTS17hfe7b0301087d3283E",
            "__ZN4core7unicode12unicode_data9lowercase16BITSET_CANONICAL17hd55f02336447c605E",
            "__ZN4core7unicode12unicode_data9uppercase14BITSET_MAPPING17h4da9f35184c50720E",
            "__ZN5serde2de5impls73_$LT$impl$u20$serde..de..Deserialize$u20$for$u20$core..time..Duration$GT$11deserialize14check_overflow13NANOS_PER_SEC17h03e8cfdf77c27ce7E",
            "__ZN4core7unicode12unicode_data9uppercase19BITSET_INDEX_CHUNKS17h7352a1a160a75e43E",
            "__ZN4core7unicode12unicode_data11white_space14WHITESPACE_MAP17h20ee654ffb21b9adE"
          ],
          "thread_local": [
            "__ZN12futures_lite6future8block_on5CACHE29_$u7b$$u7b$constant$u7d$$u7d$28_$u7b$$u7b$closure$u7d$$u7d$3VAL17h0b8e095f918cdd78E",
            "__ZN3std4sync4mpmc7context7Context4with7CONTEXT29_$u7b$$u7b$constant$u7d$$u7d$28_$u7b$$u7b$closure$u7d$$u7d$3VAL17h897dad3864606ed9E",
            "__ZN3std6thread7current7CURRENT17hb710532334cbdd54E",
            "__ZN14regex_automata4util4pool5inner9THREAD_ID29_$u7b$$u7b$constant$u7d$$u7d$28_$u7b$$u7b$closure$u7d$$u7d$3VAL17h14d50ab755497ec7E",
            "__ZN3std4sync4mpmc5waker17current_thread_id5DUMMY29_$u7b$$u7b$constant$u7d$$u7d$28_$u7b$$u7b$closure$u7d$$u7d$3VAL17h274c1fbc127f42c2E",
            "__ZN3std4hash6random11RandomState3new4KEYS29_$u7b$$u7b$constant$u7d$$u7d$28_$u7b$$u7b$closure$u7d$$u7d$3VAL17hf18a9e7d15d80816E",
            "__ZN3std6thread9spawnhook11SPAWN_HOOKS29_$u7b$$u7b$constant$u7d$$u7d$28_$u7b$$u7b$closure$u7d$$u7d$3VAL17h8b6df6778410aa83E",
            "__ZN3std6thread7current2id2ID17h371f8bff7fada440E"
          ]
        },
        "targets": [
          "arm64-ios-simulator"
        ],
        "text": {
          "global": [
            "__ZN5alloc7raw_vec19RawVec$LT$T$C$A$GT$8grow_one17h243c44ed91fa4e77E",
            "__ZN4core6option13unwrap_failed17hfb6b87ef5e2cf6ecE",
            "__ZN116_$LT$chrono..naive..date..NaiveDateDaysIterator$u20$as$u20$core..iter..traits..double_ended..DoubleEndedIterator$GT$9next_back17h13d29635d896c083E",
            "__ZN6chrono5naive4date9NaiveDate18checked_sub_months17h28eed241b638a929E",
            "__ZN3std4path4Path10is_symlink17hf8d472c9029716e8E",
            "__ZN4core3fmt9Formatter25debug_tuple_field5_finish17h6f578ec9c8996dceE",
            "__ZN14regex_automata4util8captures8Captures3all17he630c10ffac94141E",
            "__ZN14regex_automata4util8captures8Captures4iter17h62baea761679ae5aE",
            "__ZN63_$LT$std..ffi..os_str..OsString$u20$as$u20$core..fmt..Debug$GT$3fmt17ha2769d57b0f52debE",
            "__ZN160_$LT$serde..de..impls..$LT$impl$u20$serde..de..Deserialize$u20$for$u20$std..time..SystemTime$GT$..deserialize..DurationVisitor$u20$as$u20$serde..de..Visitor$GT$9expecting17hc75c6e7e44833511E",
            "__ZN15cel_interpreter5magic113_$LT$impl$u20$core..convert..From$LT$cel_interpreter..magic..Identifier$GT$$u20$for$u20$alloc..string..String$GT$4from17h60a841368f9d7b1cE",
            "__ZN4core3num9int_log1030panic_for_nonpositive_argument17hbfac5cf3f34f083eE",
            "__ZN5alloc7raw_vec19RawVec$LT$T$C$A$GT$8grow_one17hd3308cdac4a986fbE",
            "__ZN5regex8regexset6string8RegexSet5empty17h7b13f55d349dbfd9E",
            "__ZN87_$LT$futures_lite..io..read_to_end_internal..Guard$u20$as$u20$core..ops..drop..Drop$GT$4drop17h947fbe35dd06bb0fE",
            "__ZN6object4read2pe6import20DelayLoadImportTable9hint_name17h97a98d92b19b767fE",
            "__ZN79_$LT$object..xcoff..Symbol64$u20$as$u20$object..read..xcoff..symbol..Symbol$GT$6n_type17h5d1bbcaaa6a47546E",
            "__ZN12aho_corasick11ahocorasick18AhoCorasickBuilder10build_auto17hb5e969b336948dc5E",
            "__ZN14regex_automata6hybrid5regex5Cache3new17he205e9f97a109b68E",
            "__ZN83_$LT$std..io..buffered..bufwriter..WriterPanicked$u20$as$u20$core..fmt..Display$GT$3fmt17h4db36a8a29565d6cE",
            "__ZN97_$LT$regex_syntax..hir..translate..TranslatorI$u20$as$u20$regex_syntax..ast..visitor..Visitor$GT$9visit_pre17hcc55f20e1fbd8d8bE",
            "__ZN3std9panicking11panic_count17is_zero_slow_path17h0f244298bba1722dE",
            "__ZN14regex_automata6hybrid3dfa34skip_empty_utf8_splits_overlapping17h87dc8b25cd5adf15E",
            "__ZN176_$LT$serde..de..impls..$LT$impl$u20$serde..de..Deserialize$u20$for$u20$core..num..nonzero..NonZero$LT$i32$GT$$GT$..deserialize..NonZeroVisitor$u20$as$u20$serde..de..Visitor$GT$9expecting17hc5a0c9eed08d629cE",
            "__ZN3std2fs81_$LT$impl$u20$std..io..Read$u20$for$u20$alloc..sync..Arc$LT$std..fs..File$GT$$GT$11read_to_end17h041f56517d0f1c44E",
            "__ZN72_$LT$alloc..string..Drain$u20$as$u20$core..convert..AsRef$LT$str$GT$$GT$6as_ref17h9d99ea2db1a17f78E",
            "__ZN175_$LT$serde..de..impls..$LT$impl$u20$serde..de..Deserialize$u20$for$u20$core..num..nonzero..NonZero$LT$u8$GT$$GT$..deserialize..NonZeroVisitor$u20$as$u20$serde..de..Visitor$GT$9expecting17h0e2af0a3784e4e4aE",
            "__ZN58_$LT$std..net..tcp..TcpStream$u20$as$u20$std..io..Read$GT$8read_buf17hcb946dd0aa0b874eE",
            "__ZN3std10sys_common3net9UdpSocket7send_to17h087d2ebb89a1b044E",
            "__ZN83_$LT$object..xcoff..AuxHeader32$u20$as$u20$object..read..xcoff..file..AuxHeader$GT$10o_snloader17h0a2530d6d823127dE",
            "__ZN58_$LT$log..SetLoggerError$u20$as$u20$core..fmt..Display$GT$3fmt17hec3c5deae110ff8eE",
            "__ZN94_$LT$$RF$str$u20$as$u20$nom..traits..Slice$LT$core..ops..range..RangeFrom$LT$usize$GT$$GT$$GT$5slice17h944a3ac27a5144fcE",
            "__ZN5alloc4sync16Arc$LT$T$C$A$GT$9drop_slow17h3a965a94db417894E",
            "__ZN14regex_automata3nfa8thompson8compiler8Compiler9configure17hdfeb138501e19f85E",
            "__ZN4core10intrinsics3mir7Checked19panic_cold_explicit17heb6fe69daa40fb5cE",
            "__ZN55_$LT$std..io..stdio..Stdin$u20$as$u20$std..io..Read$GT$10read_exact17h9ec5c73f1ce349b4E",
            "__ZN3std4path4Path7is_file17h225acf4d648026d3E",
            "__ZN7parking6Parker6unpark17h1ce0f0660eda5523E",
            "__ZN5alloc6string5Drain6as_str17h0803f64466cf3e60E",
            "__ZN14regex_automata3dfa7onepass5Cache5reset17haf4716a2b8fc7722E",
            "__ZN3std4path4Path10components17h61f42a21704b0e51E",
            "__ZN5regex5regex6string5Regex3new17h5115b0a849d07d01E",
            "__ZN5alloc11collections5btree4node12slice_insert17h7d5d5d2698898892E",
            "__ZN5alloc7raw_vec19RawVec$LT$T$C$A$GT$8grow_one17h957cf44ac6c27dc4E",
            "__ZN5serde3ser3fmt85_$LT$impl$u20$serde..ser..Serializer$u20$for$u20$$RF$mut$u20$core..fmt..Formatter$GT$12serialize_i817h8a178f9ab60542b2E",
            "__ZN74_$LT$regex..regex..string..Regex$u20$as$u20$core..str..traits..FromStr$GT$8from_str17he0978d28012d4771E",
            "__ZN4core3f3221_$LT$impl$u20$f32$GT$5clamp8do_panic7runtime17h8d7f306eeec6a79bE",
            "__ZN114_$LT$$LT$regex..regex..bytes..Captures$u20$as$u20$core..fmt..Debug$GT$..fmt..Value$u20$as$u20$core..fmt..Debug$GT$3fmt17h75f581e84bde5b0bE",
            "__ZN3std2os4unix3net4addr10SocketAddr11as_pathname17ha97da9a756b729edE",
            "__ZN81_$LT$$u5b$u8$u3b$$u20$18$u5d$$u20$as$u20$nom..traits..FindToken$LT$$RF$u8$GT$$GT$10find_token17hcd4704feee5b9e69E",
            "__ZN12regex_syntax3hir7visitor11HeapVisitor6induct17hc5f92e0d623b05f2E",
            "__ZN14regex_automata4util9prefilter9Prefilter15from_hir_prefix17hd191ec40a91a7367E",
            "__ZN57_$LT$bytes..TryGetError$u20$as$u20$core..fmt..Display$GT$3fmt17hf72dd17ca3acc14cE",
            "__ZN4core4cell4lazy14panic_poisoned17hcf1ac2f6b4c4f522E",
            "__ZN5alloc7raw_vec11finish_grow17he2b8cfbc3c6cbadbE",
            "__ZN5alloc7raw_vec19RawVec$LT$T$C$A$GT$8grow_one17had8d1e4d34e8fec1E",
            "__ZN75_$LT$core..net..socket_addr..SocketAddrV4$u20$as$u20$core..fmt..Display$GT$3fmt17h71ba247cec70c098E",
            "__ZN89_$LT$serde..__private..de..content..UntaggedUnitVisitor$u20$as$u20$serde..de..Visitor$GT$9expecting17hac3315a66ad15449E",
            "__ZN95_$LT$regex_automata..util..primitives..StateID$u20$as$u20$core..convert..TryFrom$LT$u16$GT$$GT$8try_from17h01d0faa6b2ca6687E",
            "__ZN80_$LT$alloc..borrow..Cow$LT$str$GT$$u20$as$u20$regex..regex..string..Replacer$GT$14replace_append17h706b4421a44195a8E",
            "__ZN10cel_parser6parser25__parse__ArithmeticAddSub22ArithmeticAddSubParser5parse17h4facfab48722b284E",
            "__ZN254_$LT$alloc..boxed..convert..$LT$impl$u20$core..convert..From$LT$alloc..string..String$GT$$u20$for$u20$alloc..boxed..Box$LT$dyn$u20$core..error..Error$u2b$core..marker..Send$u2b$core..marker..Sync$GT$$GT$..from..StringError$u20$as$u20$core..fmt..Debug$GT$3fmt17h2cff656589a6e1faE",
            "__ZN6object4read2pe8resource17ResourceDirectory4root17hacc03b6bb09008e7E",
            "__ZN101_$LT$bytes..bytes_mut..BytesMut$u20$as$u20$core..cmp..PartialOrd$LT$alloc..vec..Vec$LT$u8$GT$$GT$$GT$11partial_cmp17h14e2a978ce97a181E",
            "__ZN143_$LT$serde..de..impls..$LT$impl$u20$serde..de..Deserialize$u20$for$u20$f64$GT$..deserialize..PrimitiveVisitor$u20$as$u20$serde..de..Visitor$GT$9expecting17he5e223c57c021c47E",
            "__ZN91_$LT$std..time..SystemTime$u20$as$u20$core..ops..arith..Add$LT$core..time..Duration$GT$$GT$3add17hd83cd53cd7a38e1fE",
            "__ZN53_$LT$std..env..ArgsOs$u20$as$u20$core..fmt..Debug$GT$3fmt17h9b3f617f7b8991c0E",
            "__ZN12aho_corasick11ahocorasick11AhoCorasick15min_pattern_len17hb686d1b8443e19bcE",
            "__ZN62_$LT$std..backtrace..Backtrace$u20$as$u20$core..fmt..Debug$GT$3fmt17h55e482c310a46c93E",
            "__ZN12regex_syntax3ast5parse6Parser3new17h1a5389f202d3f6e7E",
            "__ZN10cel_parser6parser15__parse__Member12MemberParser3new17h2159947acf4dfc1bE",
            "__ZN86_$LT$std..env..ArgsOs$u20$as$u20$core..iter..traits..exact_size..ExactSizeIterator$GT$3len17hcea9178b5413cfabE",
            "__ZN71_$LT$std..sync..poison..once..OnceState$u20$as$u20$core..fmt..Debug$GT$3fmt17h452a88b35a8938e1E",
            "__ZN81_$LT$$RF$$u5b$u8$u5d$$u20$as$u20$alloc..ffi..c_str..CString..new..SpecNewImpl$GT$13spec_new_impl17h4e1af1a2564d2f56E",
            "__ZN95_$LT$std..path..Components$u20$as$u20$core..iter..traits..double_ended..DoubleEndedIterator$GT$9next_back17hd860c75c665b28dcE",
            "__ZN77_$LT$$RF$$u5b$char$u5d$$u20$as$u20$nom..traits..FindToken$LT$$RF$char$GT$$GT$10find_token17hc6e80f10aef14002E",
            "__ZN79_$LT$cel_interpreter..ser..SerializationError$u20$as$u20$core..fmt..Display$GT$3fmt17heb77f01c41896c0cE",
            "__ZN6chrono5naive4date9NaiveDate16checked_sub_days17hfa8f285be096837dE",
            "__ZN92_$LT$regex_syntax..utf8..Utf8Sequences$u20$as$u20$core..iter..traits..iterator..Iterator$GT$4next17h12c641ce25828902E",
            "__ZN104_$LT$regex_automata..util..primitives..StateIDIter$u20$as$u20$core..iter..traits..iterator..Iterator$GT$4next17h0319c8be3d43040cE",
            "__ZN83_$LT$serde_json..value..ser..MapKeySerializer$u20$as$u20$serde..ser..Serializer$GT$14serialize_u12817h26643400fc461d0fE",
            "__ZN10cel_parser6parser17__parse__MapInits14MapInitsParser3new17h9683f5bbffa7f469E",
            "__ZN116_$LT$std..sys..pal..unix..process..process_common..CommandArgs$u20$as$u20$core..iter..traits..iterator..Iterator$GT$4next17hfb70fc8ad7cdacbeE",
            "__ZN12aho_corasick4util6buffer6Buffer11free_buffer17ha52db666af39271bE",
            "__ZN14regex_automata3nfa8thompson6pikevm5Cache3new17h7343834f9b607785E",
            "__ZN47_$LT$std..fs..File$u20$as$u20$std..io..Read$GT$4read17he84c060d080aa6b0E",
            "__ZN59_$LT$$RF$std..io..stdio..Stdin$u20$as$u20$std..io..Read$GT$4read17hd2355b8d072a401bE",
            "__ZN53_$LT$std..env..VarsOs$u20$as$u20$core..fmt..Debug$GT$3fmt17ha4644d12631717d7E",
            "__ZN5alloc7raw_vec19RawVec$LT$T$C$A$GT$8grow_one17h7db2e97af4957d92E",
            "__ZN3std3sys3pal4unix2fd8FileDesc17write_vectored_at17h2d24287ddd3481afE",
            "__ZN4core3fmt3num53_$LT$impl$u20$core..fmt..UpperHex$u20$for$u20$i64$GT$3fmt17h50cdaa1c8704bff0E",
            "__ZN4core9panicking18panic_nounwind_fmt17h0dbcea505cafaa5eE",
            "__ZN12aho_corasick6packed7pattern8Patterns3add17h3852a4305e1d1bb8E",
            "__ZN12regex_syntax3ast3Ast5empty17he0155d88b00e1a71E",
            "__ZN3std2fs4read5inner17h824b54f950070533E",
            "__ZN4core3fmt3num53_$LT$impl$u20$core..fmt..UpperHex$u20$for$u20$u32$GT$3fmt17hf85baa0eeb0eb1b4E",
            "__ZN5gimli4read5value5Value3rem17h15565f912a68a54aE",
            "__ZN97_$LT$serde..__private..de..content..InternallyTaggedUnitVisitor$u20$as$u20$serde..de..Visitor$GT$9expecting17h839809f6d403b885E",
            "__ZN64_$LT$std..backtrace..Backtrace$u20$as$u20$core..fmt..Display$GT$3fmt17h24524c3fa23c36bdE",
            "__ZN6chrono5naive8datetime13NaiveDateTime18checked_add_signed17h730959ce523a1d31E",
            "__ZN94_$LT$object..xcoff..SectionHeader32$u20$as$u20$object..read..xcoff..section..SectionHeader$GT$7s_vaddr17hfe51f9e6cc8eb2a8E",
            "__ZN101_$LT$chrono..naive..date..NaiveDateDaysIterator$u20$as$u20$core..iter..traits..iterator..Iterator$GT$4next17h9e7b3ba80911f0e9E",
            "__ZN3std2io10IoSliceMut10into_slice17hc806c757fbfc2b57E",
            "__ZN83_$LT$object..xcoff..AuxHeader32$u20$as$u20$object..read..xcoff..file..AuxHeader$GT$9o_maxdata17haa38dea66454bdf3E",
            "__ZN14regex_automata4meta8wrappers11PikeVMCache5reset17h832b28fdddf66949E",
            "__ZN83_$LT$regex_automata..util..wire..DeserializeError$u20$as$u20$core..fmt..Display$GT$3fmt17h8e563ea5d791947eE",
            "__ZN85_$LT$regex..regex..string..Regex$u20$as$u20$core..convert..TryFrom$LT$$RF$str$GT$$GT$8try_from17hd00a220123eb7361E",
            "__ZN94_$LT$aho_corasick..packed..api..FindIter$u20$as$u20$core..iter..traits..iterator..Iterator$GT$4next17h83adef19083b40a9E",
            "__ZN55_$LT$log..LevelFilter$u20$as$u20$core..fmt..Display$GT$3fmt17h8cfdd888130dee76E",
            "__ZN83_$LT$serde_json..value..ser..MapKeySerializer$u20$as$u20$serde..ser..Serializer$GT$14serialize_i12817hd8747d53cf996eb4E",
            "__ZN4core3fmt3num3imp53_$LT$impl$u20$core..fmt..LowerExp$u20$for$u20$u16$GT$3fmt17h5c9be56ea40dfa89E",
            "__ZN3std4sync6poison7condvar7Condvar10notify_one17h4fc90bb31023e64eE",
            "__ZN4core3fmt3num53_$LT$impl$u20$core..fmt..UpperHex$u20$for$u20$i32$GT$3fmt17h1ad62745468105d8E",
            "__ZN15cel_interpreter7Program10references17hc42163d291e6b170E",
            "__ZN66_$LT$std..sys..pal..unix..fs..Mode$u20$as$u20$core..fmt..Debug$GT$3fmt17h6710ec606964097aE",
            "__ZN10serde_json5value5Value7pointer17ha66ff6440eb5cbf0E",
            "__ZN3std2os4unix3net6stream10UnixStream12read_timeout17heb31ebce3700008fE",
            "__ZN59_$LT$regex_syntax..hir..Hir$u20$as$u20$core..fmt..Debug$GT$3fmt17hcf11887b2b200791E",
            "__ZN62_$LT$core..char..EscapeDebug$u20$as$u20$core..fmt..Display$GT$3fmt17h7d55bfd09591332aE",
            "__ZN78_$LT$cel_interpreter..ser..KeySerializer$u20$as$u20$serde..ser..Serializer$GT$22serialize_unit_variant17he204c562e95edfd9E",
            "__ZN97_$LT$regex..regexset..bytes..SetMatchesIter$u20$as$u20$core..iter..traits..iterator..Iterator$GT$9size_hint17hacc2f80e12f6f546E",
            "__ZN231_$LT$$LT$serde..de..impls..$LT$impl$u20$serde..de..Deserialize$u20$for$u20$core..result..Result$LT$T$C$E$GT$$GT$..deserialize..Field$u20$as$u20$serde..de..Deserialize$GT$..deserialize..FieldVisitor$u20$as$u20$serde..de..Visitor$GT$9expecting17h657d58894a348fe6E",
            "__ZN6object4read2pe7section48_$LT$impl$u20$object..pe..ImageSectionHeader$GT$13pe_file_range17h273e8cd4ae7c53faE",
            "__ZN3std2io5stdio6Stderr4lock17h73f27dc7289fe44bE",
            "__ZN5alloc7raw_vec19RawVec$LT$T$C$A$GT$8grow_one17h0412d68b075efa31E",
            "__ZN73_$LT$core..panic..panic_info..PanicInfo$u20$as$u20$core..fmt..Display$GT$3fmt17hcfdff35a344ff509E",
            "__ZN69_$LT$regex..regexset..bytes..RegexSet$u20$as$u20$core..fmt..Debug$GT$3fmt17hdb07a399adfcde06E",
            "__ZN75_$LT$gimli..read..abbrev..Attributes$u20$as$u20$core..ops..deref..Deref$GT$5deref17h1bd15c41fdb92db3E",
            "__ZN10serde_json5value2de81_$LT$impl$u20$core..str..traits..FromStr$u20$for$u20$serde_json..value..Value$GT$8from_str17h24a3df489ed20608E",
            "__ZN5alloc3ffi5c_str7CString18from_vec_unchecked17hf4230fcea70edeb2E",
            "__ZN5gimli9constants5DwTag13static_string17he0a4583bb463e637E",
            "__ZN81_$LT$bytes..bytes_mut..BytesMut$u20$as$u20$core..convert..From$LT$$RF$str$GT$$GT$4from17h0d0278c775176c81E",
            "__ZN5alloc3ffi5c_str7CString16into_boxed_c_str17ha8e9f9e4ca80ac04E",
            "__ZN61_$LT$std..process..ChildStdin$u20$as$u20$core..fmt..Debug$GT$3fmt17h2f9849096d858056E",
            "__ZN14regex_automata3nfa8thompson6pikevm6PikeVM21which_overlapping_imp17h9eaddafc1049953fE",
            "__ZN76_$LT$regex_automata..util..escape..DebugByte$u20$as$u20$core..fmt..Debug$GT$3fmt17h7ebe9604e66b223bE",
            "__ZN84_$LT$core..num..nonzero..NonZero$LT$i8$GT$$u20$as$u20$core..str..traits..FromStr$GT$8from_str17h21eaa03dc217b847E",
            "__ZN58_$LT$std..io..stdio..StdinRaw$u20$as$u20$std..io..Read$GT$8read_buf17h55be5287544baf92E",
            "__ZN3std3sys4sync6rwlock5queue6RwLock21read_unlock_contended17h9c46f8dc67eb2da4E",
            "__ZN10cel_parser6parser18__parse__Relations6__goto17h8bf574d10c60c515E",
            "__ZN6anyhow3fmt42_$LT$impl$u20$anyhow..error..ErrorImpl$GT$5debug17h8ae6329ae11c29acE",
            "__ZN100_$LT$anyhow..context..Quoted$LT$$RF$mut$u20$core..fmt..Formatter$GT$$u20$as$u20$core..fmt..Write$GT$9write_str17h12aa3df9be97a6aeE",
            "__ZN14regex_automata6hybrid3dfa6Config8get_quit17hf6770ab77aae91aaE",
            "__ZN5alloc3ffi5c_str139_$LT$impl$u20$core..convert..From$LT$$RF$mut$u20$core..ffi..c_str..CStr$GT$$u20$for$u20$alloc..boxed..Box$LT$core..ffi..c_str..CStr$GT$$GT$4from17h91d01ac57023b785E",
            "__ZN5alloc4sync16Arc$LT$T$C$A$GT$9drop_slow17h500495cf85a2a85aE",
            "__ZN83_$LT$serde_json..value..ser..MapKeySerializer$u20$as$u20$serde..ser..Serializer$GT$13serialize_u6417h6fa7b4eba74169ebE",
            "__ZN6object4read4util5Bytes12read_sleb12817h13a890e72b7c2086E",
            "__ZN6chrono5naive8datetime13NaiveDateTime18checked_sub_months17h173e8b8cd6264df3E",
            "__ZN85_$LT$object..xcoff..FileHeader64$u20$as$u20$object..read..xcoff..file..FileHeader$GT$7f_nscns17hea0c557013429135E",
            "__ZN4core3str21_$LT$impl$u20$str$GT$12escape_debug17h1d1ae5dc92753874E",
            "__ZN91_$LT$addr2line..LocationRangeUnitIter$u20$as$u20$core..iter..traits..iterator..Iterator$GT$4next17hee9574843bd75adaE",
            "__ZN4core9panicking13assert_failed17h2c77165b43b16256E",
            "__ZN5bytes9bytes_mut109_$LT$impl$u20$core..convert..From$LT$bytes..bytes_mut..BytesMut$GT$$u20$for$u20$alloc..vec..Vec$LT$u8$GT$$GT$4from17h0349cc09c730e728E",
            "__ZN79_$LT$std..os..unix..net..datagram..UnixDatagram$u20$as$u20$core..fmt..Debug$GT$3fmt17ha3f8fcea43e70a34E",
            "__ZN57_$LT$u8$u20$as$u20$regex_syntax..hir..interval..Bound$GT$9decrement17ha138619c526691d2E",
            "__ZN4core3num6bignum5tests6Big8x37get_bit17h44ef61a550da2bfaE",
            "__ZN81_$LT$$u5b$u8$u3b$$u20$29$u5d$$u20$as$u20$nom..traits..FindToken$LT$$RF$u8$GT$$GT$10find_token17he18ea77fe794b39cE",
            "__ZN104_$LT$std..io..error..Error$u20$as$u20$core..convert..From$LT$alloc..collections..TryReserveError$GT$$GT$4from17h1681ea295b0b27e0E",
            "__ZN57_$LT$std..io..stdio..Stdout$u20$as$u20$std..io..Write$GT$5write17hf1f5a808b5866089E",
            "__ZN4core3fmt3num3imp52_$LT$impl$u20$core..fmt..Display$u20$for$u20$u16$GT$3fmt17h077e8ff9954af4d5E",
            "__ZN55_$LT$std..io..util..Repeat$u20$as$u20$std..io..Read$GT$14read_to_string17h09c781a40325eeaaE",
            "__ZN5alloc7raw_vec19RawVec$LT$T$C$A$GT$8grow_one17h61be20b01d361969E",
            "__ZN83_$LT$object..xcoff..AuxHeader32$u20$as$u20$object..read..xcoff..file..AuxHeader$GT$10o_maxstack17h239501d130cb8818E",
            "__ZN142_$LT$serde..de..impls..$LT$impl$u20$serde..de..Deserialize$u20$for$u20$i8$GT$..deserialize..PrimitiveVisitor$u20$as$u20$serde..de..Visitor$GT$9expecting17h015771535df81cb6E",
            "__ZN5regex8builders5bytes15RegexSetBuilder15line_terminator17h41ec31902e89300eE",
            "__ZN74_$LT$gimli..read..endian_slice..DebugBytes$u20$as$u20$core..fmt..Debug$GT$3fmt17hb348f243120d5e9eE",
            "__ZN3std2os4unix3net6stream10UnixStream8shutdown17hcc0258e079274c20E",
            "__ZN5alloc4sync16Arc$LT$T$C$A$GT$9drop_slow17h706341f7da925b7aE",
            "__ZN63_$LT$$RF$std..net..tcp..TcpStream$u20$as$u20$std..io..Write$GT$5write17h5d8cb0541bce507cE",
            "__ZN65_$LT$object..read..util..DebugLen$u20$as$u20$core..fmt..Debug$GT$3fmt17h2de12905ac0aaeb2E",
            "__ZN10cel_parser6parser28__parse__ArithmeticMulDivMod25ArithmeticMulDivModParser5parse17h648e7d465f164207E",
            "__ZN4core5slice5index26slice_start_index_len_fail8do_panic7runtime17h3cb5629fcc544734E",
            "__ZN12futures_lite6future8block_on16parker_and_waker17hbf120068e7ede6bbE",
            "__ZN82_$LT$regex_automata..util..primitives..NonMaxUsize$u20$as$u20$core..fmt..Debug$GT$3fmt17hc6736e9ec0eac1ffE",
            "__ZN71_$LT$serde..de..impls..CStringVisitor$u20$as$u20$serde..de..Visitor$GT$9expecting17h92cc5e9ba6d0dd4eE",
            "__ZN10serde_json3ser24float_key_must_be_finite17h888ff943c1417329E",
            "__ZN85_$LT$object..xcoff..FileHeader64$u20$as$u20$object..read..xcoff..file..FileHeader$GT$8f_symptr17hf88ee9f222c5e227E",
            "__ZN83_$LT$object..xcoff..CsectAux32$u20$as$u20$object..read..xcoff..symbol..CsectAux$GT$8x_snstab17h9652aeb9fe75049dE",
            "__ZN105_$LT$std..sys..pal..unix..args..Args$u20$as$u20$core..iter..traits..double_ended..DoubleEndedIterator$GT$9next_back17h14c87df399bb054fE",
            "__ZN81_$LT$$u5b$u8$u3b$$u20$31$u5d$$u20$as$u20$nom..traits..FindToken$LT$$RF$u8$GT$$GT$10find_token17hc244c04bb07ec882E",
            "__ZN3std3net3udp9UdpSocket13set_broadcast17h7a9ee582fef63455E",
            "__ZN5alloc4sync16Arc$LT$T$C$A$GT$9drop_slow17ha1fe9ddf821b69e0E",
            "__ZN5bytes5bytes103_$LT$impl$u20$core..cmp..PartialEq$LT$bytes..bytes..Bytes$GT$$u20$for$u20$alloc..vec..Vec$LT$u8$GT$$GT$2eq17hcca85c26c6d16258E",
            "__ZN4core3fmt3num52_$LT$impl$u20$core..fmt..Octal$u20$for$u20$isize$GT$3fmt17h3481192909123827E",
            "__ZN6chrono5naive8datetime13NaiveDateTime16checked_sub_days17h28c242c6b29cc7a7E",
            "__ZN5alloc7raw_vec19RawVec$LT$T$C$A$GT$8grow_one17ha3d2fa55b00cf5f5E",
            "__ZN5alloc4sync16Arc$LT$T$C$A$GT$9drop_slow17hf8af31bf87e65fd4E",
            "__ZN14regex_automata4util8alphabet7ByteSet8contains17h94edbd141ca048a5E",
            "__ZN72_$LT$core..num..error..TryFromIntError$u20$as$u20$core..fmt..Display$GT$3fmt17h1327e0ed5734611aE",
            "__ZN3std3net3tcp11TcpListener10take_error17h4cadd83091fe5c34E",
            "__ZN5alloc6string6String17try_reserve_exact17h98c168c704805dfdE",
            "__ZN14regex_automata3nfa8thompson7builder7Builder9add_range17hbc00b72d764180b4E",
            "__ZN15cel_interpreter14ExecutionError23not_supported_as_method17hefc6e310aa4ae8e5E",
            "__ZN62_$LT$gimli..constants..DwTag$u20$as$u20$core..fmt..Display$GT$3fmt17ha7220dcaf03e5121E",
            "__ZN4core3fmt8builders9DebugList7entries17hdca1f977350fe424E",
            "__ZN81_$LT$$u5b$u8$u3b$$u20$13$u5d$$u20$as$u20$nom..traits..FindToken$LT$$RF$u8$GT$$GT$10find_token17h5cb40b173a26fbf8E",
            "__ZN3std7process7Command8get_args17h84270bccaff8bd84E",
            "__ZN60_$LT$std..io..stdio..StdoutRaw$u20$as$u20$std..io..Write$GT$5write17h61f9ad91682338b1E",
            "__ZN66_$LT$core..sync..atomic..AtomicI32$u20$as$u20$core..fmt..Debug$GT$3fmt17h5df1099290fd16faE",
            "__ZN4core3num6bignum8Big32x4010bit_length17hd967a0013c325d11E",
            "__ZN77_$LT$serde_json..value..ser..Serializer$u20$as$u20$serde..ser..Serializer$GT$22serialize_tuple_struct17hf112af901328ceccE",
            "__ZN74_$LT$aho_corasick..nfa..noncontiguous..NFA$u20$as$u20$core..fmt..Debug$GT$3fmt17h85b82ab4d071177bE",
            "__ZN4core5slice4sort8unstable7ipnsort17h37b3217fd01c2647E",
            "__ZN5serde3ser3fmt85_$LT$impl$u20$serde..ser..Serializer$u20$for$u20$$RF$mut$u20$core..fmt..Formatter$GT$14serialize_bool17h2105d3d447ac9d36E",
            "__ZN126_$LT$std..process..Child$u20$as$u20$std..sys_common..IntoInner$LT$std..sys..pal..unix..process..process_inner..Process$GT$$GT$10into_inner17h235ea68f0ac625f8E",
            "__ZN69_$LT$serde_json..value..index..Type$u20$as$u20$core..fmt..Display$GT$3fmt17ha557a75c970e02a5E",
            "__ZN3std3sys6os_str5bytes3Buf11into_string17h85a9422666f43349E",
            "__ZN5alloc5boxed7convert184_$LT$impl$u20$core..convert..From$LT$alloc..borrow..Cow$LT$str$GT$$GT$$u20$for$u20$alloc..boxed..Box$LT$dyn$u20$core..error..Error$u2b$core..marker..Send$u2b$core..marker..Sync$GT$$GT$4from17hd7236adcd8a55ea3E",
            "__ZN78_$LT$cel_interpreter..ser..KeySerializer$u20$as$u20$serde..ser..Serializer$GT$23serialize_tuple_variant17h61b8bda7b8f3ada2E",
            "__ZN4core3num6bignum5tests6Big8x37div_rem17hbf374d8c70fdd85aE",
            "__ZN4core9panicking19assert_failed_inner17hc0e08cfd87de7463E",
            "__ZN5alloc7raw_vec19RawVec$LT$T$C$A$GT$8grow_one17h54232309c5822e70E",
            "__ZN62_$LT$gimli..constants..DwIdx$u20$as$u20$core..fmt..Display$GT$3fmt17hd2df8f995d2b1cc2E",
            "__ZN11uniffi_core8metadata14MetadataBuffer9from_code17h3cc91b4ba10f2ed1E",
            "__ZN3std3sys9backtrace26__rust_end_short_backtrace17hf3a241ce4bb6550cE",
            "__ZN5bytes9bytes_mut92_$LT$impl$u20$core..cmp..PartialEq$LT$bytes..bytes_mut..BytesMut$GT$$u20$for$u20$$RF$str$GT$2eq17ha5a92815424786d4E",
            "__ZN4core7unicode12unicode_data9uppercase6lookup17h93a5786531ef92fdE",
            "__ZN10cel_parser6parser16__parse__Primary13PrimaryParser5parse17hdb6ded4de70f5807E",
            "__ZN163_$LT$cel_eval..ast.._..$LT$impl$u20$serde..de..Deserialize$u20$for$u20$cel_eval..ast..JSONMember$GT$..deserialize..__FieldVisitor$u20$as$u20$serde..de..Visitor$GT$9expecting17h1398fca6a740ec20E",
            "__ZN12regex_syntax6parser6Parser3new17h3fb90a11d5c924a3E",
            "__ZN5gimli4read5value5Value3xor17h3f7a53cd1c82665eE",
            "__ZN4core5slice5index10into_range17h5de48ffc62fd1402E",
            "__ZN57_$LT$log..Level$u20$as$u20$core..str..traits..FromStr$GT$8from_str17h187700313c2970feE",
            "__ZN3std3sys3pal4unix2fs6fchown17h5b43b750c327dd86E",
            "__ZN83_$LT$object..xcoff..AuxHeader64$u20$as$u20$object..read..xcoff..file..AuxHeader$GT$10o_maxstack17h48ffb6f8e9f5d126E",
            "__ZN10serde_json5value10partial_eq104_$LT$impl$u20$core..cmp..PartialEq$LT$alloc..string..String$GT$$u20$for$u20$serde_json..value..Value$GT$2eq17h2c606c5dee3f8669E",
            "__ZN12regex_syntax3hir10Properties5class17h3daacd926d95a0c3E",
            "__ZN83_$LT$object..xcoff..AuxHeader64$u20$as$u20$object..read..xcoff..file..AuxHeader$GT$7o_sntoc17h9e1167dfead97fd4E",
            "__ZN61_$LT$std..io..stdio..StderrLock$u20$as$u20$std..io..Write$GT$5flush17hdae4da7e843b57e8E",
            "__ZN5alloc6string6String12insert_bytes17h47ec2eab60efc914E",
            "__ZN97_$LT$regex_automata..util..primitives..PatternID$u20$as$u20$core..convert..TryFrom$LT$u16$GT$$GT$8try_from17h67f19e8901e54d2cE",
            "__ZN11uniffi_core8metadata13calc_checksum17h7024a8eaf0099c1aE",
            "__ZN14regex_automata3nfa8thompson7builder7Builder9add_union17h0e79948fb2af413dE",
            "__ZN5alloc7raw_vec19RawVec$LT$T$C$A$GT$8grow_one17h536a8d5f621fbd37E",
            "__ZN83_$LT$serde_json..value..ser..MapKeySerializer$u20$as$u20$serde..ser..Serializer$GT$22serialize_tuple_struct17hd90d827d7bef3649E",
            "__ZN87_$LT$regex_automata..meta..error..RetryQuadraticError$u20$as$u20$core..fmt..Display$GT$3fmt17h43031dcbd6b014a3E",
            "__ZN176_$LT$serde..de..impls..$LT$impl$u20$serde..de..Deserialize$u20$for$u20$core..num..nonzero..NonZero$LT$u64$GT$$GT$..deserialize..NonZeroVisitor$u20$as$u20$serde..de..Visitor$GT$9expecting17h31bcf92869db5712E",
            "__ZN184_$LT$serde..de..impls..$LT$impl$u20$serde..de..Deserialize$u20$for$u20$core..num..saturating..Saturating$LT$i8$GT$$GT$..deserialize..SaturatingVisitor$u20$as$u20$serde..de..Visitor$GT$9expecting17h3d10b2c80139ca92E",
            "__ZN150_$LT$core..option..Option$LT$chrono..datetime..DateTime$LT$chrono..offset..fixed..FixedOffset$GT$$GT$$u20$as$u20$cel_interpreter..magic..FromValue$GT$10from_value17hf4fa8360a63441cdE",
            "__ZN94_$LT$object..xcoff..SectionHeader64$u20$as$u20$object..read..xcoff..section..SectionHeader$GT$8s_scnptr17h3906c68344119c25E",
            "__ZN80_$LT$regex_automata..hybrid..error..CacheError$u20$as$u20$core..fmt..Display$GT$3fmt17hdf34cc08ffd096b4E",
            "__ZN55_$LT$std..io..stdio..Stdin$u20$as$u20$std..io..Read$GT$14read_buf_exact17h4a3e80e27ea158eaE",
            "__ZN5alloc7raw_vec19RawVec$LT$T$C$A$GT$8grow_one17h926db59987a60cb6E",
            "__ZN83_$LT$serde_json..value..ser..MapKeySerializer$u20$as$u20$serde..ser..Serializer$GT$15serialize_bytes17h224652dbf97d8d67E",
            "__ZN76_$LT$$u5b$u8$u3b$$u20$3$u5d$$u20$as$u20$nom..traits..FindToken$LT$u8$GT$$GT$10find_token17hdaed49fee1ff3d32E",
            "__ZN14regex_automata4meta8wrappers12OnePassCache5reset17h9a1e78565edee10fE",
            "__ZN67_$LT$rustc_demangle..v0..Demangle$u20$as$u20$core..fmt..Display$GT$3fmt17h76ce3fb4f257e92fE",
            "__ZN3std3sys4sync7condvar7pthread7Condvar12wait_timeout17haa3cab9ca73eac65E",
            "__ZN5alloc7raw_vec19RawVec$LT$T$C$A$GT$8grow_one17ha93f8a2e935f8a09E",
            "__ZN3std2io5stdio6stdout17h410cd287c1db02f6E",
            "__ZN3std9panicking12default_hook17h07d557f78f0af0afE",
            "__ZN74_$LT$core..char..convert..ParseCharError$u20$as$u20$core..fmt..Display$GT$3fmt17h8e483e7431610eecE",
            "__ZN229_$LT$$LT$cel_eval..ast.._..$LT$impl$u20$serde..de..Deserialize$u20$for$u20$cel_eval..ast..JSONExpression$GT$..deserialize..__Seed$u20$as$u20$serde..de..DeserializeSeed$GT$..deserialize..__Visitor$u20$as$u20$serde..de..Visitor$GT$9expecting17h505b550e7ec7eb6dE",
            "__ZN5alloc4sync16Arc$LT$T$C$A$GT$9drop_slow17he9a6b089250e8399E",
            "__ZN167_$LT$cel_eval..ast.._..$LT$impl$u20$serde..de..Deserialize$u20$for$u20$cel_eval..ast..JSONExpression$GT$..deserialize..__FieldVisitor$u20$as$u20$serde..de..Visitor$GT$9expecting17h96bd4685a726f6f6E",
            "__ZN83_$LT$object..xcoff..AuxHeader32$u20$as$u20$object..read..xcoff..file..AuxHeader$GT$7o_sntoc17h008c4ff4cb84922cE",
            "__ZN77_$LT$std..backtrace_rs..symbolize..SymbolName$u20$as$u20$core..fmt..Debug$GT$3fmt17h4fd2382ede0256deE",
            "__ZN77_$LT$$RF$std..os..unix..net..stream..UnixStream$u20$as$u20$std..io..Write$GT$5write17hd41d6e6ac6505685E",
            "__ZN81_$LT$bytes..bytes..Bytes$u20$as$u20$core..cmp..PartialOrd$LT$$u5b$u8$u5d$$GT$$GT$11partial_cmp17hee4940aa3414096bE",
            "__ZN61_$LT$$RF$std..io..stdio..Stderr$u20$as$u20$std..io..Write$GT$5flush17h93c58ae96f11d0e2E",
            "__ZN3std3sys6os_str5bytes5Slice9empty_box17he4a64992b92b022aE",
            "__ZN6chrono6format6parsed6Parsed13to_naive_date17h79dcbc26a5f06d77E",
            "__ZN14regex_automata4util11interpolate12find_cap_ref17hcf56888374a07209E",
            "__ZN60_$LT$std..fs..File$u20$as$u20$std..os..unix..fs..FileExt$GT$8write_at17h0b15aa94e81ec973E",
            "__ZN5alloc4sync16Arc$LT$T$C$A$GT$9drop_slow17h0c2b067ebb74840fE",
            "__ZN61_$LT$rustc_demangle..Demangle$u20$as$u20$core..fmt..Debug$GT$3fmt17h38ffd694873c045fE",
            "__ZN87_$LT$regex..regex..string..Captures$u20$as$u20$core..ops..index..Index$LT$usize$GT$$GT$5index17h095bfe1798a9c7dcE",
            "__ZN73_$LT$alloc..string..String$u20$as$u20$serde_json..value..index..Index$GT$10index_into17h2fdc61e59982415eE",
            "__ZN77_$LT$serde_json..value..ser..Serializer$u20$as$u20$serde..ser..Serializer$GT$24serialize_struct_variant17h356a8a032a9b8624E",
            "__ZN54_$LT$std..fs..Metadata$u20$as$u20$core..fmt..Debug$GT$3fmt17hdff7c2319f69007bE",
            "__ZN4core3fmt9Formatter25debug_tuple_field3_finish17h59109934294e58b0E",
            "__ZN4core3num6bignum8Big32x407get_bit17he912992cc55b5634E",
            "__ZN3std4path4Path15_with_extension17hf9ada8c71df0f209E",
            "__ZN106_$LT$regex_automata..util..primitives..PatternIDIter$u20$as$u20$core..iter..traits..iterator..Iterator$GT$4next17h342b5274f0a0b80eE",
            "__ZN5alloc7raw_vec19RawVec$LT$T$C$A$GT$8grow_one17ha9ff59dd04268e7aE",
            "__ZN76_$LT$$RF$std..os..unix..net..stream..UnixStream$u20$as$u20$std..io..Read$GT$8read_buf17h1f02708508916fecE",
            "__ZN4core5slice4sort6stable14driftsort_main17h61176e3dd6712495E",
            "__ZN5alloc3ffi5c_str19FromVecWithNulError8as_bytes17hca3cd9bc38ffaab2E",
            "__ZN5alloc7raw_vec19RawVec$LT$T$C$A$GT$8grow_one17h36f4ded16db79fc3E",
            "__ZN97_$LT$regex_syntax..hir..translate..TranslatorI$u20$as$u20$regex_syntax..ast..visitor..Visitor$GT$28visit_class_set_binary_op_in17hc127f1c47138ad65E",
            "__ZN83_$LT$object..xcoff..AuxHeader64$u20$as$u20$object..read..xcoff..file..AuxHeader$GT$7o_tsize17hae5cbcc6042a839aE",
            "__ZN117_$LT$cel_parser..parser..__parse__Member..__StateMachine$u20$as$u20$lalrpop_util..state_machine..ParserDefinition$GT$15token_to_symbol17h88edbe626b982194E",
            "__ZN3std6thread6Thread8from_raw17h18efe61a3ac15d81E",
            "__ZN80_$LT$regex_automata..util..escape..DebugHaystack$u20$as$u20$core..fmt..Debug$GT$3fmt17ha89b4a3f5654847bE",
            "__ZN12regex_syntax3hir12ClassUnicode10difference17h5e7b2f2c1cc9ed55E",
            "__ZN8cel_eval5maybe17h616235d416b43743E",
            "__ZN59_$LT$std..io..stdio..StdinLock$u20$as$u20$std..io..Read$GT$14read_to_string17h4a5d447de4b96c7bE",
            "__ZN80_$LT$$u5b$u8$u3b$$u20$1$u5d$$u20$as$u20$nom..traits..FindToken$LT$$RF$u8$GT$$GT$10find_token17h1e33b10fc8173509E",
            "__ZN5alloc4sync16Arc$LT$T$C$A$GT$9drop_slow17hf203c18b0082e14cE",
            "__ZN3std3sys3pal4unix2fd8FileDesc11read_to_end17hc76df110720c00eaE",
            "__ZN5bytes5bytes82_$LT$impl$u20$core..cmp..PartialOrd$LT$bytes..bytes..Bytes$GT$$u20$for$u20$str$GT$11partial_cmp17h515008004be5a4a1E",
            "__ZN185_$LT$serde..de..impls..$LT$impl$u20$serde..de..Deserialize$u20$for$u20$core..num..saturating..Saturating$LT$i32$GT$$GT$..deserialize..SaturatingVisitor$u20$as$u20$serde..de..Visitor$GT$9expecting17h11f16f85990e3c1eE",
            "__ZN14regex_automata3nfa8thompson7builder7Builder18current_pattern_id17hb753938522da8965E",
            "__ZN73_$LT$core..ascii..ascii_char..AsciiChar$u20$as$u20$core..fmt..Display$GT$3fmt17h41ff76c4474b97b3E",
            "__ZN12aho_corasick4util6buffer6Buffer4roll17hb8bba696359de630E",
            "__ZN99_$LT$serde_json..value..ser..SerializeTupleVariant$u20$as$u20$serde..ser..SerializeTupleVariant$GT$3end17h864af7b0a32ba3ceE",
            "__ZN3std2fs4File7set_len17h9343e9d0b701c0dbE",
            "__ZN4core3fmt3num3imp53_$LT$impl$u20$core..fmt..LowerExp$u20$for$u20$u64$GT$3fmt17h1bb71f22fc01d4e7E",
            "__ZN68_$LT$std..thread..local..AccessError$u20$as$u20$core..fmt..Debug$GT$3fmt17h40f4e21e3a1bea06E",
            "__ZN4core9panicking11panic_const24panic_const_rem_overflow17h4706657de800c1e1E",
            "__ZN81_$LT$$u5b$u8$u3b$$u20$30$u5d$$u20$as$u20$nom..traits..FindToken$LT$$RF$u8$GT$$GT$10find_token17h351a6d0468e879bfE",
            "__ZN5alloc4sync16Arc$LT$T$C$A$GT$9drop_slow17hb66e2283853da10eE",
            "__ZN14regex_automata6hybrid3dfa7LazyRef16get_cached_state17h8e04556bae4d8c20E",
            "__ZN68_$LT$regex_syntax..hir..literal..Seq$u20$as$u20$core..fmt..Debug$GT$3fmt17h2a31f4b00e7d4be8E",
            "__ZN57_$LT$std..io..stdio..Stdout$u20$as$u20$std..io..Write$GT$9write_fmt17he57b6ef7ce708bf5E",
            "__ZN5alloc3ffi5c_str7CString11into_string17hbee58670b12235cbE",
            "__ZN3ryu6pretty8format6417h02c5450e97c57eb3E",
            "__ZN4core3num3fmt9Formatted3len17hb70f14a79b447e85E",
            "__ZN3std2os4unix3net8listener12UnixListener9bind_addr17h134f867652d348f6E",
            "__ZN4core3fmt3num3imp51_$LT$impl$u20$core..fmt..Display$u20$for$u20$u8$GT$3fmt17hce04a33e5a495128E",
            "__ZN3std2os4unix3net6stream10UnixStream16set_read_timeout17h634708d9b6239edaE",
            "__ZN14regex_automata4meta5regex5Cache3new17h6124118b2f2f718dE",
            "__ZN14regex_automata3nfa8thompson8compiler8Compiler3new17h058151f1fb989ef6E",
            "__ZN14regex_automata4meta8strategy4Core13search_nofail17ha8ec0906dd623717E",
            "__ZN83_$LT$object..xcoff..AuxHeader32$u20$as$u20$object..read..xcoff..file..AuxHeader$GT$8o_sntbss17hf4452ca63b2b99f4E",
            "__ZN57_$LT$core..fmt..Arguments$u20$as$u20$core..fmt..Debug$GT$3fmt17h81d53e8bcfbe3e0dE",
            "__ZN121_$LT$cel_parser..parser..__parse__FieldInits..__StateMachine$u20$as$u20$lalrpop_util..state_machine..ParserDefinition$GT$6reduce17h537fa19113a9b724E",
            "__ZN121_$LT$cel_parser..parser..__parse__Expression..__StateMachine$u20$as$u20$lalrpop_util..state_machine..ParserDefinition$GT$15simulate_reduce17h1347a3dfd8227de4E",
            "__ZN11uniffi_core3ffi10rustfuture9scheduler9Scheduler5store17h1365b2ccc706b889E",
            "__ZN4core9panicking11panic_const29panic_const_coroutine_resumed17ha64c1ecfffb450c6E",
            "__ZN68_$LT$serde_json..read..StrRead$u20$as$u20$serde_json..read..Read$GT$13peek_position17h35ac780a83b9d589E",
            "__ZN83_$LT$memchr..memmem..FindIter$u20$as$u20$core..iter..traits..iterator..Iterator$GT$9size_hint17ha37d83364c46c47bE",
            "__ZN4core5slice4sort8unstable7ipnsort17ha5f1c25483bf7107E",
            "__ZN78_$LT$bytes..bytes_mut..BytesMut$u20$as$u20$core..cmp..PartialEq$LT$str$GT$$GT$2eq17hfe7b0c3c1966a1fbE",
            "__ZN82_$LT$core..char..ToUppercase$u20$as$u20$core..iter..traits..iterator..Iterator$GT$4next17ha1c17f123f6133deE",
            "__ZN4core3num7flt2dec8strategy5grisu19format_shortest_opt17hf274cc570e6c3dc4E",
            "__ZN5alloc6string6String11try_reserve17h06de14b827319e11E",
            "__ZN5alloc6string13FromUtf8Error15into_utf8_lossy17h1129ca2bb276badfE",
            "__ZN57_$LT$std..io..stdio..Stdout$u20$as$u20$std..io..Write$GT$14write_vectored17h210527135e5d68bbE",
            "__ZN4core3fmt3num51_$LT$impl$u20$core..fmt..Binary$u20$for$u20$u16$GT$3fmt17h0086d1bdc6a1f11bE",
            "__ZN63_$LT$gimli..constants..DwLnct$u20$as$u20$core..fmt..Display$GT$3fmt17hc683de8bb32533ebE",
            "__ZN6object4read2pe8resource12ResourceName15to_string_lossy17he5e74ac6ef236895E",
            "__ZN40_$LT$str$u20$as$u20$core..fmt..Debug$GT$3fmt17hae25a9d570ac3aaaE",
            "__ZN4core3fmt3num3imp52_$LT$impl$u20$core..fmt..Display$u20$for$u20$u64$GT$3fmt17hd265b89bf2cbe0cdE",
            "__ZN3std2os4unix3net8datagram12UnixDatagram9try_clone17h456f3dd6fcff0119E",
            "__ZN94_$LT$object..xcoff..SectionHeader32$u20$as$u20$object..read..xcoff..section..SectionHeader$GT$7s_nlnno17hd4819863cedbc4a5E",
            "__ZN71_$LT$chrono..weekday..ParseWeekdayError$u20$as$u20$core..fmt..Debug$GT$3fmt17h5357a027906a717bE",
            "__ZN4core3num6bignum8Big32x407is_zero17h73a6da6833970778E",
            "__ZN83_$LT$object..xcoff..AuxHeader64$u20$as$u20$object..read..xcoff..file..AuxHeader$GT$10o_algntext17hd1db95848e8098ecE",
            "__ZN142_$LT$serde..de..impls..$LT$impl$u20$serde..de..Deserialize$u20$for$u20$u8$GT$..deserialize..PrimitiveVisitor$u20$as$u20$serde..de..Visitor$GT$9expecting17h6ea6ad3f7e25f2b0E",
            "__ZN116_$LT$core..net..ip_addr..Ipv4Addr$u20$as$u20$core..ops..bit..BitOrAssign$LT$$RF$core..net..ip_addr..Ipv4Addr$GT$$GT$12bitor_assign17hf3e61de02d0f921bE",
            "__ZN78_$LT$object..macho..FatArch32$u20$as$u20$object..read..macho..fat..FatArch$GT$5align17h63734c74636d2eb6E",
            "__ZN87_$LT$regex_syntax..hir..literal..Literal$u20$as$u20$core..convert..From$LT$char$GT$$GT$4from17hc2176545dc0203b4E",
            "__ZN3std3sys6os_str5bytes5Slice21check_public_boundary9slow_path17h20340e26ba8c406aE",
            "__ZN52_$LT$parking..Parker$u20$as$u20$core..fmt..Debug$GT$3fmt17h1b2b29d7d290d2ccE",
            "__ZN76_$LT$core..mem..transmutability..Assume$u20$as$u20$core..ops..arith..Sub$GT$3sub17h2c2b9e7b99a4bdb6E",
            "__ZN12regex_syntax3ast3Ast10class_perl17hdc47a6f83da9009eE",
            "__ZN10cel_parser6parser19__parse__LogicalAnd6__goto17hcfc3384142456a30E",
            "__ZN5alloc4sync16Arc$LT$T$C$A$GT$9drop_slow17hffc7c8c623ba8fbaE",
            "__ZN3std3net3tcp9TcpStream10local_addr17h44e2b9852cf4c438E",
            "__ZN79_$LT$object..xcoff..Symbol64$u20$as$u20$object..read..xcoff..symbol..Symbol$GT$7n_value17h7476cc608219fbbfE",
            "__ZN3std2io8buffered9bufwriter18BufWriter$LT$W$GT$14write_all_cold17h225d10818ea58f21E",
            "__ZN82_$LT$std..sys..pal..unix..fs..cfm..CachedFileMetadata$u20$as$u20$std..io..Read$GT$14read_to_string17h637137ec707f427aE",
            "__ZN10cel_parser6parser14__parse__Unary11UnaryParser3new17h943a7189ed90d979E",
            "__ZN9hashbrown3raw21RawTable$LT$T$C$A$GT$14reserve_rehash17hd222d0ccac5fb550E",
            "__ZN6chrono5naive4date9NaiveDate12from_ymd_opt17h975f95192fc84074E",
            "__ZN76_$LT$$u5b$u8$u3b$$u20$7$u5d$$u20$as$u20$nom..traits..FindToken$LT$u8$GT$$GT$10find_token17he2f39c37d4d656e5E",
            "__ZN90_$LT$serde..__private..de..borrow_cow_str..CowStrVisitor$u20$as$u20$serde..de..Visitor$GT$9expecting17h531de5b193602c1eE",
            "__ZN234_$LT$$LT$cel_eval..models.._..$LT$impl$u20$serde..de..Deserialize$u20$for$u20$cel_eval..models..PassableValue$GT$..deserialize..__Seed$u20$as$u20$serde..de..DeserializeSeed$GT$..deserialize..__Visitor$u20$as$u20$serde..de..Visitor$GT$9expecting17h387194f8ce15c8ddE",
            "__ZN3std3sys3pal4unix2fs12canonicalize17h105a0df431493227E",
            "__ZN83_$LT$serde_json..value..ser..MapKeySerializer$u20$as$u20$serde..ser..Serializer$GT$23serialize_tuple_variant17h8a06bf11f67afe31E",
            "__ZN58_$LT$$RF$str$u20$as$u20$regex..regex..string..Replacer$GT$12no_expansion17h33cd3e6f511e27f9E",
            "__ZN59_$LT$core..ffi..c_str..CStr$u20$as$u20$core..fmt..Debug$GT$3fmt17h0a7f346ad48dc3a6E",
            "__ZN60_$LT$std..fs..File$u20$as$u20$std..os..unix..fs..FileExt$GT$16read_vectored_at17hba9b540fc60aa7bbE",
            "__ZN4core3net6parser93_$LT$impl$u20$core..str..traits..FromStr$u20$for$u20$core..net..socket_addr..SocketAddrV6$GT$8from_str17h16eac5387559a800E",
            "__ZN98_$LT$regex..regexset..string..SetMatchesIter$u20$as$u20$core..iter..traits..iterator..Iterator$GT$4next17h75fb0564a2e7b6e3E",
            "__ZN63_$LT$$RF$std..process..ChildStdin$u20$as$u20$std..io..Write$GT$14write_vectored17h0cd2c9aa82019b8bE",
            "__ZN3log11LevelFilter6as_str17h0fc46ed46b659af6E",
            "__ZN83_$LT$object..xcoff..AuxHeader64$u20$as$u20$object..read..xcoff..file..AuxHeader$GT$8o_vstamp17hb0245b370547e607E",
            "__ZN230_$LT$$LT$serde..de..impls..$LT$impl$u20$serde..de..Deserialize$u20$for$u20$core..ops..range..Bound$LT$T$GT$$GT$..deserialize..Field$u20$as$u20$serde..de..Deserialize$GT$..deserialize..FieldVisitor$u20$as$u20$serde..de..Visitor$GT$9expecting17h3b8560539d9e6007E",
            "__ZN83_$LT$object..xcoff..AuxHeader32$u20$as$u20$object..read..xcoff..file..AuxHeader$GT$8o_sntext17hb667221ea48d33a0E",
            "__ZN6object4read4coff6import10ImportFile5parse12strip_prefix17h20cbdf5e9e7a95e5E",
            "__ZN14regex_automata4util8captures14GroupInfoInner17fixup_slot_ranges17h18f0eb5d02e4abf8E",
            "__ZN4core3num7flt2dec8strategy5grisu12cached_power17h5bd92664b3192733E",
            "__ZN82_$LT$serde_json..value..de..SeqRefDeserializer$u20$as$u20$serde..de..SeqAccess$GT$9size_hint17heca21bc5d707d489E",
            "__ZN83_$LT$serde_json..value..ser..MapKeySerializer$u20$as$u20$serde..ser..Serializer$GT$21serialize_unit_struct17h261b78c727e06c51E",
            "__ZN60_$LT$serde..de..Unexpected$u20$as$u20$core..fmt..Display$GT$3fmt17hec246cd6be52e4afE",
            "__ZN14regex_automata3nfa8thompson8compiler8Compiler6syntax17he35a4df72d7c33f6E",
            "__ZN143_$LT$serde..de..impls..$LT$impl$u20$serde..de..Deserialize$u20$for$u20$f32$GT$..deserialize..PrimitiveVisitor$u20$as$u20$serde..de..Visitor$GT$9expecting17h92cff4636ba6e894E",
            "__ZN90_$LT$regex_automata..util..search..PatternSetInsertError$u20$as$u20$core..fmt..Display$GT$3fmt17hb13a74485de3cf6cE",
            "__ZN83_$LT$object..xcoff..AuxHeader32$u20$as$u20$object..read..xcoff..file..AuxHeader$GT$8o_sndata17hbde595d4caa360b0E",
            "__ZN6chrono5naive4date9NaiveDate11from_isoywd17h579620fe5461dd6bE",
            "__ZN10cel_parser6parser28__parse__ArithmeticMulDivMod25ArithmeticMulDivModParser3new17h90b71e528ee11811E",
            "__ZN4core5slice29_$LT$impl$u20$$u5b$T$u5d$$GT$11starts_with17he638fe8707e2e9c0E",
            "__ZN4core3fmt3num3imp53_$LT$impl$u20$core..fmt..LowerExp$u20$for$u20$i16$GT$3fmt17hb839dbd5bc9bfae9E",
            "__ZN10cel_parser6parser20__parse__Conditional8__action17h7462ff6e920c963eE",
            "__ZN61_$LT$std..io..stdio..StderrLock$u20$as$u20$std..io..Write$GT$14write_vectored17h16b571ce3bd054bfE",
            "__ZN5bytes9bytes_mut14shared_v_clone17he58339466e48588aE",
            "__ZN63_$LT$regex_syntax..ast..Error$u20$as$u20$core..fmt..Display$GT$3fmt17hc90e4fa6e9b4bd79E",
            "__ZN4core3num14overflow_panic3shr17he5c308126f157e5bE",
            "__ZN4core3num8int_sqrt27panic_for_negative_argument17hb06ec63bdfda9275E",
            "__ZN104_$LT$cel_eval..ast..JSONExpression$u20$as$u20$core..convert..From$LT$cel_parser..ast..Expression$GT$$GT$4from17h2cf3e897f4bb7655E",
            "__ZN118_$LT$cel_parser..parser..__parse__Primary..__StateMachine$u20$as$u20$lalrpop_util..state_machine..ParserDefinition$GT$15token_to_symbol17h3c1743d3d0635f99E",
            "__ZN105_$LT$core..slice..ascii..EscapeAscii$u20$as$u20$core..iter..traits..double_ended..DoubleEndedIterator$GT$9next_back17h6e7f8c174c90404dE",
            "__ZN59_$LT$std..io..stdio..Stdout$u20$as$u20$core..fmt..Debug$GT$3fmt17ha49ec3668facffdeE",
            "__ZN3std6thread12park_timeout17h8a3da1cd054266dbE",
            "__ZN3std3sys3pal4unix2fd8FileDesc14write_vectored17h8bff01d90ddfb957E",
            "__ZN4core3fmt3num3imp52_$LT$impl$u20$core..fmt..Display$u20$for$u20$i32$GT$3fmt17hb4578771b32e264bE",
            "__ZN4core3num7flt2dec17digits_to_dec_str17h834b46e1bc9ac8e8E",
            "__ZN14regex_automata3nfa8thompson6pikevm7Builder5build17hfda3036cdcc344ffE",
            "__ZN5gimli4read5value5Value4shra17hdebb8175ce7cfb72E",
            "__ZN72_$LT$serde..de..impls..OsStringVisitor$u20$as$u20$serde..de..Visitor$GT$9expecting17h1bcc5036b178e20bE",
            "__ZN63_$LT$regex_syntax..hir..Literal$u20$as$u20$core..fmt..Debug$GT$3fmt17h2dc62ff622eb10c3E",
            "__ZN5alloc3vec16Vec$LT$T$C$A$GT$11swap_remove13assert_failed17h4678dbbee43a348eE",
            "__ZN106_$LT$aho_corasick..util..prefilter..StartBytesTwo$u20$as$u20$aho_corasick..util..prefilter..PrefilterI$GT$7find_in17ha6b02dd281a4b5b7E",
            "__ZN98_$LT$chrono..format..strftime..StrftimeItems$u20$as$u20$core..iter..traits..iterator..Iterator$GT$4next17h0e3653cf79f92997E",
            "__ZN68_$LT$chrono..format..InternalNumeric$u20$as$u20$core..fmt..Debug$GT$3fmt17head602cf3b9ceffdE",
            "__ZN72_$LT$core..io..borrowed_buf..BorrowedBuf$u20$as$u20$core..fmt..Debug$GT$3fmt17he6cb90ed7b0d79a7E",
            "__ZN6chrono5naive4date9NaiveDate18checked_add_signed17h9e7d93f40535c896E",
            "__ZN4core9panicking13assert_failed17h2d9ba6367cdeed2fE",
            "__ZN85_$LT$regex_automata..util..wire..LE$u20$as$u20$regex_automata..util..wire..Endian$GT$10write_u12817h2c314f871341f84dE",
            "__ZN3std3net3udp9UdpSocket17join_multicast_v417h6b3c90b418fa3abcE",
            "__ZN6chrono6format4scan21short_or_long_weekday17h52bea4b3204cb9e4E",
            "__ZN4core3fmt3num3imp53_$LT$impl$u20$core..fmt..UpperExp$u20$for$u20$u64$GT$3fmt17hf1a67d31b4b61aa1E",
            "__ZN5alloc7raw_vec19RawVec$LT$T$C$A$GT$8grow_one17h2e83f9e67444a82bE",
            "__ZN90_$LT$regex_automata..nfa..thompson..range_trie..Transition$u20$as$u20$core..fmt..Debug$GT$3fmt17h50e13962c869ee95E",
            "__ZN111_$LT$std..io..buffered..bufwriter..BufWriter$LT$W$GT$..flush_buf..BufGuard$u20$as$u20$core..ops..drop..Drop$GT$4drop17hf71692181956e2c1E",
            "__ZN105_$LT$chrono..datetime..DateTime$LT$chrono..offset..utc..Utc$GT$$u20$as$u20$core..str..traits..FromStr$GT$8from_str17h7042032bf9a79397E",
            "__ZN4core3fmt8builders9DebugList21finish_non_exhaustive17h28fa7bc66222eafdE",
            "__ZN178_$LT$serde..de..impls..$LT$impl$u20$serde..de..Deserialize$u20$for$u20$core..num..nonzero..NonZero$LT$isize$GT$$GT$..deserialize..NonZeroVisitor$u20$as$u20$serde..de..Visitor$GT$9expecting17ha2b11d5cc409a60fE",
            "__ZN65_$LT$core..task..wake..LocalWaker$u20$as$u20$core..fmt..Debug$GT$3fmt17h2543d68b9bca7c16E",
            "__ZN6object4read2pe8resource57_$LT$impl$u20$object..pe..ImageResourceDirectoryEntry$GT$4data17he4590f38f89833dfE",
            "__ZN3std4path7PathBuf3pop17h1955d291d5ae69a7E",
            "__ZN3std4path7PathBuf14_set_extension17h2e8e563467cdb344E",
            "__ZN14regex_automata6hybrid3dfa6Config9prefilter17h4fcff1ad5b31ef44E",
            "__ZN69_$LT$object..read..pe..export..Export$u20$as$u20$core..fmt..Debug$GT$3fmt17hf8d45d7b80ba73f5E",
            "__ZN4core3fmt3num53_$LT$impl$u20$core..fmt..LowerHex$u20$for$u20$u16$GT$3fmt17h037c4eed6b3a8cdcE",
            "__ZN12regex_syntax3hir15ClassBytesRange3len17hb12a603507600f0cE",
            "__ZN4core5slice4sort6stable9quicksort9quicksort17hef9bdacc811b7bc4E",
            "__ZN14regex_automata6hybrid3dfa4Lazy16cache_next_state17h8ee06ef0e30be3a6E",
            "__ZN65_$LT$cel_eval..DisplayableError$u20$as$u20$core..fmt..Display$GT$3fmt17hc7ab5fc828dfa51aE",
            "__ZN95_$LT$std..process..CommandArgs$u20$as$u20$core..iter..traits..exact_size..ExactSizeIterator$GT$3len17he4b18e355b189f44E",
            "__ZN104_$LT$cel_interpreter..objects..Value$u20$as$u20$core..convert..From$LT$alloc..vec..Vec$LT$u8$GT$$GT$$GT$4from17h4fdbeae4d6829459E",
            "__ZN55_$LT$std..io..stdio..Stdin$u20$as$u20$std..io..Read$GT$14read_to_string17h9e95eee4db2ce73eE",
            "__ZN3std3net11socket_addr136_$LT$impl$u20$std..sys_common..FromInner$LT$libc..unix..bsd..apple..sockaddr_in$GT$$u20$for$u20$core..net..socket_addr..SocketAddrV4$GT$10from_inner17hbce0f6c5588b4ff1E",
            "__ZN15cel_interpreter7objects5Value19error_expected_type17h4acae6befcc7e771E",
            "__ZN14regex_automata3nfa8thompson6pikevm6PikeVM11never_match17hc235e28af8b5796aE",
            "__ZN66_$LT$std..path..StripPrefixError$u20$as$u20$core..fmt..Display$GT$3fmt17h71d8a8b7889b40a5E",
            "__ZN112_$LT$object..read..pe..import..DelayLoadDescriptorIterator$u20$as$u20$core..iter..traits..iterator..Iterator$GT$4next17hfee3816809f9bd77E",
            "__ZN57_$LT$core..fmt..Formatter$u20$as$u20$core..fmt..Write$GT$9write_str17hcbff20fd2ddd03f9E",
            "__ZN116_$LT$cel_parser..parser..__parse__Unary..__StateMachine$u20$as$u20$lalrpop_util..state_machine..ParserDefinition$GT$15expected_tokens17hf70fab72b74c921aE",
            "__ZN94_$LT$bytes..bytes_mut..BytesMut$u20$as$u20$core..cmp..PartialEq$LT$bytes..bytes..Bytes$GT$$GT$2eq17h6bd4d750d5caa3c7E",
            "__ZN117_$LT$core..net..ip_addr..Ipv4Addr$u20$as$u20$core..ops..bit..BitAndAssign$LT$$RF$core..net..ip_addr..Ipv4Addr$GT$$GT$13bitand_assign17hb4874187fb0a8ee4E",
            "__ZN179_$LT$$LT$serde_json..map..Map$LT$alloc..string..String$C$serde_json..value..Value$GT$$u20$as$u20$serde..de..Deserialize$GT$..deserialize..Visitor$u20$as$u20$serde..de..Visitor$GT$9expecting17h517a7a4f433cb144E",
            "__ZN55_$LT$std..pipe..PipeReader$u20$as$u20$std..io..Read$GT$13read_vectored17h309d3ac21b10ea1cE",
            "__ZN193_$LT$std..process..Child$u20$as$u20$std..sys_common..FromInner$LT$$LP$std..sys..pal..unix..process..process_inner..Process$C$std..sys..pal..unix..process..process_common..StdioPipes$RP$$GT$$GT$10from_inner17h0cc8b65094b70e88E",
            "__ZN80_$LT$regex_automata..hybrid..error..StartError$u20$as$u20$core..fmt..Display$GT$3fmt17hf0b0a23b090c45b7E",
            "__ZN3std2os4unix3net8datagram12UnixDatagram12connect_addr17hbbaa1cc048f433caE",
            "__ZN5bytes3fmt3hex70_$LT$impl$u20$core..fmt..LowerHex$u20$for$u20$bytes..fmt..BytesRef$GT$3fmt17h73b620b1843af069E",
            "__ZN99_$LT$chrono..naive..date..NaiveDate$u20$as$u20$core..ops..arith..Add$LT$chrono..naive..Days$GT$$GT$3add17h053de4e54254b33aE",
            "__ZN69_$LT$alloc..ffi..c_str..CString$u20$as$u20$core..default..Default$GT$7default17hdc8d6e07b2cbd3c0E",
            "__ZN6object4read2pe14data_directory15DataDirectories5parse17h79a10a44055599f3E",
            "__ZN3std9backtrace9Backtrace13force_capture17hc81169932fccf20bE",
            "__ZN95_$LT$std..panicking..begin_panic_handler..FormatStringPayload$u20$as$u20$core..fmt..Display$GT$3fmt17hb5961af2d884f333E",
            "__ZN14regex_automata3dfa7onepass3DFA20try_search_slots_imp17h6e3aab87537aa262E",
            "__ZN5bytes5bytes104_$LT$impl$u20$core..cmp..PartialOrd$LT$bytes..bytes..Bytes$GT$$u20$for$u20$alloc..vec..Vec$LT$u8$GT$$GT$11partial_cmp17habbea40e81a6e462E",
            "__ZN88_$LT$alloc..borrow..Cow$LT$$u5b$u8$u5d$$GT$$u20$as$u20$regex..regex..bytes..Replacer$GT$14replace_append17h7d19432fe8a8b4b6E",
            "__ZN4core3fmt3num3imp53_$LT$impl$u20$core..fmt..UpperExp$u20$for$u20$u32$GT$3fmt17h3c16e9098fdd8349E",
            "__ZN5regex8builders6string12RegexBuilder10size_limit17h88465d001ddeb817E",
            "__ZN75_$LT$regex_automata..util..alphabet..BitSet$u20$as$u20$core..fmt..Debug$GT$3fmt17ha9fc08c029aae76fE",
            "__ZN79_$LT$std..os..unix..net..listener..UnixListener$u20$as$u20$core..fmt..Debug$GT$3fmt17h710bf78ae745dc92E",
            "__ZN4core3fmt3num3imp53_$LT$impl$u20$core..fmt..UpperExp$u20$for$u20$u16$GT$3fmt17h4c5e7212b7f65721E",
            "__ZN78_$LT$object..macho..FatArch32$u20$as$u20$object..read..macho..fat..FatArch$GT$4size17hd4c04f7b5468c0ddE",
            "__ZN6object4read2pe8resource12ResourceName4data17h50058511a7c60fc8E",
            "__ZN3std4time10SystemTime11checked_sub17hfa967601f1ba1308E",
            "__ZN12regex_syntax3hir10ClassBytes20symmetric_difference17hb020da255ca93c57E",
            "__ZN99_$LT$aho_corasick..util..prefilter..Memmem$u20$as$u20$aho_corasick..util..prefilter..PrefilterI$GT$7find_in17h190cb326397827b8E",
            "__ZN54_$LT$core..any..TypeId$u20$as$u20$core..fmt..Debug$GT$3fmt17ha2249b6d4bfdbb74E",
            "__ZN79_$LT$object..xcoff..Symbol32$u20$as$u20$object..read..xcoff..symbol..Symbol$GT$7n_scnum17h80474906b4dc2928E",
            "__ZN57_$LT$std..env..VarError$u20$as$u20$core..fmt..Display$GT$3fmt17hd5bbf6378fe30140E",
            "__ZN3std2os4unix3net6stream10UnixStream4pair17h144fd78b0dc6d074E",
            "__ZN81_$LT$$u5b$u8$u3b$$u20$27$u5d$$u20$as$u20$nom..traits..FindToken$LT$$RF$u8$GT$$GT$10find_token17h40ce91350860e351E",
            "__ZN14regex_automata6hybrid3dfa6Config4quit17h1581711fb636788aE",
            "__ZN84_$LT$cel_eval..UniFFICallbackHandlerHostContext$u20$as$u20$cel_eval..HostContext$GT$15device_property17h5dfd069a2bd18e36E",
            "__ZN3std5panic19set_backtrace_style17h3e5e1859ada09c54E",
            "__ZN6chrono6format4scan20short_or_long_month017h998e9d0a2fc30e1cE",
            "__ZN5alloc7raw_vec19RawVec$LT$T$C$A$GT$8grow_one17ha4a65508291f53d6E",
            "__ZN68_$LT$core..sync..atomic..AtomicIsize$u20$as$u20$core..fmt..Debug$GT$3fmt17h2c54f4995a6afe51E",
            "__ZN69_$LT$chrono..naive..date..NaiveDate$u20$as$u20$core..fmt..Display$GT$3fmt17haa0f5cf2f55bfc9aE",
            "__ZN167_$LT$cel_eval..ast.._..$LT$impl$u20$serde..de..Deserialize$u20$for$u20$cel_eval..ast..ASTExecutionContext$GT$..deserialize..__Visitor$u20$as$u20$serde..de..Visitor$GT$9expecting17h7881c201e0479149E",
            "__ZN59_$LT$$RF$std..pipe..PipeReader$u20$as$u20$std..io..Read$GT$4read17h0178704a4fd1659cE",
            "__ZN5alloc11collections5btree4node180Handle$LT$alloc..collections..btree..node..NodeRef$LT$BorrowType$C$K$C$V$C$alloc..collections..btree..node..marker..Internal$GT$$C$alloc..collections..btree..node..marker..Edge$GT$7descend17h9274cb9e39893fb9E",
            "__ZN105_$LT$dyn$u20$core..any..Any$u2b$core..marker..Send$u2b$core..marker..Sync$u20$as$u20$core..fmt..Debug$GT$3fmt17hfbee7b2e817c11a2E",
            "__ZN4core5slice4sort6stable9quicksort9quicksort17h42538574bebafcfbE",
            "__ZN5bytes5bytes22promotable_even_to_vec17h9a78be023a577ba9E",
            "__ZN3std2os4unix3net8datagram12UnixDatagram7unbound17h74067844b003844aE",
            "__ZN5alloc7raw_vec19RawVec$LT$T$C$A$GT$8grow_one17h0185183b009e17e1E",
            "__ZN78_$LT$alloc..string..String$u20$as$u20$std..net..socket_addr..ToSocketAddrs$GT$15to_socket_addrs17h72f328ed6ccf34b1E",
            "__ZN64_$LT$std..panic..PanicHookInfo$u20$as$u20$core..fmt..Display$GT$3fmt17ha5d2fa783d0bbf91E",
            "__ZN14regex_automata3nfa8thompson9backtrack8div_ceil17h893414033e0fdbaaE",
            "__ZN77_$LT$std..sys_common..wtf8..Wtf8Buf$u20$as$u20$core..ops..deref..DerefMut$GT$9deref_mut17hb5520dad58ad10cfE",
            "__ZN229_$LT$$LT$cel_eval..ast.._..$LT$impl$u20$serde..de..Deserialize$u20$for$u20$cel_eval..ast..JSONExpression$GT$..deserialize..__Seed$u20$as$u20$serde..de..DeserializeSeed$GT$..deserialize..__Visitor$u20$as$u20$serde..de..Visitor$GT$9expecting17hdbdd357a384020d7E",
            "__ZN71_$LT$core..alloc..layout..LayoutError$u20$as$u20$core..fmt..Display$GT$3fmt17h8d538ddddc6f89fdE",
            "__ZN3std2io5stdio6_print17hee51d17ed00e93d3E",
            "__ZN5alloc4sync16Arc$LT$T$C$A$GT$9drop_slow17h8c5dd05292d6f627E",
            "__ZN10serde_json2de12ParserNumber12invalid_type17h68ba956b25415b29E",
            "__ZN5alloc7raw_vec19RawVec$LT$T$C$A$GT$8grow_one17h9dcf29bf7354e46bE",
            "__ZN6memchr6memmem8searcher18searcher_kind_neon17hbcd87a7874a3bba7E",
            "__ZN55_$LT$str$u20$as$u20$serde_json..value..index..Index$GT$15index_or_insert17h66f5c5b9d00a6029E",
            "__ZN3std3net3tcp11TcpListener9try_clone17h345020c65899d0d9E",
            "__ZN5alloc4sync16Arc$LT$T$C$A$GT$9drop_slow17h2e9303d80e45ec1bE",
            "__ZN4core3fmt3num55_$LT$impl$u20$core..fmt..LowerHex$u20$for$u20$usize$GT$3fmt17hdc0b165df3ba0c7eE",
            "__ZN131_$LT$regex_automata..meta..error..RetryFailError$u20$as$u20$core..convert..From$LT$regex_automata..util..search..MatchError$GT$$GT$4from17h24dcbda4dc91eaf8E",
            "__ZN115_$LT$regex_automata..util..alphabet..ByteClassRepresentatives$u20$as$u20$core..iter..traits..iterator..Iterator$GT$4next17hdcf379aea5e193c1E",
            "__ZN5alloc7raw_vec19RawVec$LT$T$C$A$GT$8grow_one17h83f18b24cc326420E",
            "__ZN5alloc11collections5btree4node180Handle$LT$alloc..collections..btree..node..NodeRef$LT$BorrowType$C$K$C$V$C$alloc..collections..btree..node..marker..Internal$GT$$C$alloc..collections..btree..node..marker..Edge$GT$7descend17hdb433f5d79f3c4aeE",
            "__ZN11uniffi_core3ffi10rustbuffer22uniffi_rustbuffer_free17hdd2047802c905aa6E",
            "__ZN92_$LT$std..sys..pal..unix..process..process_inner..ExitStatus$u20$as$u20$core..fmt..Debug$GT$3fmt17h458f4f25d3e1bdbeE",
            "__ZN5alloc7raw_vec19RawVec$LT$T$C$A$GT$8grow_one17h1f9a39d30a69efcdE",
            "__ZN5alloc5boxed16Box$LT$T$C$A$GT$13new_uninit_in17hf7b1bb04bc7112f1E",
            "__ZN6object4read2pe6export11ExportTable17name_from_pointer17hff91f5d810fb5d70E",
            "__ZN4core3fmt3num3imp51_$LT$impl$u20$core..fmt..Display$u20$for$u20$i8$GT$3fmt17he2dc5be89d1aaf1fE",
            "__ZN5alloc4sync32arcinner_layout_for_value_layout17hb24b447b5aa043d0E",
            "__ZN4core3num14overflow_panic3shl17h16e42a6c8bc22fdeE",
            "__ZN60_$LT$std..io..stdio..StdoutRaw$u20$as$u20$std..io..Write$GT$9write_all17h77dac2cb0a081961E",
            "__ZN4core3fmt3num49_$LT$impl$u20$core..fmt..Octal$u20$for$u20$i8$GT$3fmt17h7cc4d161735cf461E",
            "__ZN70_$LT$serde_json..read..SliceRead$u20$as$u20$serde_json..read..Read$GT$9parse_str17h3d806539896a9536E",
            "__ZN6chrono5naive4time9NaiveTime21signed_duration_since17h71ee99160f74acfbE",
            "__ZN84_$LT$std..env..Args$u20$as$u20$core..iter..traits..exact_size..ExactSizeIterator$GT$3len17h5cd1b5b79e957c79E",
            "__ZN74_$LT$chrono..time_delta..OutOfRangeError$u20$as$u20$core..fmt..Display$GT$3fmt17hd161252df35e1d07E",
            "__ZN14regex_automata3nfa8thompson9backtrack18BoundedBacktracker12new_from_nfa17h21e037e3efe7b606E",
            "__ZN130_$LT$cel_parser..parser..__parse__ArithmeticMulDivMod..__StateMachine$u20$as$u20$lalrpop_util..state_machine..ParserDefinition$GT$15simulate_reduce17h0f173c5b9f38880fE",
            "__ZN5alloc7raw_vec19RawVec$LT$T$C$A$GT$8grow_one17hf8374ff9bd0a15bdE",
            "__ZN64_$LT$regex..regex..string..Match$u20$as$u20$core..fmt..Debug$GT$3fmt17h0ba61a110beae428E",
            "__ZN103_$LT$alloc..sync..Arc$LT$alloc..vec..Vec$LT$u8$GT$$GT$$u20$as$u20$cel_interpreter..magic..FromValue$GT$10from_value17h10057bcc6360691aE",
            "__ZN14regex_automata6hybrid6search20find_overlapping_rev17he8919725f2030181E",
            "__ZN5alloc5boxed7convert130_$LT$impl$u20$core..convert..From$LT$alloc..string..String$GT$$u20$for$u20$alloc..boxed..Box$LT$dyn$u20$core..error..Error$GT$$GT$4from17h2f9cf5432d49b1bdE",
            "__ZN12regex_syntax3hir12ClassUnicode13to_byte_class17haef69b005eebe19fE",
            "__ZN3std3sys4sync4once5queue4Once4call17hf6d5f16d03a1ccebE",
            "__ZN229_$LT$$LT$cel_eval..ast.._..$LT$impl$u20$serde..de..Deserialize$u20$for$u20$cel_eval..ast..JSONExpression$GT$..deserialize..__Seed$u20$as$u20$serde..de..DeserializeSeed$GT$..deserialize..__Visitor$u20$as$u20$serde..de..Visitor$GT$9expecting17h81bf8035389ad5e7E",
            "__ZN5alloc7raw_vec19RawVec$LT$T$C$A$GT$8grow_one17hae0e664736e234f7E",
            "__ZN4core3fmt9Formatter25debug_tuple_field4_finish17h76b60cdd62296038E",
            "__ZN90_$LT$cel_interpreter..magic..Identifier$u20$as$u20$cel_interpreter..magic..FromContext$GT$12from_context17h7d1cb43ece4b30dcE",
            "__ZN84_$LT$core..num..nonzero..NonZero$LT$u8$GT$$u20$as$u20$core..str..traits..FromStr$GT$8from_str17h1f8964c50c435402E",
            "__ZN6object4read2pe6import11ImportTable4name17ha4880725ccf7d504E",
            "__ZN60_$LT$std..fs..File$u20$as$u20$std..os..unix..fs..FileExt$GT$17write_vectored_at17h20b63fca861080f0E",
            "__ZN112_$LT$regex_automata..util..captures..GroupInfoPatternNames$u20$as$u20$core..iter..traits..iterator..Iterator$GT$9size_hint17h1ea02348c3ab36c4E",
            "__ZN12aho_corasick9automaton12try_find_fwd17h6aec0163dc27de67E",
            "__ZN5alloc7raw_vec19RawVec$LT$T$C$A$GT$8grow_one17h569acc54365f614fE",
            "__ZN105_$LT$aho_corasick..util..prefilter..RareBytesTwo$u20$as$u20$aho_corasick..util..prefilter..PrefilterI$GT$7find_in17hcbbd3bcfb0c32a8dE",
            "__ZN5bytes9bytes_mut8BytesMut8split_to17h0eb78c5daa9deb45E",
            "__ZN58_$LT$std..net..tcp..TcpStream$u20$as$u20$std..io..Read$GT$4read17hd018b6ada0701bf6E",
            "__ZN14regex_automata4meta8wrappers6PikeVM12create_cache17h107c32777f7ea88dE",
            "__ZN3log6logger17hb2b064065976dab3E",
            "__ZN94_$LT$std..time..Instant$u20$as$u20$core..ops..arith..SubAssign$LT$core..time..Duration$GT$$GT$10sub_assign17h8843472bcd41dd15E",
            "__ZN10cel_parser6parser20__parse__Conditional17ConditionalParser3new17h2320809b84a58d69E",
            "__ZN3std2fs81_$LT$impl$u20$std..io..Read$u20$for$u20$alloc..sync..Arc$LT$std..fs..File$GT$$GT$13read_vectored17h831dc807b02c991eE",
            "__ZN3std3env8temp_dir17hd60a667000184f31E",
            "__ZN83_$LT$object..xcoff..AuxHeader32$u20$as$u20$object..read..xcoff..file..AuxHeader$GT$7o_mflag17hf389354bcf048e3aE",
            "__ZN12aho_corasick11ahocorasick11AhoCorasick15max_pattern_len17h0a67d6338e539ff9E",
            "__ZN4core10intrinsics3mir12CastPtrToPtr19panic_cold_explicit17hb89f0b713ff50c22E",
            "__ZN5alloc3fmt6format12format_inner17hac87183fc1abae13E",
            "__ZN5alloc7raw_vec19RawVec$LT$T$C$A$GT$8grow_one17hd9ed3a7276d02548E",
            "__ZN3std3sys14anonymous_pipe4unix79_$LT$impl$u20$std..os..fd..raw..FromRawFd$u20$for$u20$std..pipe..PipeReader$GT$11from_raw_fd17h72a5d1e7620d66f7E",
            "__ZN14regex_automata3nfa8thompson7builder7Builder17add_union_reverse17h42a2dcabf33c4bd8E",
            "__ZN68_$LT$regex_syntax..utf8..ScalarRange$u20$as$u20$core..fmt..Debug$GT$3fmt17h9dcd550532fda237E",
            "__ZN4core3fmt3num3imp53_$LT$impl$u20$core..fmt..LowerExp$u20$for$u20$i64$GT$3fmt17hd08224227763ce6bE",
            "__ZN3std3sys3pal4unix2fd8FileDesc5write17ha3b6ce3a93eee9b1E",
            "__ZN72_$LT$regex_syntax..hir..literal..Literal$u20$as$u20$core..fmt..Debug$GT$3fmt17h60bc0cf52be90c06E",
            "__ZN5alloc11collections5btree4node25InternalNode$LT$K$C$V$GT$3new17hc1527170ea896c24E",
            "__ZN86_$LT$core..char..CaseMappingIter$u20$as$u20$core..iter..traits..iterator..Iterator$GT$5count17hc3a6aeb882c88aefE",
            "__ZN73_$LT$aho_corasick..nfa..contiguous..State$u20$as$u20$core..fmt..Debug$GT$3fmt17hf359c445ab4da450E",
            "__ZN5bytes3buf9vec_deque105_$LT$impl$u20$bytes..buf..buf_impl..Buf$u20$for$u20$alloc..collections..vec_deque..VecDeque$LT$u8$GT$$GT$7advance17h268b8495edbd24edE",
            "__ZN186_$LT$serde..de..impls..$LT$impl$u20$serde..de..Deserialize$u20$for$u20$core..num..saturating..Saturating$LT$i128$GT$$GT$..deserialize..SaturatingVisitor$u20$as$u20$serde..de..Visitor$GT$9expecting17h490e7708624be850E",
            "__ZN59_$LT$std..process..ChildStdin$u20$as$u20$std..io..Write$GT$14write_vectored17h5282bc7a29428822E",
            "__ZN5alloc11collections5btree4node171Handle$LT$alloc..collections..btree..node..NodeRef$LT$alloc..collections..btree..node..marker..Mut$C$K$C$V$C$NodeType$GT$$C$alloc..collections..btree..node..marker..KV$GT$15split_leaf_data17h6aee911d9ce0b039E",
            "__ZN5alloc3ffi5c_str75_$LT$impl$u20$alloc..borrow..ToOwned$u20$for$u20$core..ffi..c_str..CStr$GT$8to_owned17ha89c6779d3586d0cE",
            "__ZN3std3sys3pal4unix4sync5mutex5Mutex6unlock17hbedfc1db37a72ef6E",
            "__ZN91_$LT$std..sys_common..net..LookupHost$u20$as$u20$core..iter..traits..iterator..Iterator$GT$4next17h3be6989c915a1febE",
            "__ZN112_$LT$$LT$std..path..Components$u20$as$u20$core..fmt..Debug$GT$..fmt..DebugHelper$u20$as$u20$core..fmt..Debug$GT$3fmt17h3f546ad8087acba8E",
            "__ZN64_$LT$core..num..bignum..Big32x40$u20$as$u20$core..fmt..Debug$GT$3fmt17h86dfc8c39d93af3cE",
            "__ZN10serde_json5value3ser20key_must_be_a_string17h8266c05dbea106fdE",
            "__ZN12aho_corasick3nfa13noncontiguous8Compiler35close_start_state_loop_for_leftmost17h597eb75f7c04c8f2E",
            "__ZN3std2os2fd5owned10BorrowedFd18try_clone_to_owned17h0a54225b9e6b590eE",
            "__ZN3std3sys3pal4unix2fs4File8read_buf17h8547657a419b7784E",
            "__ZN14regex_automata3nfa8thompson6pikevm7Builder3new17hfec7238113eec604E",
            "__ZN3std3sys3pal4unix2fs5chown17h098f5520c331ab4eE",
            "__ZN4core9panicking11panic_const29panic_const_gen_fn_none_panic17haad7d4a8a164cf58E",
            "__ZN3std2fs4File8sync_all17hee8e67ca3940587fE",
            "__ZN10serde_json5value10partial_eq90_$LT$impl$u20$core..cmp..PartialEq$LT$serde_json..value..Value$GT$$u20$for$u20$$RF$str$GT$2eq17h7fe044bcb6571a01E",
            "__ZN165_$LT$serde_json..value..de..$LT$impl$u20$serde..de..Deserialize$u20$for$u20$serde_json..value..Value$GT$..deserialize..ValueVisitor$u20$as$u20$serde..de..Visitor$GT$9expecting17h4e12235b2bbfa719E",
            "__ZN15cel_interpreter9functions11starts_with17h0cefeb089c4cf846E",
            "__ZN76_$LT$regex..regexset..string..RegexSet$u20$as$u20$core..default..Default$GT$7default17h617242bbaed5f97bE",
            "__ZN58_$LT$std..path..Components$u20$as$u20$core..fmt..Debug$GT$3fmt17hb2017f0f890ba9f7E",
            "__ZN14regex_automata6hybrid3dfa3DFA7builder17h46ce014d9cd6613cE",
            "__ZN74_$LT$core..num..bignum..tests..Big8x3$u20$as$u20$core..cmp..PartialOrd$GT$11partial_cmp17h275736d24bcf2bfaE",
            "__ZN59_$LT$f64$u20$as$u20$core..num..dec2flt..float..RawFloat$GT$15pow10_fast_path17h28b6158585668a13E",
            "__ZN72_$LT$regex_automata..util..look..LookSet$u20$as$u20$core..fmt..Debug$GT$3fmt17hd4b3833ddd860389E",
            "__ZN63_$LT$log..LevelFilter$u20$as$u20$core..str..traits..FromStr$GT$8from_str17heddde5cc7950ffe2E",
            "__ZN82_$LT$std..net..tcp..Incoming$u20$as$u20$core..iter..traits..iterator..Iterator$GT$4next17h746b2b66b1aac57aE",
            "__ZN63_$LT$core..net..ip_addr..IpAddr$u20$as$u20$core..fmt..Debug$GT$3fmt17h3c350f7319e15e1eE",
            "__ZN143_$LT$$LT$serde..de..impls..range_from..Field$u20$as$u20$serde..de..Deserialize$GT$..deserialize..FieldVisitor$u20$as$u20$serde..de..Visitor$GT$9expecting17h00272819b3c91b90E",
            "__ZN4core9panicking11panic_const34panic_const_async_fn_resumed_panic17hc2ea2b11060b8907E",
            "__ZN47_$LT$str$u20$as$u20$nom..traits..HexDisplay$GT$6to_hex17h445fb9f0e3006a0fE",
            "__ZN12regex_syntax3hir5Class6negate17h5a4e50065010ae7cE",
            "__ZN3std6thread5sleep17h3a48eb25d9d64680E",
            "__ZN118_$LT$regex_automata..util..search..PatternSetIter$u20$as$u20$core..iter..traits..double_ended..DoubleEndedIterator$GT$9next_back17hf90c62a706c06747E",
            "__ZN127_$LT$dyn$u20$cel_eval..HostContext$u20$as$u20$uniffi_core..ffi_converter_traits..FfiConverterArc$LT$cel_eval..UniFfiTag$GT$$GT$5write17hecabb05e44f209bfE",
            "__ZN3std2os4unix3net6stream10UnixStream13write_timeout17h5f32375f285bd549E",
            "__ZN3std3sys3pal4unix2fs4stat17h8bd1ea0d9c114d3eE",
            "__ZN62_$LT$core..cell..BorrowError$u20$as$u20$core..fmt..Display$GT$3fmt17h412d31eb1e09ab83E",
            "__ZN176_$LT$serde..de..impls..$LT$impl$u20$serde..de..Deserialize$u20$for$u20$core..num..nonzero..NonZero$LT$i64$GT$$GT$..deserialize..NonZeroVisitor$u20$as$u20$serde..de..Visitor$GT$9expecting17hcef81f4cfa41ece0E",
            "__ZN5alloc7raw_vec19RawVec$LT$T$C$A$GT$8grow_one17hf4003a8eff2636c4E",
            "__ZN3std4time7Instant25saturating_duration_since17he7b7fcfefa8aaef2E",
            "__ZN62_$LT$std..io..stdio..StdinLock$u20$as$u20$std..io..BufRead$GT$10read_until17hf7bc1dde312c9f02E",
            "__ZN74_$LT$alloc..collections..TryReserveError$u20$as$u20$core..fmt..Display$GT$3fmt17heeab278d12c9bd68E",
            "__ZN87_$LT$chrono..naive..datetime..NaiveDateTime$u20$as$u20$chrono..round..DurationRound$GT$17duration_round_up17hc80ded24368c4c31E",
            "__ZN5alloc3vec16Vec$LT$T$C$A$GT$6remove13assert_failed17hec3663fa1477e731E",
            "__ZN5regex5regex5bytes5Regex3new17h08192618b65c6393E",
            "__ZN14regex_automata4meta8wrappers23BoundedBacktrackerCache5reset17h7af67edce7bd8607E",
            "__ZN68_$LT$std..sys..pal..unix..args..Args$u20$as$u20$core..fmt..Debug$GT$3fmt17h12a538ac15ccbb89E",
            "__ZN4core7unicode12unicode_data11conversions8to_upper17h97af01ba4b82656cE",
            "__ZN62_$LT$object..read..util..Bytes$u20$as$u20$core..fmt..Debug$GT$3fmt17h7806d406e2ca7ba5E",
            "__ZN67_$LT$serde_json..error..ErrorCode$u20$as$u20$core..fmt..Display$GT$3fmt17hf465bd55fb2ffac8E",
            "__ZN14regex_automata4util5empty15skip_splits_fwd17hcd24dd76642bd2f7E",
            "__ZN12regex_syntax3ast3Ast11alternation17hee0ca2d6d52fd55aE",
            "__ZN71_$LT$$RF$$u5b$u8$u5d$$u20$as$u20$nom..traits..FindToken$LT$char$GT$$GT$10find_token17h0c3cf9d3b36ffb4aE",
            "__ZN5alloc7raw_vec19RawVec$LT$T$C$A$GT$8grow_one17haeb67a742d6158c9E",
            "__ZN94_$LT$regex_syntax..hir..ClassUnicodeRange$u20$as$u20$regex_syntax..hir..interval..Interval$GT$16case_fold_simple17hf78c19e8c7b9ef88E",
            "__ZN4core3fmt5float53_$LT$impl$u20$core..fmt..LowerExp$u20$for$u20$f64$GT$3fmt17h0cc6e4978ff9832bE",
            "__ZN10serde_json2de21Deserializer$LT$R$GT$18parse_long_integer17haa640c5e779e5e99E",
            "__ZN3std2os4unix3net8datagram12UnixDatagram13write_timeout17hd7284f3567082381E",
            "__ZN14regex_automata3nfa8thompson6pikevm7Builder8thompson17he474623c9f833173E",
            "__ZN3std3sys3pal4unix2fs6lchown17h82216d3cf6e39839E",
            "__ZN12regex_syntax3hir10Properties7literal17h1cd126fb18a61e60E",
            "__ZN3std4path7PathBuf14_set_file_name17hced0ef8fa0de5a96E",
            "__ZN80_$LT$$u5b$u8$u3b$$u20$0$u5d$$u20$as$u20$nom..traits..FindToken$LT$$RF$u8$GT$$GT$10find_token17h6cfe54ba7b64f979E",
            "__ZN59_$LT$std..io..stdio..StdinLock$u20$as$u20$std..io..Read$GT$11read_to_end17hf6a9cf0e9217ebacE",
            "__ZN4core3num7dec2flt7decimal7Decimal5round17h18345d07dad2761aE",
            "__ZN5alloc7raw_vec19RawVec$LT$T$C$A$GT$8grow_one17h648e1416e97f0779E",
            "__ZN4core3fmt8builders10DebugTuple6finish17hc94fa3106e6950abE",
            "__ZN70_$LT$aho_corasick..util..search..Input$u20$as$u20$core..fmt..Debug$GT$3fmt17he8f7dd66d3ffe273E",
            "__ZN3std3ffi6os_str5OsStr14into_os_string17h48f53ac9f5185100E",
            "__ZN12regex_syntax3hir10Properties7capture17h9031dec367ca853bE",
            "__ZN61_$LT$$RF$std..io..stdio..Stdout$u20$as$u20$std..io..Write$GT$14write_vectored17h338e109a5a34253bE",
            "__ZN4core10intrinsics3mir5Retag19panic_cold_explicit17hc78400cfb6dd9a94E",
            "__ZN4core10intrinsics3mir4Drop19panic_cold_explicit17hb5d58e8ac070c169E",
            "__ZN185_$LT$serde..de..impls..$LT$impl$u20$serde..de..Deserialize$u20$for$u20$core..num..saturating..Saturating$LT$u64$GT$$GT$..deserialize..SaturatingVisitor$u20$as$u20$serde..de..Visitor$GT$9expecting17hb3eb181c9a372aa7E",
            "__ZN3std2os4unix3net8listener12UnixListener10take_error17h8719fcdca684cf0bE",
            "__ZN5bytes5bytes13static_to_vec17h8f2354809e002124E",
            "__ZN6chrono6format8strftime13StrftimeItems5parse17h84d810ff06c187bdE",
            "__ZN5alloc4sync16Arc$LT$T$C$A$GT$9drop_slow17h0be6864f07057761E",
            "__ZN4core5slice4sort6stable14driftsort_main17h20fe248807dd4eefE",
            "__ZN86_$LT$uniffi_core..ffi..rustcalls..RustCallStatus$u20$as$u20$core..default..Default$GT$7default17hed9d6902675a4942E",
            "__ZN94_$LT$object..xcoff..SectionHeader64$u20$as$u20$object..read..xcoff..section..SectionHeader$GT$7s_paddr17hb181207c2044c1feE",
            "__ZN5alloc7raw_vec19RawVec$LT$T$C$A$GT$8grow_one17hc34500e5e7e3d6aaE",
            "__ZN3std2io5error5Error3new17h00e19341183d5e26E",
            "__ZN3std2fs4File8metadata17hd55e0624fce4dbf8E",
            "__ZN78_$LT$core..ffi..c_str..FromBytesWithNulError$u20$as$u20$core..fmt..Display$GT$3fmt17h60c855f6091dca97E",
            "__ZN3std3net3udp9UdpSocket17join_multicast_v617h79a18781c66e2cd5E",
            "__ZN97_$LT$alloc..string..String$u20$as$u20$core..convert..From$LT$alloc..boxed..Box$LT$str$GT$$GT$$GT$4from17h87c6833a376e7af9E",
            "__ZN65_$LT$core..str..lossy..Utf8Chunks$u20$as$u20$core..fmt..Debug$GT$3fmt17ha1b1338a13f147c4E",
            "__ZN3std2fs4File15try_lock_shared17h4d5243289e61f5bdE",
            "__ZN56_$LT$$u5b$u8$u5d$$u20$as$u20$nom..traits..HexDisplay$GT$11to_hex_from17h2c4ae0407c7a3f15E",
            "__ZN5alloc7raw_vec19RawVec$LT$T$C$A$GT$8grow_one17h82fdd6610a755da7E",
            "__ZN3std2os4unix3net8datagram12UnixDatagram9peek_from17h01e48c9a0ef44b6fE",
            "__ZN5alloc7raw_vec19RawVec$LT$T$C$A$GT$8grow_one17h347a450de2d8c40eE",
            "__ZN65_$LT$bytes..bytes..Bytes$u20$as$u20$bytes..buf..buf_impl..Buf$GT$13copy_to_bytes17h0ea4e22d4e8cb5b9E",
            "__ZN72_$LT$regex_automata..util..search..Input$u20$as$u20$core..fmt..Debug$GT$3fmt17h05bafde1402a6620E",
            "__ZN3std2fs82_$LT$impl$u20$std..io..Write$u20$for$u20$alloc..sync..Arc$LT$std..fs..File$GT$$GT$14write_vectored17he9261df08102ad15E",
            "__ZN57_$LT$f64$u20$as$u20$cel_interpreter..magic..FromValue$GT$10from_value17hf2a7fcc378944624E",
            "__ZN10cel_parser6parser19__parse__Expression8__action17h11a4037a62c65723E",
            "__ZN79_$LT$futures_lite..future..YieldNow$u20$as$u20$core..future..future..Future$GT$4poll17hd20f78be06551581E",
            "__ZN74_$LT$cel_interpreter..objects..ValueType$u20$as$u20$core..fmt..Display$GT$3fmt17h43e09106f3a7a9e7E",
            "__ZN57_$LT$std..io..stdio..Stdout$u20$as$u20$std..io..Write$GT$18write_all_vectored17ha76e730b00fa0cbcE",
            "__ZN5alloc4sync16Arc$LT$T$C$A$GT$9drop_slow17ha79d99b88a12364cE",
            "__ZN93_$LT$regex_automata..nfa..thompson..literal_trie..LiteralTrie$u20$as$u20$core..fmt..Debug$GT$3fmt17hfb2c49b24a60aaf4E",
            "__ZN92_$LT$$RF$alloc..borrow..Cow$LT$$u5b$u8$u5d$$GT$$u20$as$u20$regex..regex..bytes..Replacer$GT$12no_expansion17h600922e771cc3772E",
            "__ZN14regex_automata6hybrid5regex7Builder8thompson17ha2a6c87940a010fbE",
            "__ZN62_$LT$gimli..constants..DwOrd$u20$as$u20$core..fmt..Display$GT$3fmt17hc9647bcfa35e61faE",
            "__ZN72_$LT$gimli..read..abbrev..Attributes$u20$as$u20$core..cmp..PartialEq$GT$2eq17h023116971e9295c3E",
            "__ZN3std6thread21available_parallelism17h43d1389a37cf5c48E",
            "__ZN97_$LT$regex_syntax..hir..translate..TranslatorI$u20$as$u20$regex_syntax..ast..visitor..Visitor$GT$6finish17h912d019b3177a189E",
            "__ZN14regex_automata3nfa8thompson8compiler8Compiler13start_pattern17h6d178fdf5a69660bE",
            "__ZN6chrono6offset5fixed11FixedOffset4east17h0226dd818c7386c0E",
            "__ZN3std3net11socket_addr130_$LT$impl$u20$std..sys_common..FromInner$LT$libc..unix..bsd..sockaddr_in6$GT$$u20$for$u20$core..net..socket_addr..SocketAddrV6$GT$10from_inner17h6b18772c15703bc8E",
            "__ZN5alloc4sync16Arc$LT$T$C$A$GT$9drop_slow17h07a6d52638980985E",
            "__ZN5bytes5bytes81_$LT$impl$u20$core..cmp..PartialEq$LT$bytes..bytes..Bytes$GT$$u20$for$u20$str$GT$2eq17h3415798a52216ba9E",
            "__ZN70_$LT$std..sys_common..net..TcpListener$u20$as$u20$core..fmt..Debug$GT$3fmt17h3c10dfe5b908f474E",
            "__ZN82_$LT$std..sys..sync..once..queue..WaiterQueue$u20$as$u20$core..ops..drop..Drop$GT$4drop17h54ac001e63ff85daE",
            "__ZN85_$LT$object..xcoff..FileHeader64$u20$as$u20$object..read..xcoff..file..FileHeader$GT$8f_opthdr17h99def67853b3de97E",
            "__ZN3std4path4Path11to_path_buf17h595d64684fcb2668E",
            "__ZN138_$LT$$LT$serde..de..impls..range..Field$u20$as$u20$serde..de..Deserialize$GT$..deserialize..FieldVisitor$u20$as$u20$serde..de..Visitor$GT$9expecting17h1eb27870a23307c9E",
            "__ZN3std10sys_common3net9UdpSocket7connect17hbd0cce3e535bfc0eE",
            "__ZN3std9panicking3try7cleanup17hf3f50baee6f56ec7E",
            "__ZN58_$LT$std..time..SystemTime$u20$as$u20$core..fmt..Debug$GT$3fmt17hdbeb71d229392e14E",
            "__ZN14regex_automata3nfa8thompson7builder7Builder15add_capture_end17hcf5525d519704d24E",
            "__ZN77_$LT$$u5b$u8$u3b$$u20$26$u5d$$u20$as$u20$nom..traits..FindToken$LT$u8$GT$$GT$10find_token17hd80495615837bac3E",
            "__ZN4core3num6bignum5tests6Big8x313div_rem_small17h6d109f7062e8877dE",
            "__ZN12aho_corasick9automaton24try_find_overlapping_fwd17h6aa8cde40137b214E",
            "__ZN47_$LT$std..fs..File$u20$as$u20$std..io..Read$GT$8read_buf17h08ff53f4888eaf17E",
            "__ZN4core3net6parser52_$LT$impl$u20$core..net..socket_addr..SocketAddr$GT$11parse_ascii17h2979cd2e98e3b7a5E",
            "__ZN4core3net6parser46_$LT$impl$u20$core..net..ip_addr..Ipv6Addr$GT$11parse_ascii17h806810b31959c505E",
            "__ZN6memchr4arch3all6twoway6Suffix7forward17h40639e28683e9d6cE",
            "__ZN177_$LT$serde..de..impls..$LT$impl$u20$serde..de..Deserialize$u20$for$u20$core..num..nonzero..NonZero$LT$u128$GT$$GT$..deserialize..NonZeroVisitor$u20$as$u20$serde..de..Visitor$GT$9expecting17h97c3eb02a6429cabE",
            "__ZN75_$LT$cel_interpreter..ser..Serializer$u20$as$u20$serde..ser..Serializer$GT$15serialize_tuple17h4b19e44ac46c29a4E",
            "__ZN134_$LT$alloc..sync..Arc$LT$alloc..vec..Vec$LT$cel_interpreter..objects..Value$GT$$GT$$u20$as$u20$cel_interpreter..magic..FromContext$GT$12from_context17h015963c5ccc00d47E",
            "__ZN83_$LT$std..sys..pal..unix..fs..cfm..CachedFileMetadata$u20$as$u20$std..io..Write$GT$14write_vectored17h0517292c254b6aaaE",
            "__ZN6anyhow5error145_$LT$impl$u20$core..convert..From$LT$anyhow..Error$GT$$u20$for$u20$alloc..boxed..Box$LT$dyn$u20$core..error..Error$u2b$core..marker..Send$GT$$GT$4from17h1e1dcedde8b7ec13E",
            "__ZN12regex_syntax11escape_into17h1ddf55a211490ff7E",
            "__ZN3std3net3tcp9TcpStream12read_timeout17h732e22af18235a07E",
            "__ZN15cel_interpreter9functions6double17hbba9dc4682fc316cE",
            "__ZN12regex_syntax6parser13ParserBuilder5build17ha05c1d27c5140c25E",
            "__ZN14regex_automata4util10primitives9PatternID4iter17hc2f2b3228a52dcbcE",
            "__ZN77_$LT$$u5b$u8$u3b$$u20$21$u5d$$u20$as$u20$nom..traits..FindToken$LT$u8$GT$$GT$10find_token17hab57eb51aff02fa2E",
            "__ZN82_$LT$core..char..ToLowercase$u20$as$u20$core..iter..traits..iterator..Iterator$GT$4next17hd8551fa5d223be32E",
            "__ZN77_$LT$core..net..ip_addr..Ipv4Addr$u20$as$u20$core..ops..bit..BitAndAssign$GT$13bitand_assign17hf6c5dcb2691827caE",
            "__ZN3std4path4Path13into_path_buf17h2b21834a60c222caE",
            "__ZN6chrono5naive4time9NaiveTime22overflowing_add_offset17hed361eccf44ca9dcE",
            "__ZN6anyhow5error98_$LT$impl$u20$core..convert..AsRef$LT$dyn$u20$core..error..Error$GT$$u20$for$u20$anyhow..Error$GT$6as_ref17h3f77ab515ada6557E",
            "__ZN15cel_interpreter9functions7matches17h2c15014320fd57fbE",
            "__ZN5alloc7raw_vec19RawVec$LT$T$C$A$GT$8grow_one17h1fb072f803145a73E",
            "__ZN5alloc7raw_vec19RawVec$LT$T$C$A$GT$8grow_one17h1dc5496e08908bb3E",
            "__ZN116_$LT$regex..regexset..bytes..SetMatchesIntoIter$u20$as$u20$core..iter..traits..double_ended..DoubleEndedIterator$GT$9next_back17hfae50344eb6f7260E",
            "__ZN15cel_interpreter7objects5Value11resolve_all17hc808084340e81e3fE",
            "__ZN3std5panic13resume_unwind17h24a8b95590b3bfc0E",
            "__ZN14regex_automata4util8captures8Captures9group_len17he500aeb3bb63a117E",
            "__ZN5gimli4read5value5Value3and17h3f41ea6ac2523757E",
            "__ZN77_$LT$object..xcoff..Rel32$u20$as$u20$object..read..xcoff..relocation..Rel$GT$8r_symndx17h908e042fea16fb9fE",
            "__ZN4core3num6bignum5tests6Big8x38mul_pow517h2c26d96cd0ea5335E",
            "__ZN83_$LT$object..xcoff..AuxHeader64$u20$as$u20$object..read..xcoff..file..AuxHeader$GT$8o_sntbss17h0ba60af40476ad11E",
            "__ZN14regex_automata6hybrid5regex7Builder5build17h7692035ca88e892dE",
            "__ZN69_$LT$std..fs..DirEntry$u20$as$u20$std..os..unix..fs..DirEntryExt2$GT$13file_name_ref17hdc6203c237cb7360E",
            "__ZN116_$LT$cel_parser..parser..__parse__Unary..__StateMachine$u20$as$u20$lalrpop_util..state_machine..ParserDefinition$GT$15token_to_symbol17h8d1295d0425d8163E",
            "__ZN85_$LT$regex_automata..util..captures..GroupInfoError$u20$as$u20$core..fmt..Display$GT$3fmt17hf6d109632bd4d716E",
            "__ZN219_$LT$$LT$serde..de..impls..$LT$impl$u20$serde..de..Deserialize$u20$for$u20$std..time..SystemTime$GT$..deserialize..Field$u20$as$u20$serde..de..Deserialize$GT$..deserialize..FieldVisitor$u20$as$u20$serde..de..Visitor$GT$9expecting17hfad56a4c279cfabcE",
            "__ZN11uniffi_core3ffi12foreignbytes12ForeignBytes3len17he1c66abb25bb9d07E",
            "__ZN4core3num3fmt4Part5write17h4b84b3fc61ea1606E",
            "__ZN112_$LT$regex..regexset..bytes..SetMatchesIter$u20$as$u20$core..iter..traits..double_ended..DoubleEndedIterator$GT$9next_back17h0d6d878c51268714E",
            "__ZN90_$LT$std..sys..pal..unix..args..Args$u20$as$u20$core..iter..traits..iterator..Iterator$GT$9size_hint17he188fa6b0210106fE",
            "__ZN12regex_syntax3hir5Class11maximum_len17hd180620b0b800d9cE",
            "__ZN55_$LT$std..io..util..Repeat$u20$as$u20$std..io..Read$GT$8read_buf17h3598b5cf7469750eE",
            "__ZN11uniffi_core8metadata14MetadataBuffer10concat_u3217h87f66d0b4f85bc7bE",
            "__ZN4core3fmt5write17h7cd07a09d57061e6E",
            "__ZN83_$LT$serde_json..value..ser..MapKeySerializer$u20$as$u20$serde..ser..Serializer$GT$13serialize_i1617hdc68b312d55794d6E",
            "__ZN3std9backtrace9Backtrace6frames17hc29e01fd0da4c94aE",
            "__ZN5alloc7raw_vec19RawVec$LT$T$C$A$GT$8grow_one17hb16fdde23fc1d938E",
            "__ZN70_$LT$serde_json..read..SliceRead$u20$as$u20$serde_json..read..Read$GT$13parse_str_raw17hcbd5934e2cf6b6c3E",
            "__ZN4core3ops8function5impls80_$LT$impl$u20$core..ops..function..FnOnce$LT$A$GT$$u20$for$u20$$RF$mut$u20$F$GT$9call_once17h714e31d7f341dee0E",
            "__ZN68_$LT$std..process..ExitStatusError$u20$as$u20$core..fmt..Display$GT$3fmt17h3bebe9171f8bd39fE",
            "__ZN96_$LT$std..sys_common..process..CommandEnvs$u20$as$u20$core..iter..traits..iterator..Iterator$GT$4next17hb754a328e8cc647dE",
            "__ZN97_$LT$core..char..ToUppercase$u20$as$u20$core..iter..traits..double_ended..DoubleEndedIterator$GT$9next_back17hc6727189253dac1aE",
            "__ZN109_$LT$chrono..naive..datetime..NaiveDateTime$u20$as$u20$core..ops..arith..Add$LT$chrono..month..Months$GT$$GT$3add17hfe70c9d25b0841f0E",
            "__ZN69_$LT$core..num..bignum..tests..Big8x3$u20$as$u20$core..fmt..Debug$GT$3fmt17hf658f7043ab13c21E",
            "__ZN77_$LT$object..xcoff..Rel64$u20$as$u20$object..read..xcoff..relocation..Rel$GT$7r_vaddr17h9edb4340746907c8E",
            "__ZN12regex_syntax3hir12ClassUnicode6negate17hbb4b01b3ab3e2befE",
            "__ZN3std4pipe10PipeWriter9try_clone17h22e660aa2140afdfE",
            "__ZN73_$LT$alloc..string..String$u20$as$u20$serde_json..value..index..Index$GT$15index_or_insert17h00f1d2ec54a060f6E",
            "__ZN47_$LT$std..fs..File$u20$as$u20$std..io..Seek$GT$4seek17h455b20ff02fcfb71E",
            "__ZN5alloc2rc32rc_inner_layout_for_value_layout17h7b77e23435c07359E",
            "__ZN3std2os4unix3net8listener12UnixListener10local_addr17h5a38573cf9f2c3d2E",
            "__ZN12regex_syntax3hir10ClassBytes8is_ascii17ha3fb5a65b4d96691E",
            "__ZN12regex_syntax3hir5Class11minimum_len17h88f53763ea293310E",
            "__ZN77_$LT$$u5b$u8$u3b$$u20$10$u5d$$u20$as$u20$nom..traits..FindToken$LT$u8$GT$$GT$10find_token17hc353cafc0ba8c053E",
            "__ZN69_$LT$serde..de..impls..BytesVisitor$u20$as$u20$serde..de..Visitor$GT$9expecting17h994f6ad4f35b275cE",
            "__ZN14regex_automata6hybrid6search20find_overlapping_fwd17hbaa2446424ce0665E",
            "__ZN5regex8builders6string12RegexBuilder15line_terminator17h7e1898f72265122eE",
            "__ZN4core10intrinsics3mir14UnwindContinue19panic_cold_explicit17h5d0e9959ce064565E",
            "__ZN5gimli4read5value5Value3shl17h6bc7feb954561d99E",
            "__ZN5gimli4read5value5Value7convert17h59ac56d1c84f90e5E",
            "__ZN5serde3ser3fmt85_$LT$impl$u20$serde..ser..Serializer$u20$for$u20$$RF$mut$u20$core..fmt..Formatter$GT$14serialize_i12817hc53b770d363e3ce3E",
            "__ZN74_$LT$bytes..bytes_mut..BytesMut$u20$as$u20$bytes..buf..buf_mut..BufMut$GT$9put_slice17hb158c558b5a79bdeE",
            "__ZN14regex_automata4util6search10PatternSet6insert17hb4bb88e294c79323E",
            "__ZN4core3num7flt2dec9estimator23estimate_scaling_factor17hb0389d728481c685E",
            "__ZN4core9panicking13assert_failed17h610e3f545f759482E",
            "__ZN3std2os4unix3net8listener12UnixListener6accept17hfa51e13b589c1852E",
            "__ZN12regex_syntax3hir12ClassUnicode20symmetric_difference17h96063d9191f43894E",
            "__ZN14regex_automata3dfa7onepass7Builder6syntax17h78df0be68614d5afE",
            "__ZN3std12backtrace_rs9symbolize6Symbol12filename_raw17h3b231478b6aa2378E",
            "__ZN3std3sys3pal4unix7process14process_common7Command3arg17h6131aa40b2d5a471E",
            "__ZN83_$LT$serde_json..value..ser..MapKeySerializer$u20$as$u20$serde..ser..Serializer$GT$13serialize_map17h95e25e4ad8bf604fE",
            "__ZN5gimli4arch3Arm13register_name17h634a5c93e0cf2b0cE",
            "__ZN229_$LT$$LT$cel_eval..ast.._..$LT$impl$u20$serde..de..Deserialize$u20$for$u20$cel_eval..ast..JSONExpression$GT$..deserialize..__Seed$u20$as$u20$serde..de..DeserializeSeed$GT$..deserialize..__Visitor$u20$as$u20$serde..de..Visitor$GT$9expecting17h292a97d1a4fec098E",
            "__ZN4core10intrinsics3mir13UnwindCleanup19panic_cold_explicit17hb0d53327e96a05b6E",
            "__ZN4core3fmt3num3imp52_$LT$impl$u20$core..fmt..UpperExp$u20$for$u20$i8$GT$3fmt17h90ca37ddac6ed7e9E",
            "__ZN97_$LT$regex_syntax..hir..translate..TranslatorI$u20$as$u20$regex_syntax..ast..visitor..Visitor$GT$29visit_class_set_binary_op_pre17h2636f04938f739a6E",
            "__ZN5bytes5bytes86_$LT$impl$u20$core..cmp..PartialOrd$LT$bytes..bytes..Bytes$GT$$u20$for$u20$$RF$str$GT$11partial_cmp17h35fec95673b1d73fE",
            "__ZN42_$LT$$RF$T$u20$as$u20$core..fmt..Debug$GT$3fmt17h600faebc954a162fE",
            "__ZN222_$LT$$LT$cel_eval..ast.._..$LT$impl$u20$serde..de..Deserialize$u20$for$u20$cel_eval..ast..JSONExpression$GT$..deserialize..__Visitor$u20$as$u20$serde..de..Visitor$GT$..visit_map..__Visitor$u20$as$u20$serde..de..Visitor$GT$9expecting17hd423bb4ba16cbc7dE",
            "__ZN4core5slice5index26slice_start_index_len_fail17h2cd9c58f1c04bb69E",
            "__ZN60_$LT$std..io..stdio..StderrRaw$u20$as$u20$std..io..Write$GT$5write17h74db6bd591dc06dfE",
            "__ZN4core3fmt3num55_$LT$impl$u20$core..fmt..UpperHex$u20$for$u20$usize$GT$3fmt17hb59683ce7328f9ebE",
            "__ZN4core3num20from_str_radix_panic17hf8f55b080fa7f2b3E",
            "__ZN127_$LT$cel_parser..parser..__parse__ArithmeticAddSub..__StateMachine$u20$as$u20$lalrpop_util..state_machine..ParserDefinition$GT$15token_to_symbol17h90720068cb1bbb4eE",
            "__ZN10serde_json2de83_$LT$impl$u20$core..str..traits..FromStr$u20$for$u20$serde_json..number..Number$GT$8from_str17h483e3c37b5413440E",
            "__ZN3std6thread7Builder4name17h8a9ec78b30deabfaE",
            "__ZN101_$LT$regex..regexset..bytes..SetMatchesIntoIter$u20$as$u20$core..iter..traits..iterator..Iterator$GT$9size_hint17hadf9a19c9c32cf01E",
            "__ZN58_$LT$std..io..stdio..Stdin$u20$as$u20$core..fmt..Debug$GT$3fmt17h967effc4512c09ceE",
            "__ZN102_$LT$std..panicking..begin_panic_handler..FormatStringPayload$u20$as$u20$core..panic..PanicPayload$GT$8take_box17h47e12d5a59f74db1E",
            "__ZN14regex_automata4util8captures9GroupInfo5empty17hd0486127fe123f87E",
            "__ZN5bytes3fmt3hex69_$LT$impl$u20$core..fmt..UpperHex$u20$for$u20$bytes..bytes..Bytes$GT$3fmt17h378f67bbd758cf99E",
            "__ZN76_$LT$$u5b$u8$u3b$$u20$0$u5d$$u20$as$u20$nom..traits..FindToken$LT$u8$GT$$GT$10find_token17h7397d498e54ac26bE",
            "__ZN10cel_parser6parser28__parse__ArithmeticMulDivMod8__action17hb1b88dacece19012E",
            "__ZN69_$LT$std..sys..pal..unix..fs..ReadDir$u20$as$u20$core..fmt..Debug$GT$3fmt17ha5b67075f9c1437fE",
            "__ZN12aho_corasick4util5error10MatchError22invalid_input_anchored17h5b3e32be601fcc7dE",
            "__ZN3std3net3tcp11TcpListener7set_ttl17haffe57e143cbda56E",
            "__ZN169_$LT$cel_eval..ast.._..$LT$impl$u20$serde..de..Deserialize$u20$for$u20$cel_eval..ast..JSONArithmeticOp$GT$..deserialize..__FieldVisitor$u20$as$u20$serde..de..Visitor$GT$9expecting17hb66a71d8737785f1E",
            "__ZN3std2os4unix3net6stream10UnixStream10local_addr17h87b677fa74fe9069E",
            "__ZN5bytes5bytes19promotable_odd_drop17hf793ea27e5675b43E",
            "__ZN81_$LT$$u5b$u8$u3b$$u20$26$u5d$$u20$as$u20$nom..traits..FindToken$LT$$RF$u8$GT$$GT$10find_token17h300cffd6083432c6E",
            "__ZN5regex8builders6string12RegexBuilder3new17h9e3daf0bfbe0d9adE",
            "__ZN3std7process7Command6output17h130a0fa4f2311ceaE",
            "__ZN3std3sys4sync6rwlock5queue6RwLock16unlock_contended17h7f10d21ab784cf00E",
            "__ZN3std7process7Command11get_program17h582ac75200de1a28E",
            "__ZN60_$LT$regex_syntax..ast..Span$u20$as$u20$core..fmt..Debug$GT$3fmt17h85fcf6096dd09b9aE",
            "__ZN75_$LT$alloc..vec..Vec$LT$u8$GT$$u20$as$u20$regex..regex..bytes..Replacer$GT$12no_expansion17h3aa362195c36492eE",
            "__ZN68_$LT$serde..de..impls..UnitVisitor$u20$as$u20$serde..de..Visitor$GT$9expecting17hcbb08459e0b0c8a8E",
            "__ZN15cel_interpreter9functions8duration17h65e9b3d7ceff799bE",
            "__ZN82_$LT$core..char..ToUppercase$u20$as$u20$core..iter..traits..iterator..Iterator$GT$4last17h9cd1b473f12e4cefE",
            "__ZN66_$LT$$RF$$u5b$u8$u5d$$u20$as$u20$regex..regex..bytes..Replacer$GT$14replace_append17h5946a7d071f221e8E",
            "__ZN55_$LT$core..fmt..Error$u20$as$u20$core..fmt..Display$GT$3fmt17h42a5048e62492251E",
            "__ZN11uniffi_core8metadata14MetadataBuffer8checksum17h12671c706cc2dcb2E",
            "__ZN89_$LT$cel_interpreter..magic..Arguments$u20$as$u20$cel_interpreter..magic..FromContext$GT$12from_context17h958bf102573393e8E",
            "__ZN3std2os4unix3net8datagram12UnixDatagram10take_error17hd6617cca3e6ff3f3E",
            "__ZN14regex_automata3nfa8thompson3nfa3NFA12always_match17hc3b0ced7c7e7fb07E",
            "__ZN81_$LT$chrono..offset..fixed..FixedOffset$u20$as$u20$core..str..traits..FromStr$GT$8from_str17h69699fe059b4fc8aE",
            "__ZN3std4path7PathBuf5_push17h4bb280f53f70d2bfE",
            "__ZN75_$LT$cel_interpreter..ser..Serializer$u20$as$u20$serde..ser..Serializer$GT$16serialize_struct17h5844823731a328d3E",
            "__ZN5gimli4arch4MIPS16name_to_register17h2c52e57f5a83c028E",
            "__ZN4core3net6parser91_$LT$impl$u20$core..str..traits..FromStr$u20$for$u20$core..net..socket_addr..SocketAddr$GT$8from_str17hbdb9029464056006E",
            "__ZN12regex_syntax3ast5parse6Parser19parse_with_comments17hb2061ad88bf3fdf8E",
            "__ZN83_$LT$object..xcoff..AuxHeader64$u20$as$u20$object..read..xcoff..file..AuxHeader$GT$7o_dsize17h309e9d051cc0642eE",
            "__ZN127_$LT$core..result..Result$LT$f64$C$cel_interpreter..ExecutionError$GT$$u20$as$u20$cel_interpreter..magic..IntoResolveResult$GT$19into_resolve_result17h2e71a5ce74c713a0E",
            "__ZN14regex_automata4util8captures8Captures23interpolate_string_into17h4b0d2ed86d7b1275E",
            "__ZN83_$LT$object..xcoff..CsectAux32$u20$as$u20$object..read..xcoff..symbol..CsectAux$GT$10x_parmhash17h200538bd7f97034dE",
            "__ZN14regex_automata3nfa8thompson9backtrack5Cache5reset17he5a0b1d4edef0f78E",
            "__ZN65_$LT$object..read..SectionIndex$u20$as$u20$core..fmt..Display$GT$3fmt17h0d69e28bb45a72bbE",
            "__ZN115_$LT$$LT$regex..regex..string..Captures$u20$as$u20$core..fmt..Debug$GT$..fmt..Value$u20$as$u20$core..fmt..Debug$GT$3fmt17h39333e156d411209E",
            "__ZN85_$LT$regex_automata..util..wire..LE$u20$as$u20$regex_automata..util..wire..Endian$GT$9write_u3217h425937930bbeea5aE",
            "__ZN96_$LT$cel_eval..ast..JSONMember$u20$as$u20$core..convert..From$LT$cel_parser..ast..Member$GT$$GT$4from17h2f52b472a7376f14E",
            "__ZN5gimli4read6abbrev10Attributes4push17hd5ba78c57ffce8f9E",
            "__ZN98_$LT$regex_automata..util..determinize..state..StateBuilderMatches$u20$as$u20$core..fmt..Debug$GT$3fmt17h91720e003efa0346E",
            "__ZN14regex_automata6hybrid3dfa3DFA11never_match17h2b8d38601e85bad2E",
            "__ZN5bytes18panic_does_not_fit17h09cee3f3684600c7E",
            "__ZN12aho_corasick3nfa13noncontiguous3NFA12iter_matches17h143922a4d2dee07bE",
            "__ZN4core9panicking11panic_const23panic_const_div_by_zero17h661ceb9608f3e8afE",
            "__ZN67_$LT$alloc..string..FromUtf8Error$u20$as$u20$core..fmt..Display$GT$3fmt17hd3028ea4e6ebf4ecE",
            "__ZN3std4path4Path9file_name17h2b349530c108afbaE",
            "__ZN12regex_syntax3hir12ClassUnicode5empty17h12e05314e879a270E",
            "__ZN9hashbrown3raw21RawTable$LT$T$C$A$GT$14reserve_rehash17h6cfa3a67af02317cE",
            "__ZN3std4path4Path6parent17h7dbce473c369afe6E",
            "__ZN102_$LT$std..panicking..begin_panic_handler..FormatStringPayload$u20$as$u20$core..panic..PanicPayload$GT$3get17h98f909aac2a2bde7E",
            "__ZN3std2fs4File9set_times17hdc6cb114b0448934E",
            "__ZN81_$LT$$u5b$u8$u3b$$u20$24$u5d$$u20$as$u20$nom..traits..FindToken$LT$$RF$u8$GT$$GT$10find_token17hd2b523c6d247ee4fE",
            "__ZN6chrono5naive8datetime13NaiveDateTime21signed_duration_since17h1b2ca2ecf3fc1dcfE",
            "__ZN4core3fmt9Formatter25debug_tuple_field2_finish17h408fea2ea63d7b83E",
            "__ZN61_$LT$$RF$std..io..stdio..Stderr$u20$as$u20$std..io..Write$GT$18write_all_vectored17ha7b66c4d5e663356E",
            "__ZN76_$LT$aho_corasick..util..error..MatchError$u20$as$u20$core..fmt..Display$GT$3fmt17hb7e589a287093be6E",
            "__ZN83_$LT$object..xcoff..AuxHeader64$u20$as$u20$object..read..xcoff..file..AuxHeader$GT$7o_entry17h0609d964794c6d2bE",
            "__ZN176_$LT$serde..de..impls..$LT$impl$u20$serde..de..Deserialize$u20$for$u20$core..num..nonzero..NonZero$LT$i16$GT$$GT$..deserialize..NonZeroVisitor$u20$as$u20$serde..de..Visitor$GT$9expecting17hc255b1499eef4012E",
            "__ZN3std3sys4path4unix8absolute17hc58ba1a6e6f18d58E",
            "__ZN85_$LT$object..xcoff..FileHeader64$u20$as$u20$object..read..xcoff..file..FileHeader$GT$7f_nsyms17h1c4541b816e5878dE",
            "__ZN6chrono6format4scan16nanosecond_fixed17h19ac9d8a5cab0f65E",
            "__ZN6chrono5naive8datetime13NaiveDateTime18checked_sub_signed17hfc41e4d3c017f0c3E",
            "__ZN14regex_automata6hybrid3dfa3DFA12create_cache17h536f5c2ab9ef272dE",
            "__ZN5bytes9bytes_mut8BytesMut17advance_unchecked17hc9fd7768279bb1acE",
            "__ZN113_$LT$regex..regexset..string..SetMatchesIter$u20$as$u20$core..iter..traits..double_ended..DoubleEndedIterator$GT$9next_back17hea8dcf7c0795ff2cE",
            "__ZN68_$LT$serde_json..read..StrRead$u20$as$u20$serde_json..read..Read$GT$17decode_hex_escape17h86006a039c3701a5E",
            "__ZN15cel_interpreter7context7Context15new_inner_scope17h4b052744e4832966E",
            "__ZN84_$LT$cel_interpreter..objects..Key$u20$as$u20$core..convert..From$LT$$RF$str$GT$$GT$4from17h8a48f6bd54b10f4fE",
            "__ZN91_$LT$std..backtrace_rs..symbolize..gimli..mmap..Mmap$u20$as$u20$core..ops..deref..Deref$GT$5deref17h060fa2e30d2848d9E",
            "__ZN4core3num7dec2flt60_$LT$impl$u20$core..str..traits..FromStr$u20$for$u20$f64$GT$8from_str17hc56058a7b4a49b3cE",
            "__ZN5bytes13panic_advance17heb3ad4cef5871afeE",
            "__ZN67_$LT$core..sync..atomic..AtomicI128$u20$as$u20$core..fmt..Debug$GT$3fmt17he470a64057ce933fE",
            "__ZN4core3num6bignum5tests6Big8x310bit_length17h57be1e16a8e58a9aE",
            "__ZN8cel_eval6models13PassableValue6to_cel17hc796ac13b6515dd5E",
            "__ZN76_$LT$$u5b$u8$u3b$$u20$9$u5d$$u20$as$u20$nom..traits..FindToken$LT$u8$GT$$GT$10find_token17h321652a8fa325286E",
            "__ZN14regex_automata4util5empty15skip_splits_fwd17h7a7b016c8e65dd64E",
            "__ZN3std2os4unix3net6stream10UnixStream15set_nonblocking17hce0c6262d68c1f0aE",
            "__ZN78_$LT$object..macho..FatArch32$u20$as$u20$object..read..macho..fat..FatArch$GT$7cputype17h9096ecc2e1045521E",
            "__ZN120_$LT$cel_parser..parser..__parse__Relations..__StateMachine$u20$as$u20$lalrpop_util..state_machine..ParserDefinition$GT$15simulate_reduce17hbf27441c9b665e8dE",
            "__ZN3std2io5stdio5Stdin5lines17he1ed82fcb38fc107E",
            "__ZN61_$LT$serde_json..error..Error$u20$as$u20$serde..de..Error$GT$12invalid_type17h25325b41f6c83572E",
            "__ZN57_$LT$std..io..stdio..Stderr$u20$as$u20$std..io..Write$GT$9write_all17hf688567d48586fe7E",
            "__ZN78_$LT$cel_interpreter..ser..KeySerializer$u20$as$u20$serde..ser..Serializer$GT$13serialize_seq17ha2c9a8b15ada3273E",
            "__ZN5serde3ser3fmt85_$LT$impl$u20$serde..ser..Serializer$u20$for$u20$$RF$mut$u20$core..fmt..Formatter$GT$12serialize_u817h1951633e39101964E",
            "__ZN67_$LT$std..sys..os_str..bytes..Slice$u20$as$u20$core..fmt..Debug$GT$3fmt17h369a8a03ad983d61E",
            "__ZN77_$LT$object..xcoff..Rel64$u20$as$u20$object..read..xcoff..relocation..Rel$GT$8r_symndx17h7ff38ba2e74afff6E",
            "__ZN143_$LT$serde..de..impls..$LT$impl$u20$serde..de..Deserialize$u20$for$u20$i64$GT$..deserialize..PrimitiveVisitor$u20$as$u20$serde..de..Visitor$GT$9expecting17h4ba1bb0ce947a4eaE",
            "__ZN3std4time10SystemTime14duration_since17haaf430e1f518c497E",
            "__ZN6anyhow5chain82_$LT$impl$u20$core..iter..traits..iterator..Iterator$u20$for$u20$anyhow..Chain$GT$9size_hint17h8c43f8eddfde3d56E",
            "__ZN4core10intrinsics3mir6Deinit19panic_cold_explicit17h69bc8ce0e0c5381aE",
            "__ZN14regex_automata3nfa8thompson6pikevm6PikeVM16search_slots_imp17h470e8dd7ab1b8c13E",
            "__ZN81_$LT$serde_json..value..ser..SerializeMap$u20$as$u20$serde..ser..SerializeMap$GT$3end17h35b0f15deae343e4E",
            "__ZN100_$LT$cel_interpreter..objects..Value$u20$as$u20$core..convert..From$LT$alloc..string..String$GT$$GT$4from17hd5676cc301d965b8E",
            "__ZN14regex_automata3nfa8thompson9backtrack18BoundedBacktracker12create_cache17h5d8223c3ab209d73E",
            "__ZN4core3fmt5float52_$LT$impl$u20$core..fmt..Display$u20$for$u20$f32$GT$3fmt17h73c9a02860626b98E",
            "__ZN5alloc7raw_vec19RawVec$LT$T$C$A$GT$8grow_one17hf5512a716d456b66E",
            "__ZN74_$LT$std..sync..barrier..BarrierWaitResult$u20$as$u20$core..fmt..Debug$GT$3fmt17h63d732c05fee445aE",
            "__ZN79_$LT$std..env..SplitPaths$u20$as$u20$core..iter..traits..iterator..Iterator$GT$4next17h78b5b0c6c03e5a25E",
            "__ZN14regex_automata4util6search10MatchError4quit17hf019614f483b860aE",
            "__ZN187_$LT$serde..de..impls..$LT$impl$u20$serde..de..Deserialize$u20$for$u20$core..num..saturating..Saturating$LT$usize$GT$$GT$..deserialize..SaturatingVisitor$u20$as$u20$serde..de..Visitor$GT$9expecting17h1427ed2b5a479e8bE",
            "__ZN119_$LT$cel_parser..parser..__parse__MapInits..__StateMachine$u20$as$u20$lalrpop_util..state_machine..ParserDefinition$GT$15token_to_symbol17h3a1ca61b4f9f9b7cE",
            "__ZN5bytes5bytes20promotable_odd_clone17h79eee1abf356890aE",
            "__ZN82_$LT$core..char..ToUppercase$u20$as$u20$core..iter..traits..iterator..Iterator$GT$5count17h2de28e0f5c9e1b7bE",
            "__ZN6chrono10time_delta9TimeDelta15num_nanoseconds17h2b8d98b3d296835dE",
            "__ZN176_$LT$serde..de..impls..$LT$impl$u20$serde..de..Deserialize$u20$for$u20$core..num..nonzero..NonZero$LT$u16$GT$$GT$..deserialize..NonZeroVisitor$u20$as$u20$serde..de..Visitor$GT$9expecting17h5312a1fe9f4d68ccE",
            "__ZN73_$LT$cel_interpreter..objects..Value$u20$as$u20$core..cmp..PartialOrd$GT$11partial_cmp17h5e31a003e627b789E",
            "__ZN14regex_automata4util10primitives7StateID4iter17ha1db2b669da134f6E",
            "__ZN3std2rt19lang_start_internal17ha9c97e60f10b8ceaE",
            "__ZN3std12backtrace_rs9symbolize5gimli7resolve17hc02e18164b6f49f5E",
            "__ZN112_$LT$regex_automata..util..captures..GroupInfoPatternNames$u20$as$u20$core..iter..traits..iterator..Iterator$GT$5count17he2a4b5cb16b2cf6eE",
            "__ZN6chrono5naive4date13div_mod_floor17h865ea0092f3e93e1E",
            "__ZN14regex_automata4meta8strategy4Core18search_half_nofail17hfbbd719740ea03feE",
            "__ZN66_$LT$core..sync..atomic..AtomicU32$u20$as$u20$core..fmt..Debug$GT$3fmt17h6e1caa7cdeff8d5cE",
            "__ZN63_$LT$std..thread..scoped..Scope$u20$as$u20$core..fmt..Debug$GT$3fmt17h4e5652a041a60a1dE",
            "__ZN5bytes5bytes20promotable_even_drop17h88c0bb579cbed4e5E",
            "__ZN4core9panicking26panic_nounwind_nobacktrace17hf15c6da758529dcdE",
            "__ZN77_$LT$$u5b$u8$u3b$$u20$14$u5d$$u20$as$u20$nom..traits..FindToken$LT$u8$GT$$GT$10find_token17h671a7e666b05c6ebE",
            "__ZN80_$LT$$u5b$u8$u3b$$u20$4$u5d$$u20$as$u20$nom..traits..FindToken$LT$$RF$u8$GT$$GT$10find_token17h54713e953e8b8cebE",
            "__ZN5alloc7raw_vec19RawVec$LT$T$C$A$GT$8grow_one17ha156f03bb63e40daE",
            "__ZN15cel_interpreter7Program7compile17h55cb8e16cb52387fE",
            "__ZN62_$LT$std..io..stdio..StdinLock$u20$as$u20$std..io..BufRead$GT$9read_line17h934fe84f466b3b32E",
            "__ZN106_$LT$aho_corasick..util..alphabet..ByteClassElements$u20$as$u20$core..iter..traits..iterator..Iterator$GT$4next17h8fcb47012d15f02fE",
            "__ZN14regex_automata4util11determinize5state5State13match_pattern17hb0e67f377b98518bE",
            "__ZN95_$LT$aho_corasick..util..primitives..StateID$u20$as$u20$core..convert..TryFrom$LT$usize$GT$$GT$8try_from17h896fb93614ed7716E",
            "__ZN6object3elf4hash17h87676eec476d8cebE",
            "__ZN73_$LT$regex_automata..util..alphabet..Unit$u20$as$u20$core..fmt..Debug$GT$3fmt17ha8f63d2bfa355ac7E",
            "__ZN52_$LT$std..path..Path$u20$as$u20$core..fmt..Debug$GT$3fmt17h6f2c77c84f138124E",
            "__ZN14regex_automata6hybrid5regex7Builder6syntax17hc0ff5db280c0ef74E",
            "__ZN143_$LT$serde..de..impls..$LT$impl$u20$serde..de..Deserialize$u20$for$u20$u64$GT$..deserialize..PrimitiveVisitor$u20$as$u20$serde..de..Visitor$GT$9expecting17h6871c8cd73684277E",
            "__ZN5bytes5bytes5Bytes9split_off17h156c4b1da7d55741E",
            "__ZN4core3fmt3num50_$LT$impl$u20$core..fmt..Octal$u20$for$u20$u32$GT$3fmt17h7edbad1fb35489a7E",
            "__ZN67_$LT$serde..__private..doc..Error$u20$as$u20$core..error..Error$GT$11description17h8d1a1e34cb08277dE",
            "__ZN97_$LT$std..time..SystemTime$u20$as$u20$core..ops..arith..SubAssign$LT$core..time..Duration$GT$$GT$10sub_assign17hddff1e446b8bc07aE",
            "__ZN6chrono5naive4date11yo_to_cycle17ha6b07d5160f77c9aE",
            "__ZN5bytes9bytes_mut13shared_v_drop17h7b6aa08f112c084fE",
            "__ZN4core3fmt3num51_$LT$impl$u20$core..fmt..Binary$u20$for$u20$i32$GT$3fmt17h7d782e7919148935E",
            "__ZN9hashbrown3raw21RawTable$LT$T$C$A$GT$14reserve_rehash17h7dad62d084c7d41cE",
            "__ZN4core3fmt3num54_$LT$impl$u20$core..fmt..UpperExp$u20$for$u20$u128$GT$3fmt17haecf21c7ea255729E",
            "__ZN229_$LT$$LT$cel_eval..ast.._..$LT$impl$u20$serde..de..Deserialize$u20$for$u20$cel_eval..ast..JSONExpression$GT$..deserialize..__Seed$u20$as$u20$serde..de..DeserializeSeed$GT$..deserialize..__Visitor$u20$as$u20$serde..de..Visitor$GT$9expecting17hc932ada3d46044a8E",
            "__ZN5alloc7raw_vec19RawVec$LT$T$C$A$GT$8grow_one17hf0214593946ddfddE",
            "__ZN5alloc11collections5btree4node210Handle$LT$alloc..collections..btree..node..NodeRef$LT$alloc..collections..btree..node..marker..Mut$C$K$C$V$C$alloc..collections..btree..node..marker..Leaf$GT$$C$alloc..collections..btree..node..marker..Edge$GT$16insert_recursing17hdefa97ce63db342cE",
            "__ZN4core3fmt9Formatter9write_str17hb5e5109ca2a7203bE",
            "__ZN10cel_parser6parser18__parse__Relations15RelationsParser5parse17h41778b95ba36baebE",
            "__ZN94_$LT$std..sys..pal..unix..process..process_common..CommandArgs$u20$as$u20$core..fmt..Debug$GT$3fmt17h407eeb55cd265ac2E",
            "__ZN3std3net3tcp9TcpStream7nodelay17h54de6878ddd9445dE",
            "__ZN5bytes5bytes102_$LT$impl$u20$core..convert..From$LT$bytes..bytes..Bytes$GT$$u20$for$u20$alloc..vec..Vec$LT$u8$GT$$GT$4from17h6170a0a7c2bf7aaeE",
            "__ZN12regex_syntax3ast11Alternation8into_ast17hfc2cf6e5c3c9f603E",
            "__ZN84_$LT$$RF$alloc..borrow..Cow$LT$str$GT$$u20$as$u20$regex..regex..string..Replacer$GT$12no_expansion17hcea35986ea581397E",
            "__ZN58_$LT$std..io..util..Repeat$u20$as$u20$core..fmt..Debug$GT$3fmt17hdedd54166b538c09E",
            "__ZN5alloc7raw_vec19RawVec$LT$T$C$A$GT$8grow_one17h47dff93bc41f0da3E",
            "__ZN106_$LT$regex_automata..nfa..thompson..nfa..PatternIter$u20$as$u20$core..iter..traits..iterator..Iterator$GT$4next17h3ecaa095af71eca0E",
            "__ZN84_$LT$regex..regex..bytes..Regex$u20$as$u20$core..convert..TryFrom$LT$$RF$str$GT$$GT$8try_from17h4f720c830b988a9dE",
            "__ZN132_$LT$alloc..sync..Arc$LT$alloc..vec..Vec$LT$cel_interpreter..objects..Value$GT$$GT$$u20$as$u20$cel_interpreter..magic..FromValue$GT$10from_value17hdbf1e9d472407df9E",
            "__ZN68_$LT$gimli..read..abbrev..Attributes$u20$as$u20$core..fmt..Debug$GT$3fmt17h4fbdf173dd4d2e76E",
            "__ZN121_$LT$cel_parser..parser..__parse__LogicalAnd..__StateMachine$u20$as$u20$lalrpop_util..state_machine..ParserDefinition$GT$15expected_tokens17h977bf8e51007f6f5E",
            "__ZN70_$LT$regex_automata..dfa..onepass..DFA$u20$as$u20$core..fmt..Debug$GT$3fmt17h705bb4784e5ee219E",
            "__ZN162_$LT$cel_eval..ast.._..$LT$impl$u20$serde..de..Deserialize$u20$for$u20$cel_eval..ast..JSONExpression$GT$..deserialize..__Visitor$u20$as$u20$serde..de..Visitor$GT$9expecting17h749c0dcd57fb7df2E",
            "__ZN100_$LT$alloc..ffi..c_str..CString$u20$as$u20$core..convert..From$LT$$RF$core..ffi..c_str..CStr$GT$$GT$4from17hce64f85869e20008E",
            "__ZN5alloc7raw_vec19RawVec$LT$T$C$A$GT$8grow_one17h470b93b68a6f8e10E",
            "__ZN6chrono5naive4date9NaiveDate21from_weekday_of_month17hbcae18ecab406e66E",
            "__ZN55_$LT$std..io..stdio..Stdin$u20$as$u20$std..io..Read$GT$13read_vectored17hc54e138f66be68acE",
            "__ZN14regex_automata4meta8wrappers13ReverseHybrid12create_cache17hf9adc190dfa057c8E",
            "__ZN81_$LT$std..sys..pal..unix..fd..FileDesc$u20$as$u20$std..os..fd..raw..FromRawFd$GT$11from_raw_fd17ha9cfd348668ab49dE",
            "__ZN4core10intrinsics3mir11StorageLive19panic_cold_explicit17h0ff9b85b2a833a0bE",
            "__ZN103_$LT$regex_automata..util..search..PatternSetIter$u20$as$u20$core..iter..traits..iterator..Iterator$GT$4next17hbf2ac7b01fc351c8E",
            "__ZN5alloc7raw_vec19RawVec$LT$T$C$A$GT$8grow_one17hc19b1505ebdc982fE",
            "__ZN122_$LT$cel_parser..parser..__parse__Conditional..__StateMachine$u20$as$u20$lalrpop_util..state_machine..ParserDefinition$GT$15simulate_reduce17h6f852fc97102e937E",
            "__ZN158_$LT$cel_eval..ast.._..$LT$impl$u20$serde..de..Deserialize$u20$for$u20$cel_eval..ast..JSONMember$GT$..deserialize..__Visitor$u20$as$u20$serde..de..Visitor$GT$9expecting17h02380c689edf9514E",
            "__ZN5alloc7raw_vec19RawVec$LT$T$C$A$GT$8grow_one17ha491e1a064bce313E",
            "__ZN5alloc3str21_$LT$impl$u20$str$GT$12to_uppercase17hf83e71cca2ae40d5E",
            "__ZN5alloc7raw_vec19RawVec$LT$T$C$A$GT$8grow_one17hd8134a80b800a162E",
            "__ZN5bytes5bytes5Bytes15copy_from_slice17hceb86c81fd9fec29E",
            "__ZN6object4read2pe6export11ExportTable17target_by_ordinal17hd8ae940729550a87E",
            "__ZN60_$LT$std..io..stdio..StderrRaw$u20$as$u20$std..io..Write$GT$9write_all17h97f2da891cc7bf47E",
            "__ZN85_$LT$object..xcoff..FileHeader32$u20$as$u20$object..read..xcoff..file..FileHeader$GT$7f_magic17h0507b59e692fa2f2E",
            "__ZN68_$LT$core..fmt..builders..PadAdapter$u20$as$u20$core..fmt..Write$GT$10write_char17h7070e61f18223cb0E",
            "__ZN105_$LT$aho_corasick..util..prefilter..RareBytesOne$u20$as$u20$aho_corasick..util..prefilter..PrefilterI$GT$7find_in17hfdfcd67e1a41bce6E",
            "__ZN62_$LT$$RF$std..net..tcp..TcpStream$u20$as$u20$std..io..Read$GT$13read_vectored17hc7b19dd2a4b630d5E",
            "__ZN4core3fmt3num52_$LT$impl$u20$core..fmt..Octal$u20$for$u20$usize$GT$3fmt17h17fca6c7d3b0c6baE",
            "__ZN3std3net3udp9UdpSocket15set_nonblocking17h9731d81ab678bb16E",
            "__ZN3std2os4unix3net8datagram12UnixDatagram9recv_from17h904b7c94743c2e10E",
            "__ZN62_$LT$bytes..bytes..Shared$u20$as$u20$core..ops..drop..Drop$GT$4drop17hbdd4788d1c9c61a5E",
            "__ZN4core10intrinsics3mir15UnwindTerminate19panic_cold_explicit17hadd656e9522ccc41E",
            "__ZN10cel_parser6parser17__parse__MapInits14MapInitsParser5parse17h5dff00d8a91af9f6E",
            "__ZN3std7process8ExitCode12exit_process17h45a6adf25abf22a3E",
            "__ZN6anyhow5chain97_$LT$impl$u20$core..iter..traits..double_ended..DoubleEndedIterator$u20$for$u20$anyhow..Chain$GT$9next_back17hf75cff8547123e7dE",
            "__ZN5gimli4arch3X8616name_to_register17h8d89f2873e2151feE",
            "__ZN106_$LT$regex_automata..meta..strategy..ReverseSuffix$u20$as$u20$regex_automata..meta..strategy..Strategy$GT$12memory_usage17h1d4b5386e740a120E",
            "__ZN14regex_automata3nfa8thompson6pikevm7Builder6syntax17h72abd221aec831f2E",
            "__ZN77_$LT$alloc..raw_vec..RawVec$LT$T$C$A$GT$$u20$as$u20$core..ops..drop..Drop$GT$4drop17h8de6e9f66350b691E",
            "__ZN14regex_automata4util8captures8Captures17get_group_by_name17h4f3c414a1d392ed3E",
            "__ZN3std6thread8ThreadId3new17h998f0225c26c8626E",
            "__ZN66_$LT$core..str..error..Utf8Error$u20$as$u20$core..fmt..Display$GT$3fmt17hf4e5c2182605e95aE",
            "__ZN90_$LT$bytes..bytes..Bytes$u20$as$u20$core..cmp..PartialOrd$LT$alloc..string..String$GT$$GT$11partial_cmp17h3edd0cb678a9e627E",
            "__ZN82_$LT$cel_interpreter..ser..SerializeMap$u20$as$u20$serde..ser..SerializeStruct$GT$3end17h166ff1baf2f1f4dcE",
            "__ZN69_$LT$core..ffi..c_str..CStr$u20$as$u20$core..clone..CloneToUninit$GT$15clone_to_uninit17hb6bf2284a8a93bcdE",
            "__ZN65_$LT$core..str..iter..EncodeUtf16$u20$as$u20$core..fmt..Debug$GT$3fmt17h51d507a9368b8f90E",
            "__ZN3nom8internal52Err$LT$nom..error..Error$LT$$RF$$u5b$u8$u5d$$GT$$GT$8to_owned17h6a3b825666ebb70aE",
            "__ZN59_$LT$i64$u20$as$u20$cel_interpreter..magic..FromContext$GT$12from_context17h904ccbe7f01e1369E",
            "__ZN3std3sys3pal4unix6thread6Thread3new17hed079c7f0a741016E",
            "__ZN14regex_automata4meta5regex5Regex12captures_len17hd34f68e613a37811E",
            "__ZN6object4read7archive16parse_u64_digits17he1b5cee4e55c3d2dE",
            "__ZN12regex_syntax3hir7literal14PreferenceTrie8minimize17hf90070a31c1eb466E",
            "__ZN5alloc7raw_vec19RawVec$LT$T$C$A$GT$8grow_one17h65b578ad2d6c8123E",
            "__ZN5alloc11collections5btree4node212Handle$LT$alloc..collections..btree..node..NodeRef$LT$alloc..collections..btree..node..marker..Mut$C$K$C$V$C$alloc..collections..btree..node..marker..Internal$GT$$C$alloc..collections..btree..node..marker..KV$GT$5split17h335eeabea519b1eaE",
            "__ZN3std3net3udp9UdpSocket3ttl17h4b4c94bb6a3132ebE",
            "__ZN65_$LT$core..ascii..EscapeDefault$u20$as$u20$core..fmt..Display$GT$3fmt17h126f8cfce8b9882fE",
            "__ZN6object4read2pe7section59_$LT$impl$u20$object..read..coff..section..SectionTable$GT$16pe_file_range_at17hb85fa22be03c1ffaE",
            "__ZN5bytes3fmt3hex69_$LT$impl$u20$core..fmt..LowerHex$u20$for$u20$bytes..bytes..Bytes$GT$3fmt17h6d8936714605bf44E",
            "__ZN62_$LT$gimli..constants..DwVis$u20$as$u20$core..fmt..Display$GT$3fmt17h45c1431f24271bb6E",
            "__ZN5alloc7raw_vec19RawVec$LT$T$C$A$GT$8grow_one17h28de63db79ba4484E",
            "__ZN5alloc11collections5btree4node214Handle$LT$alloc..collections..btree..node..NodeRef$LT$alloc..collections..btree..node..marker..Mut$C$K$C$V$C$alloc..collections..btree..node..marker..Internal$GT$$C$alloc..collections..btree..node..marker..Edge$GT$10insert_fit17hb5174cd3101f0f6bE",
            "__ZN73_$LT$$RF$alloc..string..String$u20$as$u20$core..str..pattern..Pattern$GT$13into_searcher17h67f788240167c8f4E",
            "__ZN3std3net3tcp9TcpStream17set_write_timeout17h31bdef203be9a4f2E",
            "__ZN5alloc4sync16Arc$LT$T$C$A$GT$9drop_slow17hfa2f7980f38e9a95E",
            "__ZN3std3net3tcp9TcpStream10take_error17hf7606cce748d3b71E",
            "__ZN3std3net3udp9UdpSocket17multicast_loop_v417hc566efbe3c9d8a0bE",
            "__ZN3std3sys12thread_local11destructors4list8register17ha883b3950d584b9dE",
            "__ZN3std9panicking9take_hook17hd6608768b1308c9eE",
            "__ZN3std3net3tcp9TcpStream15set_nonblocking17h4cb48fe601c16e53E",
            "__ZN47_$LT$std..fs..File$u20$as$u20$std..io..Read$GT$14read_to_string17h741dbcfda4c3fabdE",
            "__ZN5bytes3fmt3hex70_$LT$impl$u20$core..fmt..UpperHex$u20$for$u20$bytes..fmt..BytesRef$GT$3fmt17hb35cb5f1f5aa334aE",
            "__ZN6anyhow6ensure6render17hbb5dd83718e444a3E",
            "__ZN3std4pipe10PipeReader9try_clone17h1798d238a1e9e097E",
            "__ZN11uniffi_core15check_remaining17h94fe74308ce341f3E",
            "__ZN165_$LT$cel_eval..models.._..$LT$impl$u20$serde..de..Deserialize$u20$for$u20$cel_eval..models..PassableMap$GT$..deserialize..__Visitor$u20$as$u20$serde..de..Visitor$GT$9expecting17hcbadfbe2128b5cb8E",
            "__ZN110_$LT$regex_automata..util..captures..CapturesPatternIter$u20$as$u20$core..iter..traits..iterator..Iterator$GT$5count17h66baaea560230ccfE",
            "__ZN3std3env7vars_os17heaf5b08cb79afda4E",
            "__ZN77_$LT$$u5b$u8$u3b$$u20$17$u5d$$u20$as$u20$nom..traits..FindToken$LT$u8$GT$$GT$10find_token17h28a68a81ea07b057E",
            "__ZN14regex_automata3nfa8thompson7builder7Builder5clear17h87c7648d50b3251cE",
            "__ZN14regex_automata3nfa8thompson6pikevm6PikeVM12always_match17hdca3ea394b0a9c80E",
            "__ZN3std9panicking14payload_as_str17hd2655e38816d4aa3E",
            "__ZN3std3net3tcp9TcpStream6linger17h6ff7d0c6cdd27705E",
            "__ZN229_$LT$$LT$cel_eval..ast.._..$LT$impl$u20$serde..de..Deserialize$u20$for$u20$cel_eval..ast..JSONExpression$GT$..deserialize..__Seed$u20$as$u20$serde..de..DeserializeSeed$GT$..deserialize..__Visitor$u20$as$u20$serde..de..Visitor$GT$9expecting17h5f0ea08766e8f7adE",
            "__ZN14regex_automata4util6search10PatternSet8contains17h8148f6deb0762b97E",
            "__ZN3std2os4unix3net8listener12UnixListener15set_nonblocking17h88d2573c58c709faE",
            "__ZN5alloc4sync16Arc$LT$T$C$A$GT$9drop_slow17h9ccccc60866782a8E",
            "__ZN12regex_syntax3hir10Properties10repetition17hc2029258de4ddc88E",
            "__ZN5serde9__private6string15from_utf8_lossy17h9c39d9170fbd22b4E",
            "__ZN118_$LT$cel_parser..parser..__parse__Primary..__StateMachine$u20$as$u20$lalrpop_util..state_machine..ParserDefinition$GT$15simulate_reduce17hf33f8899ace0958dE",
            "__ZN14regex_automata4util9prefilter9Prefilter11from_choice17h4660302c4c0e046dE",
            "__ZN5bytes9bytes_mut15shared_v_to_mut17h654a43347dd4affaE",
            "__ZN61_$LT$$RF$std..io..stdio..Stdout$u20$as$u20$std..io..Write$GT$5flush17hc655b173f9a2ae08E",
            "__ZN83_$LT$object..xcoff..AuxHeader64$u20$as$u20$object..read..xcoff..file..AuxHeader$GT$7o_mflag17hd9978b39eba329baE",
            "__ZN64_$LT$std..os..fd..owned..OwnedFd$u20$as$u20$core..fmt..Debug$GT$3fmt17h2bf7b06cfb671eb6E",
            "__ZN14regex_automata6hybrid3dfa7Builder3new17h45dde1ee1c64e37cE",
            "__ZN82_$LT$core..char..ToLowercase$u20$as$u20$core..iter..traits..iterator..Iterator$GT$4last17h1d2db7204e65640cE",
            "__ZN11uniffi_core3ffi10rustbuffer10RustBuffer16destroy_into_vec17h14411d6a8fa8523bE",
            "__ZN4core5slice4sort6stable9quicksort9quicksort17h66d0b90f20a21eb5E",
            "__ZN59_$LT$std..process..ChildStderr$u20$as$u20$std..io..Read$GT$4read17h6f37e2092c2df28fE",
            "__ZN3std3sys3pal4unix4sync5mutex5Mutex4lock17h61fb61c265fd4f83E",
            "__ZN5bytes9bytes_mut18shared_v_is_unique17h0394517d4d8b5092E",
            "__ZN120_$LT$cel_parser..parser..__parse__LogicalOr..__StateMachine$u20$as$u20$lalrpop_util..state_machine..ParserDefinition$GT$15expected_tokens17h50c14a51c10d2a29E",
            "__ZN5alloc11collections5btree4node214Handle$LT$alloc..collections..btree..node..NodeRef$LT$alloc..collections..btree..node..marker..Mut$C$K$C$V$C$alloc..collections..btree..node..marker..Internal$GT$$C$alloc..collections..btree..node..marker..Edge$GT$6insert17h517ad2f703bedc73E",
            "__ZN71_$LT$chrono..time_delta..TimeDelta$u20$as$u20$core..ops..arith..Add$GT$3add17h03aa4fa1b1a88d37E",
            "__ZN70_$LT$std..thread..local..AccessError$u20$as$u20$core..fmt..Display$GT$3fmt17h1d67ee2aa98ca3a7E",
            "__ZN67_$LT$chrono..naive..time..NaiveTime$u20$as$u20$core..fmt..Debug$GT$3fmt17hf865482b629b393cE",
            "__ZN3std7process5Child4wait17h093e34b02c38b101E",
            "__ZN5alloc7raw_vec19RawVec$LT$T$C$A$GT$8grow_one17h2ef56b0d4d6bfbc7E",
            "__ZN111_$LT$regex_automata..util..prefilter..memchr..Memchr$u20$as$u20$regex_automata..util..prefilter..PrefilterI$GT$4find17h6f05e9a6cecdf2e6E",
            "__ZN4core3fmt3num54_$LT$impl$u20$core..fmt..LowerExp$u20$for$u20$i128$GT$3fmt17h232ce31254a8cf5aE",
            "__ZN76_$LT$core..net..ip_addr..Ipv6Addr$u20$as$u20$core..ops..bit..BitOrAssign$GT$12bitor_assign17hb9422330cdda5dcbE",
            "__ZN14regex_automata6hybrid3dfa3DFA11reset_cache17he3021643885a6567E",
            "__ZN59_$LT$std..process..ChildStdin$u20$as$u20$std..io..Write$GT$5write17h38e557e79acd6cb7E",
            "__ZN143_$LT$serde..de..impls..$LT$impl$u20$serde..de..Deserialize$u20$for$u20$i16$GT$..deserialize..PrimitiveVisitor$u20$as$u20$serde..de..Visitor$GT$9expecting17h282b1a7f8d90fe35E",
            "__ZN78_$LT$aho_corasick..util..primitives..PatternID$u20$as$u20$core..fmt..Debug$GT$3fmt17h463ee819903c8326E",
            "__ZN5alloc11collections5btree4node208Handle$LT$alloc..collections..btree..node..NodeRef$LT$alloc..collections..btree..node..marker..Mut$C$K$C$V$C$alloc..collections..btree..node..marker..Leaf$GT$$C$alloc..collections..btree..node..marker..KV$GT$5split17hebb9eaea0b492876E",
            "__ZN14regex_automata6hybrid3dfa5Cache5reset17hfd609df15c99f08eE",
            "__ZN3std3net3tcp9TcpStream13write_timeout17h1ae3f466422c2d05E",
            "__ZN78_$LT$$RF$$u5b$u8$u5d$$u20$as$u20$nom..traits..FindSubstring$LT$$RF$str$GT$$GT$14find_substring17h1ce59c0662443c5fE",
            "__ZN85_$LT$regex_automata..util..wire..BE$u20$as$u20$regex_automata..util..wire..Endian$GT$9write_u3217h142d4210fe919e5bE",
            "__ZN58_$LT$parking..Parker$u20$as$u20$core..default..Default$GT$7default17h92386f657977dbe3E",
            "__ZN4core4char7methods15encode_utf8_raw8do_panic7runtime17h1a1b5f98dab9f194E",
            "__ZN3std3sys14anonymous_pipe4unix79_$LT$impl$u20$std..os..fd..raw..FromRawFd$u20$for$u20$std..pipe..PipeWriter$GT$11from_raw_fd17haba0d736211b448bE",
            "__ZN3std3sys6os_str5bytes5Slice8to_owned17h7996aac57fab6f0dE",
            "__ZN12regex_syntax3ast7visitor11HeapVisitor12induct_class17h9bc0c9bbc7df0c15E",
            "__ZN4core3fmt9Formatter26debug_struct_field5_finish17h185d55caa7ef5b47E",
            "__ZN73_$LT$std..sys..pal..unix..os..EnvStrDebug$u20$as$u20$core..fmt..Debug$GT$3fmt17h41c64d6ebd075d95E",
            "__ZN67_$LT$core..sync..atomic..AtomicBool$u20$as$u20$core..fmt..Debug$GT$3fmt17hd9ea830d52d174abE",
            "__ZN111_$LT$regex_automata..util..prefilter..memmem..Memmem$u20$as$u20$regex_automata..util..prefilter..PrefilterI$GT$4find17hd88f7b3348a1fa8eE",
            "__ZN5alloc11collections5btree4node117NodeRef$LT$alloc..collections..btree..node..marker..Owned$C$K$C$V$C$alloc..collections..btree..node..marker..Leaf$GT$8new_leaf17h5343b08b49d95fd7E",
            "__ZN5alloc7raw_vec19RawVec$LT$T$C$A$GT$8grow_one17h4f8de368fee3a682E",
            "__ZN14regex_automata3dfa7onepass7Builder9configure17he63b4286ba1ab486E",
            "__ZN61_$LT$gimli..constants..DwAt$u20$as$u20$core..fmt..Display$GT$3fmt17h64157a50445bfc59E",
            "__ZN77_$LT$$u5b$u8$u3b$$u20$11$u5d$$u20$as$u20$nom..traits..FindToken$LT$u8$GT$$GT$10find_token17hef1b05bb467bc95eE",
            "__ZN4core3fmt3num3imp53_$LT$impl$u20$core..fmt..LowerExp$u20$for$u20$u32$GT$3fmt17h6eaf5deb4fffd327E",
            "__ZN15cel_interpreter7context7Context11resolve_all17h0594c392a7cb9c5dE",
            "__ZN62_$LT$std..io..stdio..StdinLock$u20$as$u20$std..io..BufRead$GT$8fill_buf17ha5aa5f5f75078756E",
            "__ZN87_$LT$std..sys..pal..unix..os..Env$u20$as$u20$core..iter..traits..iterator..Iterator$GT$4next17h3d2ab4f3e448541eE",
            "__ZN4core4char7methods16encode_utf16_raw8do_panic7runtime17h3215595df80bdbd1E",
            "__ZN172_$LT$cel_eval..ast.._..$LT$impl$u20$serde..de..Deserialize$u20$for$u20$cel_eval..ast..ASTExecutionContext$GT$..deserialize..__FieldVisitor$u20$as$u20$serde..de..Visitor$GT$9expecting17h64c6096b9b28c02dE",
            "__ZN4core3fmt3num53_$LT$impl$u20$core..fmt..LowerHex$u20$for$u20$i32$GT$3fmt17hc688ebc247a2e873E",
            "__ZN11uniffi_core8metadata14MetadataBuffer12concat_value17h3b6fa1726713251aE",
            "__ZN77_$LT$$u5b$u8$u3b$$u20$25$u5d$$u20$as$u20$nom..traits..FindToken$LT$u8$GT$$GT$10find_token17hda921b9fbf731be0E",
            "__ZN5alloc7raw_vec19RawVec$LT$T$C$A$GT$8grow_one17he8b0b02df8c4e7e9E",
            "__ZN75_$LT$aho_corasick..ahocorasick..AhoCorasick$u20$as$u20$core..fmt..Debug$GT$3fmt17h932b84b4cfd10072E",
            "__ZN66_$LT$core..sync..atomic..AtomicU64$u20$as$u20$core..fmt..Debug$GT$3fmt17hab3d49e9040eb32bE",
            "__ZN71_$LT$bytes..bytes..Bytes$u20$as$u20$core..cmp..PartialEq$LT$str$GT$$GT$2eq17h41d5441e871aed37E",
            "__ZN94_$LT$object..xcoff..SectionHeader64$u20$as$u20$object..read..xcoff..section..SectionHeader$GT$6s_size17ha0162a28f07a3483E",
            "__ZN57_$LT$core..time..Duration$u20$as$u20$core..fmt..Debug$GT$3fmt17hab9954d6467413c3E",
            "__ZN60_$LT$std..io..stdio..StdoutRaw$u20$as$u20$std..io..Write$GT$5flush17h84aaefb11efd48d8E",
            "__ZN79_$LT$serde_json..value..de..SeqDeserializer$u20$as$u20$serde..de..SeqAccess$GT$9size_hint17ha6fb9b4c0dcdf5ebE",
            "__ZN12regex_syntax6escape17hb33d46e7e1d657aaE",
            "__ZN5alloc7raw_vec19RawVec$LT$T$C$A$GT$8grow_one17hec337ecebcd4bd69E",
            "__ZN5alloc7raw_vec19RawVec$LT$T$C$A$GT$8grow_one17h08dba37ae8e0e129E",
            "__ZN12regex_syntax3ast3Ast10repetition17h8f750dd6cd03cf4bE",
            "__ZN6chrono5naive4date9NaiveDate7from_yo17haf36aecefdfaf590E",
            "__ZN81_$LT$$u5b$u8$u3b$$u20$11$u5d$$u20$as$u20$nom..traits..FindToken$LT$$RF$u8$GT$$GT$10find_token17h0a5124d117855ed2E",
            "__ZN5alloc7raw_vec19RawVec$LT$T$C$A$GT$8grow_one17hfdfcd8396baa6d6eE",
            "__ZN77_$LT$std..sys..pal..unix..thread..Thread$u20$as$u20$core..ops..drop..Drop$GT$4drop17h5d2952534f7f4863E",
            "__ZN6anyhow5error122_$LT$impl$u20$core..convert..From$LT$anyhow..Error$GT$$u20$for$u20$alloc..boxed..Box$LT$dyn$u20$core..error..Error$GT$$GT$4from17h434f83670fccfb1cE",
            "__ZN57_$LT$std..io..stdio..Stderr$u20$as$u20$std..io..Write$GT$14write_vectored17hed2a9fd7a825df74E",
            "__ZN117_$LT$core..net..ip_addr..Ipv6Addr$u20$as$u20$core..ops..bit..BitAndAssign$LT$$RF$core..net..ip_addr..Ipv6Addr$GT$$GT$13bitand_assign17h3aa0000af1b6b500E",
            "__ZN6anyhow5error144_$LT$impl$u20$core..convert..AsRef$LT$dyn$u20$core..error..Error$u2b$core..marker..Send$u2b$core..marker..Sync$GT$$u20$for$u20$anyhow..Error$GT$6as_ref17h8461222421a84853E",
            "__ZN3std3net3tcp9TcpStream8shutdown17h698667da619af558E",
            "__ZN4core5slice4sort6stable14driftsort_main17heab36bf8493fd035E",
            "__ZN12aho_corasick4util8alphabet12ByteClassSet9set_range17h4a53575511926601E",
            "__ZN89_$LT$bytes..bytes..Bytes$u20$as$u20$core..cmp..PartialEq$LT$alloc..string..String$GT$$GT$2eq17h04b93cacf5645dceE",
            "__ZN67_$LT$std..sys..pal..unix..stdio..Stdin$u20$as$u20$std..io..Read$GT$8read_buf17hc0fd77ca6e0e1858E",
            "__ZN4core4cell30panic_already_mutably_borrowed17h7437a0ac04a64bb2E",
            "__ZN14regex_automata4meta5regex7Builder5build17h347cce4edbbba0d9E",
            "__ZN6chrono8datetime50DateTime$LT$chrono..offset..fixed..FixedOffset$GT$19parse_and_remainder17hecbdb526c3fc9862E",
            "__ZN3std10sys_common3net11TcpListener4bind17h698a6ed92d6dd0a9E",
            "__ZN4core3fmt9Formatter10debug_list17h39dc97ca4fda3724E",
            "__ZN92_$LT$regex_syntax..hir..ClassBytesIter$u20$as$u20$core..iter..traits..iterator..Iterator$GT$4next17hbd0287db45faf88eE",
            "__ZN3std2fs4File11lock_shared17he173a9eb0beca8bdE",
            "__ZN62_$LT$serde..de..value..Error$u20$as$u20$core..fmt..Display$GT$3fmt17h0ecb702b89e5215bE",
            "__ZN5alloc6string6String14into_raw_parts17h6c35191ec921e4e3E",
            "__ZN6chrono5naive8datetime13NaiveDateTime22overflowing_add_offset17he3b4aedbbc1baf39E",
            "__ZN3std10sys_common2fs6exists17h126dd53f6babc1faE",
            "__ZN3std2os4unix3net8datagram12UnixDatagram4peek17h8d2f4424b8cc59e9E",
            "__ZN161_$LT$cel_eval..ast.._..$LT$impl$u20$serde..de..Deserialize$u20$for$u20$cel_eval..ast..JSONAtom$GT$..deserialize..__FieldVisitor$u20$as$u20$serde..de..Visitor$GT$9expecting17h52255ce509af7b91E",
            "__ZN4core3num6bignum8Big32x4010mul_digits17h0e613f6e46327197E",
            "__ZN222_$LT$$LT$cel_eval..ast.._..$LT$impl$u20$serde..de..Deserialize$u20$for$u20$cel_eval..ast..JSONExpression$GT$..deserialize..__Visitor$u20$as$u20$serde..de..Visitor$GT$..visit_map..__Visitor$u20$as$u20$serde..de..Visitor$GT$9expecting17h867b5c658107d0b9E",
            "__ZN4core3fmt3num51_$LT$impl$u20$core..fmt..Binary$u20$for$u20$i64$GT$3fmt17hcbd2bcb675ee367fE",
            "__ZN14regex_automata3nfa8thompson7builder7Builder17add_capture_start17hc697c06a9fd6bc2bE",
            "__ZN14regex_automata3nfa8thompson9backtrack6Config9prefilter17hc82f46d9feb0648fE",
            "__ZN4core3fmt3num3imp55_$LT$impl$u20$core..fmt..LowerExp$u20$for$u20$usize$GT$3fmt17h7969e947c75dc27fE",
            "__ZN96_$LT$std..panicking..rust_panic_without_hook..RewrapBox$u20$as$u20$core..panic..PanicPayload$GT$8take_box17h936230cb399b1cecE",
            "__ZN65_$LT$serde_json..number..Number$u20$as$u20$core..fmt..Display$GT$3fmt17h95a2b09d6ba3bf07E",
            "__ZN14regex_automata4util8captures8Captures7matches17heb0bc199f39a1af4E",
            "__ZN55_$LT$std..pipe..PipeReader$u20$as$u20$std..io..Read$GT$11read_to_end17hea81c58251ea3e16E",
            "__ZN3std7process15ExitStatusError4code17hb7a17f2148f277b2E",
            "__ZN4core3fmt3num53_$LT$impl$u20$core..fmt..LowerHex$u20$for$u20$i16$GT$3fmt17h680694dc69b11846E",
            "__ZN82_$LT$std..sys..pal..unix..fs..cfm..CachedFileMetadata$u20$as$u20$std..io..Read$GT$8read_buf17ha936803e923c4fc6E",
            "__ZN6chrono6format8strftime13StrftimeItems14parse_to_owned17hbeeaaea0dd046ab0E",
            "__ZN91_$LT$std..sys..pal..unix..process..process_common..ExitCode$u20$as$u20$core..fmt..Debug$GT$3fmt17h057af839d75de824E",
            "__ZN10cel_parser6parser19__parse__FieldInits16FieldInitsParser5parse17hd8bb936be25ccaabE",
            "__ZN5alloc7raw_vec19RawVec$LT$T$C$A$GT$8grow_one17h702d31a63b94e507E",
            "__ZN5alloc7raw_vec19RawVec$LT$T$C$A$GT$8grow_one17h378430cab3225d32E",
            "__ZN14regex_automata6hybrid5regex7Builder3new17h16db527bf7b9a728E",
            "__ZN60_$LT$std..ffi..os_str..OsStr$u20$as$u20$core..fmt..Debug$GT$3fmt17h9ab70a707dcc3593E",
            "__ZN47_$LT$$RF$str$u20$as$u20$serde..de..Expected$GT$3fmt17ha5a6ded50dab663eE",
            "__ZN4core3str21_$LT$impl$u20$str$GT$12substr_range17h1f08618f8c8d88e2E",
            "__ZN83_$LT$aho_corasick..util..prefilter..RareByteOffsets$u20$as$u20$core..fmt..Debug$GT$3fmt17h931546c0af677e53E",
            "__ZN83_$LT$serde_json..value..ser..MapKeySerializer$u20$as$u20$serde..ser..Serializer$GT$13serialize_i3217h795582b584becef1E",
            "__ZN6object4read2pe10relocation23RelocationBlockIterator4next17hacf3006f6af23a64E",
            "__ZN12aho_corasick3nfa13noncontiguous3NFA10iter_trans17h5505c22769be044cE",
            "__ZN62_$LT$std..process..ChildStdout$u20$as$u20$core..fmt..Debug$GT$3fmt17h416925aa8468be13E",
            "__ZN61_$LT$$RF$std..io..stdio..Stdout$u20$as$u20$std..io..Write$GT$5write17h57aca950d96d0bfdE",
            "__ZN84_$LT$serde_json..value..ser..SerializeMap$u20$as$u20$serde..ser..SerializeStruct$GT$3end17hc013e4703393eaf0E",
            "__ZN5bytes9bytes_mut15shared_v_to_vec17h3cec50da42b01279E",
            "__ZN61_$LT$regex_syntax..ast..Ast$u20$as$u20$core..fmt..Display$GT$3fmt17he52a51154e9b136bE",
            "__ZN77_$LT$$u5b$u8$u3b$$u20$31$u5d$$u20$as$u20$nom..traits..FindToken$LT$u8$GT$$GT$10find_token17h7a02cf3760ab85a0E",
            "__ZN101_$LT$chrono..naive..date..NaiveDateDaysIterator$u20$as$u20$core..iter..traits..iterator..Iterator$GT$9size_hint17h93c86bcda8074590E",
            "__ZN55_$LT$std..io..stdio..Stdin$u20$as$u20$std..io..Read$GT$4read17h21d7d8e88bf81e40E",
            "__ZN70_$LT$std..sys..sync..once..queue..Once$u20$as$u20$core..fmt..Debug$GT$3fmt17hee33db6c1ad14ba7E",
            "__ZN3std3net3tcp9TcpStream4peek17h695e3400dfad3d3eE",
            "__ZN15cel_interpreter5magic117_$LT$impl$u20$core..convert..From$LT$$RF$cel_interpreter..magic..Identifier$GT$$u20$for$u20$alloc..string..String$GT$4from17hacd0980e4abffd3cE",
            "__ZN4core3fmt3num52_$LT$impl$u20$core..fmt..LowerHex$u20$for$u20$u8$GT$3fmt17he6bcf6709178278aE",
            "__ZN5alloc11collections5btree4node119NodeRef$LT$alloc..collections..btree..node..marker..Mut$C$K$C$V$C$alloc..collections..btree..node..marker..Internal$GT$30correct_childrens_parent_links17h8508e57857d4753fE",
            "__ZN6object4read2pe6import20DelayLoadImportTable4name17h05bc6e8ae8fbec06E",
            "__ZN3std3sys9backtrace4lock17h98d1838d4319b926E",
            "__ZN79_$LT$object..xcoff..Symbol64$u20$as$u20$object..read..xcoff..symbol..Symbol$GT$7n_scnum17h0f14734e21a35f8fE",
            "__ZN228_$LT$$LT$serde..de..impls..$LT$impl$u20$serde..de..Deserialize$u20$for$u20$core..net..ip_addr..IpAddr$GT$..deserialize..IpAddrKind$u20$as$u20$serde..de..Deserialize$GT$..deserialize..KindVisitor$u20$as$u20$serde..de..Visitor$GT$9expecting17h82a61a9145e0176aE",
            "__ZN3log15set_logger_racy17hff6cf9fabae90699E",
            "__ZN14regex_automata4util8captures8Captures17interpolate_bytes17h2d09a7f07118ce95E",
            "__ZN68_$LT$serde_json..read..StrRead$u20$as$u20$serde_json..read..Read$GT$13parse_str_raw17hc945a679f70dbdbdE",
            "__ZN77_$LT$$u5b$u8$u3b$$u20$27$u5d$$u20$as$u20$nom..traits..FindToken$LT$u8$GT$$GT$10find_token17hf5215877add5173aE",
            "__ZN112_$LT$cel_interpreter..objects..Value$u20$as$u20$core..convert..From$LT$$RF$cel_interpreter..objects..Key$GT$$GT$4from17hcec196b4c5ecd86eE",
            "__ZN83_$LT$object..xcoff..CsectAux64$u20$as$u20$object..read..xcoff..symbol..CsectAux$GT$10x_parmhash17h1590985e68a22a77E",
            "__ZN83_$LT$object..xcoff..CsectAux32$u20$as$u20$object..read..xcoff..symbol..CsectAux$GT$6x_stab17h9bb1e0c800bcf01fE",
            "__ZN14regex_automata3nfa8thompson9backtrack18BoundedBacktracker20try_search_slots_imp17h624bfe608b8bc58eE",
            "__ZN78_$LT$regex_automata..meta..error..RetryError$u20$as$u20$core..fmt..Display$GT$3fmt17h9eb7a5876f11c7e4E",
            "__ZN76_$LT$std..process..Command$u20$as$u20$std..os..unix..process..CommandExt$GT$4exec17hd786f80378d61ca7E",
            "__ZN77_$LT$$u5b$u8$u3b$$u20$32$u5d$$u20$as$u20$nom..traits..FindToken$LT$u8$GT$$GT$10find_token17h7ec747e2c875358aE",
            "__ZN62_$LT$gimli..constants..DwAte$u20$as$u20$core..fmt..Display$GT$3fmt17h09ddfd9d74ddb605E",
            "__ZN84_$LT$std..process..CommandArgs$u20$as$u20$core..iter..traits..iterator..Iterator$GT$4next17hf91ffbab6e9b73d9E",
            "__ZN12aho_corasick4util6buffer6Buffer3new17h175376c78280f7c8E",
            "__ZN3std2fs8Metadata7created17hd7a35d7eceeb92aeE",
            "__ZN5bytes5bytes5Bytes12try_into_mut17h0ac4d08d5097eb72E",
            "__ZN55_$LT$std..io..stdio..Stdin$u20$as$u20$std..io..Read$GT$8read_buf17h153e6292cf75fbf3E",
            "__ZN78_$LT$core..error..Source$u20$as$u20$core..iter..traits..iterator..Iterator$GT$4next17h568a6badf5d866ddE",
            "__ZN3std6thread6Thread4park17hd3c05ec6a89e5aa5E",
            "__ZN77_$LT$$u5b$u8$u3b$$u20$20$u5d$$u20$as$u20$nom..traits..FindToken$LT$u8$GT$$GT$10find_token17h7d2c9ff89488d03bE",
            "__ZN4core3fmt3num52_$LT$impl$u20$core..fmt..Binary$u20$for$u20$i128$GT$3fmt17h439bad063bf363d1E",
            "__ZN98_$LT$alloc..string..String$u20$as$u20$core..convert..From$LT$alloc..borrow..Cow$LT$str$GT$$GT$$GT$4from17hb981381000b580ceE",
            "__ZN81_$LT$$u5b$u8$u3b$$u20$14$u5d$$u20$as$u20$nom..traits..FindToken$LT$$RF$u8$GT$$GT$10find_token17h5c4bfab088e53465E",
            "__ZN3std2io5error5Error3new17hc24b5b772dd466a5E",
            "__ZN12aho_corasick4util10primitives7StateID4iter17h9f647bba9aebe37bE",
            "__ZN135_$LT$$LT$serde_json..number..Number$u20$as$u20$serde..de..Deserialize$GT$..deserialize..NumberVisitor$u20$as$u20$serde..de..Visitor$GT$9expecting17hee690ab26fa2cc79E",
            "__ZN63_$LT$regex_syntax..hir..LookSet$u20$as$u20$core..fmt..Debug$GT$3fmt17h4e54c534ec23698aE",
            "__ZN14regex_automata3nfa8thompson7builder7Builder9add_match17h7d13e6604792aeb5E",
            "__ZN3std3net3udp9UdpSocket9try_clone17h25204cdb256b78a4E",
            "__ZN4core5slice5index16into_slice_range17h3606a1ec34cddc90E",
            "__ZN5regex8builders5bytes12RegexBuilder15line_terminator17hf11db4ae0d551749E",
            "__ZN64_$LT$regex_syntax..ast..Position$u20$as$u20$core..fmt..Debug$GT$3fmt17he67db81825bc6d75E",
            "__ZN5alloc7raw_vec19RawVec$LT$T$C$A$GT$8grow_one17h1c24adb638d9fd30E",
            "__ZN73_$LT$core..net..socket_addr..SocketAddr$u20$as$u20$core..fmt..Display$GT$3fmt17hd04083e6d012670dE",
            "__ZN116_$LT$std..sys..pal..unix..process..process_common..CommandArgs$u20$as$u20$core..iter..traits..iterator..Iterator$GT$9size_hint17h60f833e83d790f54E",
            "__ZN83_$LT$serde_json..value..ser..MapKeySerializer$u20$as$u20$serde..ser..Serializer$GT$13serialize_u3217h8fa71638e55f6aefE",
            "__ZN69_$LT$chrono..naive..time..NaiveTime$u20$as$u20$core..fmt..Display$GT$3fmt17h22d2f38bf638f6bdE",
            "__ZN3std3sys3pal4unix2fd8FileDesc8write_at17h287513c324a22d2dE",
            "__ZN87_$LT$std..backtrace_rs..backtrace..libunwind..Bomb$u20$as$u20$core..ops..drop..Drop$GT$4drop17hb2061b3eb30c1c04E",
            "__ZN59_$LT$char$u20$as$u20$regex_syntax..hir..interval..Bound$GT$9decrement17h486da8d470002cd0E",
            "__ZN104_$LT$regex_automata..util..alphabet..ByteClassIter$u20$as$u20$core..iter..traits..iterator..Iterator$GT$4next17h95791a8b3620fa99E",
            "__ZN5serde3ser3fmt85_$LT$impl$u20$serde..ser..Serializer$u20$for$u20$$RF$mut$u20$core..fmt..Formatter$GT$21serialize_unit_struct17h19bd4675b104a4b7E",
            "__ZN4core3fmt3num50_$LT$impl$u20$core..fmt..Binary$u20$for$u20$i8$GT$3fmt17hd49f5de0536fc2c4E",
            "__ZN6object4read2pe6export11ExportTable9name_iter17h013ec03a8139501fE",
            "__ZN3std3sys3pal4unix6thread6Thread8set_name17h20f6d53730349219E",
            "__ZN64_$LT$std..io..error..ErrorKind$u20$as$u20$core..fmt..Display$GT$3fmt17h78b495eecd89ce9cE",
            "__ZN4core3num7flt2dec8strategy5grisu15format_shortest17h511f72e16d199303E",
            "__ZN5bytes5bytes99_$LT$impl$u20$core..cmp..PartialEq$LT$bytes..bytes..Bytes$GT$$u20$for$u20$alloc..string..String$GT$2eq17hafb22edb5c3a2f90E",
            "__ZN104_$LT$bytes..bytes..Bytes$u20$as$u20$core..convert..From$LT$alloc..boxed..Box$LT$$u5b$u8$u5d$$GT$$GT$$GT$4from17h74d61c45f3e5c3a6E",
            "__ZN72_$LT$std..os..unix..net..stream..UnixStream$u20$as$u20$std..io..Read$GT$4read17h5d79ef2fc581acd9E",
            "__ZN83_$LT$serde_json..value..ser..MapKeySerializer$u20$as$u20$serde..ser..Serializer$GT$24serialize_struct_variant17he37ea88054c33a9eE",
            "__ZN5alloc7raw_vec19RawVec$LT$T$C$A$GT$8grow_one17hf2167db42f904ceeE",
            "__ZN6chrono6format6parsed6Parsed11to_datetime17h04658767d861ec38E",
            "__ZN61_$LT$cel_parser..ParseError$u20$as$u20$core..fmt..Display$GT$3fmt17h74896479b26ba37cE",
            "__ZN91_$LT$std..sys_common..wstr..WStrUnits$u20$as$u20$core..iter..traits..iterator..Iterator$GT$4next17h39e5abd7507d043bE",
            "__ZN57_$LT$u8$u20$as$u20$regex_syntax..hir..interval..Bound$GT$9increment17hc814eca7dc158c50E",
            "__ZN4core7unicode12unicode_data1n6lookup17h7a1736d1e9d3befcE",
            "__ZN3std5panic19get_backtrace_style17h0769e0e7e4fd100bE",
            "__ZN66_$LT$std..sync..poison..once..Once$u20$as$u20$core..fmt..Debug$GT$3fmt17h9b9a61f194ced630E",
            "__ZN82_$LT$std..sys..pal..unix..fs..cfm..CachedFileMetadata$u20$as$u20$std..io..Read$GT$11read_to_end17hb27337439ac339bbE",
            "__ZN4core5slice4sort6stable14driftsort_main17h4cd05870244cb543E",
            "__ZN60_$LT$std..io..stdio..StdoutRaw$u20$as$u20$std..io..Write$GT$18write_all_vectored17h949e214bd57a48baE",
            "__ZN6object4read2pe6export11ExportTable15parse_directory17hf1f0a0c927f17809E",
            "__ZN12regex_syntax3ast3Ast7literal17h3fefbbeb27825332E",
            "__ZN4core9panicking11panic_const23panic_const_rem_by_zero17h4e61e59784352a5eE",
            "__ZN60_$LT$std..io..stdio..StderrRaw$u20$as$u20$std..io..Write$GT$5flush17h0afa352bcc30395dE",
            "__ZN80_$LT$alloc..vec..Vec$LT$u8$GT$$u20$as$u20$core..convert..From$LT$$RF$str$GT$$GT$4from17hdfa6c425a5f34dccE",
            "__ZN4core3fmt3num55_$LT$impl$u20$core..fmt..UpperHex$u20$for$u20$isize$GT$3fmt17h6c96231b8fb1ded5E",
            "__ZN64_$LT$regex_syntax..hir..Hir$u20$as$u20$core..ops..drop..Drop$GT$4drop17h471652ee689398c8E",
            "__ZN62_$LT$$RF$std..net..tcp..TcpStream$u20$as$u20$std..io..Read$GT$4read17hbc2f5497ca825d5fE",
            "__ZN4core3fmt3num50_$LT$impl$u20$core..fmt..Octal$u20$for$u20$u64$GT$3fmt17h92eab5c1f357e3cfE",
            "__ZN5alloc7raw_vec19RawVec$LT$T$C$A$GT$8grow_one17hf45cc45453bd3995E",
            "__ZN119_$LT$cel_parser..parser..__parse__MapInits..__StateMachine$u20$as$u20$lalrpop_util..state_machine..ParserDefinition$GT$15expected_tokens17h4e046b113d145b49E",
            "__ZN12aho_corasick6packed3api8Searcher12find_in_slow17h88926208a6262ae8E",
            "__ZN4core3net6parser83_$LT$impl$u20$core..str..traits..FromStr$u20$for$u20$core..net..ip_addr..IpAddr$GT$8from_str17h56431b4b247b44aeE",
            "__ZN14regex_automata3nfa8thompson8compiler8Compiler9add_match17h8e4ae943d727f3d4E",
            "__ZN80_$LT$$u5b$u8$u3b$$u20$7$u5d$$u20$as$u20$nom..traits..FindToken$LT$$RF$u8$GT$$GT$10find_token17h090e882a8658a6d5E",
            "__ZN61_$LT$gimli..constants..DwOp$u20$as$u20$core..fmt..Display$GT$3fmt17h0b503ffcc2fbf2e7E",
            "__ZN11uniffi_core3ffi12foreignbytes12ForeignBytes8as_slice17h9ff7fca59710f9d2E",
            "__ZN6object4read13RelocationMap8relocate17h008207dd52beb495E",
            "__ZN78_$LT$object..macho..FatArch64$u20$as$u20$object..read..macho..fat..FatArch$GT$7cputype17h29cfe18036fe9e82E",
            "__ZN3std3sys3pal4unix4sync5mutex5Mutex4init17hb7381a3d892af098E",
            "__ZN73_$LT$alloc..string..String$u20$as$u20$serde_json..value..index..Index$GT$14index_into_mut17had634a20b594c1feE",
            "__ZN7parking6Parker13park_deadline17hce86b8af69e04480E",
            "__ZN3std4path18compare_components17h88e92232ae3ce898E",
            "__ZN5alloc7raw_vec19RawVec$LT$T$C$A$GT$8grow_one17h59a441a24a05c6dcE",
            "__ZN3std3env11current_exe17h814913a3d2f6fc0eE",
            "__ZN78_$LT$object..macho..FatArch64$u20$as$u20$object..read..macho..fat..FatArch$GT$6offset17h29b6e3aef7f6699dE",
            "__ZN5alloc6string6String10from_utf1617he70e7b1e0a0e72e9E",
            "__ZN6memchr4arch3all6twoway5Shift7forward17h730797b2c948ee81E",
            "__ZN14regex_automata3nfa8thompson3nfa3NFA8compiler17h6ac11965ab54b9fcE",
            "__ZN15cel_interpreter9functions6string17h48cf8efe672a835fE",
            "__ZN11uniffi_core8metadata14MetadataBuffer10concat_str17h6f084375ae5670cfE",
            "__ZN12regex_syntax3hir10ClassBytes16to_unicode_class17h6886f649dc04a9c2E",
            "__ZN83_$LT$object..xcoff..AuxHeader32$u20$as$u20$object..read..xcoff..file..AuxHeader$GT$7o_entry17hf278986100ea102aE",
            "__ZN5alloc3ffi5c_str131_$LT$impl$u20$core..convert..From$LT$$RF$core..ffi..c_str..CStr$GT$$u20$for$u20$alloc..boxed..Box$LT$core..ffi..c_str..CStr$GT$$GT$4from17h38fccaf318dbb01dE",
            "__ZN4core3num7flt2dec8strategy5grisu12format_exact17h9064b9400a285dbaE",
            "__ZN81_$LT$cel_interpreter..ser..SerializeVec$u20$as$u20$serde..ser..SerializeTuple$GT$3end17he0b161f6416cd497E",
            "__ZN99_$LT$std..panicking..begin_panic_handler..StaticStrPayload$u20$as$u20$core..panic..PanicPayload$GT$8take_box17hadf5d24d590d4951E",
            "__ZN11uniffi_core8metadata17checksum_metadata17h26f5d97c17665095E",
            "__ZN4core3fmt9Formatter26debug_struct_field3_finish17h95e3a98a07632d44E",
            "__ZN71_$LT$memchr..memmem..searcher..Searcher$u20$as$u20$core..fmt..Debug$GT$3fmt17hd1a11206a5238831E",
            "__ZN5bytes5bytes5Bytes8split_to17hcd7e89bb2e5ec852E",
            "__ZN78_$LT$cel_interpreter..ser..KeySerializer$u20$as$u20$serde..ser..Serializer$GT$16serialize_struct17h392ba159b995f268E",
            "__ZN5alloc5boxed16Box$LT$T$C$A$GT$17try_new_uninit_in17h7632b2152ded358bE",
            "__ZN62_$LT$regex_syntax..debug..Byte$u20$as$u20$core..fmt..Debug$GT$3fmt17h0b07385100e28c99E",
            "__ZN184_$LT$serde..de..impls..$LT$impl$u20$serde..de..Deserialize$u20$for$u20$core..num..saturating..Saturating$LT$u8$GT$$GT$..deserialize..SaturatingVisitor$u20$as$u20$serde..de..Visitor$GT$9expecting17heae143d8cb48874aE",
            "__ZN87_$LT$chrono..naive..datetime..NaiveDateTime$u20$as$u20$chrono..round..DurationRound$GT$14duration_round17h551e443d2b54c431E",
            "__ZN98_$LT$uniffi_core..metadata..MetadataBuffer$u20$as$u20$core..convert..AsRef$LT$$u5b$u8$u5d$$GT$$GT$6as_ref17ha71ec906e407b429E",
            "__ZN86_$LT$aho_corasick..util..primitives..SmallIndexError$u20$as$u20$core..fmt..Display$GT$3fmt17ha5f0533fe82aa667E",
            "__ZN78_$LT$cel_interpreter..ser..KeySerializer$u20$as$u20$serde..ser..Serializer$GT$13serialize_f3217h97187c37f50e664cE",
            "__ZN86_$LT$cel_interpreter..objects..Value$u20$as$u20$core..convert..From$LT$$RF$str$GT$$GT$4from17hcd9cd9b65347fc6dE",
            "__ZN3std6thread9spawnhook15ChildSpawnHooks3run17h3b3c71cb24b228c8E",
            "__ZN6object4read3elf10relocation18RelocationSections3get17h52ffbc66a04c16f1E",
            "__ZN75_$LT$cel_interpreter..ser..Serializer$u20$as$u20$serde..ser..Serializer$GT$13serialize_str17h1c73e0adb9f2b2daE",
            "__ZN12regex_syntax3hir7literal3Seq14cross_preamble17h340feef8341472acE",
            "__ZN83_$LT$object..xcoff..AuxHeader64$u20$as$u20$object..read..xcoff..file..AuxHeader$GT$9o_maxdata17hf6c220bb0a5fb55eE",
            "__ZN14regex_automata4meta5regex5Regex15create_captures17hdc02bb02abb43c2dE",
            "__ZN4core5slice4sort6stable9quicksort9quicksort17h676af6ddc1e0a7f6E",
            "__ZN97_$LT$regex_syntax..hir..translate..TranslatorI$u20$as$u20$regex_syntax..ast..visitor..Visitor$GT$30visit_class_set_binary_op_post17h7d919099c72ca1e0E",
            "__ZN59_$LT$$RF$std..pipe..PipeReader$u20$as$u20$std..io..Read$GT$8read_buf17h9277eb3465767757E",
            "__ZN5alloc11collections5btree4node13move_to_slice17haa96acd3da96e0c7E",
            "__ZN58_$LT$std..net..tcp..TcpStream$u20$as$u20$std..io..Read$GT$13read_vectored17h361792fe283e01e1E",
            "__ZN6object3elf8gnu_hash17h2f16388a1016c32dE",
            "__ZN59_$LT$char$u20$as$u20$regex_syntax..hir..interval..Bound$GT$9increment17h2aa7306c886f881dE",
            "__ZN5alloc7raw_vec19RawVec$LT$T$C$A$GT$8grow_one17h9a824b4441e0671cE",
            "__ZN6chrono6format4scan14colon_or_space17heb02ed9f131b710fE",
            "__ZN15cel_interpreter9functions3all17h59385b4aa511aeabE",
            "__ZN4core10intrinsics3mir8TailCall19panic_cold_explicit17hbcafadb3118a35eeE",
            "__ZN65_$LT$core..cell..BorrowMutError$u20$as$u20$core..fmt..Display$GT$3fmt17h15ea801c90747e50E",
            "__ZN51_$LT$std..env..Vars$u20$as$u20$core..fmt..Debug$GT$3fmt17h94d8d054bbf83c82E",
            "__ZN97_$LT$core..char..ToLowercase$u20$as$u20$core..iter..traits..double_ended..DoubleEndedIterator$GT$9next_back17h3f437f6cf67145fdE",
            "__ZN5gimli4arch9PowerPc6416name_to_register17h3e4bb00f2692ece7E",
            "__ZN185_$LT$serde..de..impls..$LT$impl$u20$serde..de..Deserialize$u20$for$u20$core..num..saturating..Saturating$LT$u32$GT$$GT$..deserialize..SaturatingVisitor$u20$as$u20$serde..de..Visitor$GT$9expecting17hbc55c3107cef64abE",
            "__ZN14regex_automata6hybrid3dfa5Cache3new17hb613ee74b32ea828E",
            "__ZN3std3net3udp9UdpSocket18leave_multicast_v417h53eca2c7a75b35cbE",
            "__ZN3std2fs11OpenOptions5_open17h2bfa97869494fa99E",
            "__ZN93_$LT$regex_automata..meta..regex..Split$u20$as$u20$core..iter..traits..iterator..Iterator$GT$4next17h1e68560872ca7d28E",
            "__ZN59_$LT$$RF$std..io..stdio..Stdin$u20$as$u20$std..io..Read$GT$14read_buf_exact17h4814c4784c3e11eeE",
            "__ZN3std2io5error5Error3new17h1447ae2972cf0000E",
            "__ZN14regex_automata3nfa8thompson6pikevm6PikeVM12new_from_nfa17h879a83fedbf2e900E",
            "__ZN43_$LT$char$u20$as$u20$core..fmt..Display$GT$3fmt17hfd857e04bb7c4e9aE",
            "__ZN5alloc4sync16Arc$LT$T$C$A$GT$9drop_slow17hf5e7f3aba846f55aE",
            "__ZN66_$LT$regex_syntax..utf8..Utf8Range$u20$as$u20$core..fmt..Debug$GT$3fmt17h67ab9be017ef07bfE",
            "__ZN4core3ffi5c_str4CStr19from_bytes_with_nul17h73965de4c122f7e1E",
            "__ZN5alloc7raw_vec19RawVec$LT$T$C$A$GT$8grow_one17h13fa69bb2841a6f5E",
            "__ZN6memchr6memmem8searcher21searcher_kind_two_way17h0cb25bb78dfd0847E",
            "__ZN75_$LT$std..env..VarsOs$u20$as$u20$core..iter..traits..iterator..Iterator$GT$9size_hint17h788fd6f74e0145b6E",
            "__ZN77_$LT$$u5b$u8$u3b$$u20$22$u5d$$u20$as$u20$nom..traits..FindToken$LT$u8$GT$$GT$10find_token17h8009125e695dca37E",
            "__ZN84_$LT$core..panicking..assert_matches_failed..Pattern$u20$as$u20$core..fmt..Debug$GT$3fmt17h5dc95ddb2f1e7f21E",
            "__ZN5alloc7raw_vec19RawVec$LT$T$C$A$GT$8grow_one17hf569acf7d3fcb58dE",
            "__ZN93_$LT$bytes..bytes..Bytes$u20$as$u20$core..cmp..PartialEq$LT$alloc..vec..Vec$LT$u8$GT$$GT$$GT$2eq17h71b67862be879114E",
            "__ZN5alloc11collections5btree4node210Handle$LT$alloc..collections..btree..node..NodeRef$LT$alloc..collections..btree..node..marker..Mut$C$K$C$V$C$alloc..collections..btree..node..marker..Leaf$GT$$C$alloc..collections..btree..node..marker..Edge$GT$6insert17hcb5e2449ffe33e37E",
            "__ZN77_$LT$$u5b$u8$u3b$$u20$24$u5d$$u20$as$u20$nom..traits..FindToken$LT$u8$GT$$GT$10find_token17h617acbdb97b76c82E",
            "__ZN107_$LT$futures_lite..io..Cursor$LT$$RF$mut$u20$$u5b$u8$u5d$$GT$$u20$as$u20$futures_io..if_std..AsyncWrite$GT$10poll_write17h945f70c6c8bf0ef4E",
            "__ZN86_$LT$regex_automata..util..alphabet..ByteClasses$u20$as$u20$core..default..Default$GT$7default17h2b7ac6b1f256039fE",
            "__ZN5alloc7raw_vec19RawVec$LT$T$C$A$GT$8grow_one17h435f61aef6a2a09aE",
            "__ZN63_$LT$std..net..tcp..TcpListener$u20$as$u20$core..fmt..Debug$GT$3fmt17ha2492c065259c1e9E",
            "__ZN5alloc6string6String18from_utf16be_lossy17h1b8d1e4910fe1edeE",
            "__ZN3std3env4args17h0ea6d01ee6eb7a11E",
            "__ZN4core3fmt3num53_$LT$impl$u20$core..fmt..UpperHex$u20$for$u20$u64$GT$3fmt17h58220ca1fff425d9E",
            "__ZN69_$LT$core..str..iter..EscapeUnicode$u20$as$u20$core..fmt..Display$GT$3fmt17h6e0c007ff2f44372E",
            "__ZN78_$LT$std..sys..pal..unix..os..JoinPathsError$u20$as$u20$core..fmt..Display$GT$3fmt17h5075ad1562f849b7E",
            "__ZN60_$LT$std..io..error..Error$u20$as$u20$core..fmt..Display$GT$3fmt17h97e6acc0b74d58c2E",
            "__ZN79_$LT$regex_automata..dfa..onepass..BuildError$u20$as$u20$core..fmt..Display$GT$3fmt17h0e7a2cf13ce004d4E",
            "__ZN89_$LT$$RF$mut$u20$$u5b$u8$u5d$$u20$as$u20$alloc..ffi..c_str..CString..new..SpecNewImpl$GT$13spec_new_impl17h23731e0a5abfc115E",
            "__ZN4core10intrinsics3mir6Assume19panic_cold_explicit17hfb87afd527f10d5dE",
            "__ZN83_$LT$aho_corasick..util..primitives..StateIDError$u20$as$u20$core..fmt..Display$GT$3fmt17hcd28d066b02d74ffE",
            "__ZN97_$LT$regex_automata..meta..strategy..Core$u20$as$u20$regex_automata..meta..strategy..Strategy$GT$14is_accelerated17h0efc1cf7501e996bE",
            "__ZN5alloc4sync16Arc$LT$T$C$A$GT$9drop_slow17hb13cf055f4f3be2cE",
            "__ZN3std2os4unix3net8datagram12UnixDatagram12read_timeout17h3bab042083c585adE",
            "__ZN5alloc7raw_vec19RawVec$LT$T$C$A$GT$8grow_one17h37feb6268771691bE",
            "__ZN5serde3ser3fmt85_$LT$impl$u20$serde..ser..Serializer$u20$for$u20$$RF$mut$u20$core..fmt..Formatter$GT$13serialize_f6417h50e4c03ca169d727E",
            "__ZN73_$LT$std..os..unix..net..stream..UnixStream$u20$as$u20$std..io..Write$GT$14write_vectored17hbd482bb030639f4bE",
            "__ZN3std3sys3pal4unix2fs8readlink17hbc337b46aea77f53E",
            "__ZN6anyhow5error31_$LT$impl$u20$anyhow..Error$GT$5chain17h065a5bb591e1b20fE",
            "__ZN3std3sys4sync6rwlock5queue6RwLock14downgrade_slow17h26424c2d921cb51aE",
            "__ZN5alloc7raw_vec19RawVec$LT$T$C$A$GT$8grow_one17h92746be159acb9daE",
            "__ZN59_$LT$aho_corasick..dfa..DFA$u20$as$u20$core..fmt..Debug$GT$3fmt17h0e7419fdb8a0dbd2E",
            "__ZN85_$LT$aho_corasick..util..primitives..PatternIDError$u20$as$u20$core..fmt..Display$GT$3fmt17hed8c3280103dee2cE",
            "__ZN85_$LT$regex_automata..util..wire..BE$u20$as$u20$regex_automata..util..wire..Endian$GT$10write_u12817h510551307783f6bfE",
            "__ZN5alloc7raw_vec19RawVec$LT$T$C$A$GT$8grow_one17h545d13e3d09cf988E",
            "__ZN185_$LT$serde..de..impls..$LT$impl$u20$serde..de..Deserialize$u20$for$u20$core..num..saturating..Saturating$LT$i64$GT$$GT$..deserialize..SaturatingVisitor$u20$as$u20$serde..de..Visitor$GT$9expecting17h1afa5e1970d44ae2E",
            "__ZN78_$LT$cel_interpreter..ser..KeySerializer$u20$as$u20$serde..ser..Serializer$GT$22serialize_tuple_struct17h66801df7fd60829fE",
            "__ZN6object4read2pe14data_directory48_$LT$impl$u20$object..pe..ImageDataDirectory$GT$10file_range17h59ea23e2f02766dcE",
            "__ZN3std9panicking11panic_count8decrease17h6f8aa98c7f89d8a5E",
            "__ZN3std3net3udp9UdpSocket4peek17ha324234f569f9cadE",
            "__ZN85_$LT$core..num..nonzero..NonZero$LT$i64$GT$$u20$as$u20$core..str..traits..FromStr$GT$8from_str17hd282d596a6f62eb7E",
            "__ZN14rustc_demangle8demangle17hfca2ce0d948f8c5aE",
            "__ZN5bytes5bytes91_$LT$impl$u20$core..cmp..PartialOrd$LT$bytes..bytes..Bytes$GT$$u20$for$u20$$u5b$u8$u5d$$GT$11partial_cmp17hac344526cbfe57fcE",
            "__ZN218_$LT$$LT$serde..de..impls..$LT$impl$u20$serde..de..Deserialize$u20$for$u20$core..time..Duration$GT$..deserialize..Field$u20$as$u20$serde..de..Deserialize$GT$..deserialize..FieldVisitor$u20$as$u20$serde..de..Visitor$GT$9expecting17h7af80c19b0244f28E",
            "__ZN5bytes5bytes94_$LT$impl$u20$core..cmp..PartialEq$LT$bytes..bytes..Bytes$GT$$u20$for$u20$$RF$$u5b$u8$u5d$$GT$2eq17h76c0b2ed698fa5b2E",
            "__ZN74_$LT$std..sys_common..wtf8..Wtf8Buf$u20$as$u20$core..ops..deref..Deref$GT$5deref17hfec771aa6017b7b8E",
            "__ZN60_$LT$bool$u20$as$u20$cel_interpreter..magic..FromContext$GT$12from_context17h7104b8c15ad2c07fE",
            "__ZN97_$LT$regex_syntax..hir..translate..TranslatorI$u20$as$u20$regex_syntax..ast..visitor..Visitor$GT$25visit_class_set_item_post17h8345bb73408395bdE",
            "__ZN83_$LT$std..sys..sync..rwlock..queue..PanicGuard$u20$as$u20$core..ops..drop..Drop$GT$4drop17h9b0cbb057917cee0E",
            "__ZN86_$LT$regex..regex..bytes..Captures$u20$as$u20$core..ops..index..Index$LT$usize$GT$$GT$5index17h88a16326fc029eb0E",
            "__ZN77_$LT$$u5b$u8$u3b$$u20$16$u5d$$u20$as$u20$nom..traits..FindToken$LT$u8$GT$$GT$10find_token17h26440f597fc9a081E",
            "__ZN5alloc3ffi5c_str7CString27from_vec_with_nul_unchecked17h3546f1ab724d3056E",
            "__ZN59_$LT$std..io..stdio..StdinLock$u20$as$u20$std..io..Read$GT$13read_vectored17h8444b0df7d7f752dE",
            "__ZN12regex_syntax3hir12ClassUnicode7literal17h1e759b23d4c7bfeeE",
            "__ZN4core3fmt9Formatter4sign17he15c7a463e5bdd7dE",
            "__ZN127_$LT$cel_parser..parser..__parse__ArithmeticAddSub..__StateMachine$u20$as$u20$lalrpop_util..state_machine..ParserDefinition$GT$6reduce17h1e119f79be14b2dbE",
            "__ZN69_$LT$core..str..iter..EscapeDefault$u20$as$u20$core..fmt..Display$GT$3fmt17h47f3d6c849401bf0E",
            "__ZN66_$LT$cel_interpreter..ParseError$u20$as$u20$core..fmt..Display$GT$3fmt17h33b0d033864d61f6E",
            "__ZN12regex_syntax3hir3Hir9into_kind17hffc566fe17b1a3ceE",
            "__ZN57_$LT$std..io..stdio..Stdout$u20$as$u20$std..io..Write$GT$9write_all17h2fad9736d768d333E",
            "__ZN67_$LT$std..sys..pal..unix..stdio..Stdin$u20$as$u20$std..io..Read$GT$4read17h5ce1303463fec7ceE",
            "__ZN5bytes3fmt3hex76_$LT$impl$u20$core..fmt..UpperHex$u20$for$u20$bytes..bytes_mut..BytesMut$GT$3fmt17h01c137c954e430b2E",
            "__ZN128_$LT$$LT$serde..de..WithDecimalPoint$u20$as$u20$core..fmt..Display$GT$..fmt..LookForDecimalPoint$u20$as$u20$core..fmt..Write$GT$10write_char17hf9c2e5466b227a03E",
            "__ZN87_$LT$core..num..nonzero..NonZero$LT$isize$GT$$u20$as$u20$core..str..traits..FromStr$GT$8from_str17h2b5b5b9e68533ca6E",
            "__ZN14regex_automata4meta6stopat26hybrid_try_search_half_fwd17h6231f33103f977caE",
            "__ZN122_$LT$regex_automata..util..prefilter..aho_corasick..AhoCorasick$u20$as$u20$regex_automata..util..prefilter..PrefilterI$GT$4find17he85d51ff63df9a9dE",
            "__ZN76_$LT$aho_corasick..util..primitives..StateID$u20$as$u20$core..fmt..Debug$GT$3fmt17h68088ddc999c25caE",
            "__ZN6chrono6format6parsed6Parsed13to_naive_time17h06e4e2d4f7a53164E",
            "__ZN14regex_automata4meta8wrappers18BoundedBacktracker12create_cache17h042f7367dced0b50E",
            "__ZN64_$LT$core..char..EscapeUnicode$u20$as$u20$core..fmt..Display$GT$3fmt17h318966b3e3c05f8bE",
            "__ZN9hashbrown3raw21RawTable$LT$T$C$A$GT$14reserve_rehash17h53f9b2c12a91fd93E",
            "__ZN66_$LT$alloc..ffi..c_str..NulError$u20$as$u20$core..fmt..Display$GT$3fmt17h6ffc50bff2e6f4d4E",
            "__ZN6anyhow5chain93_$LT$impl$u20$core..iter..traits..exact_size..ExactSizeIterator$u20$for$u20$anyhow..Chain$GT$3len17h3c6fccad569a3699E",
            "__ZN85_$LT$core..num..nonzero..NonZero$LT$i16$GT$$u20$as$u20$core..str..traits..FromStr$GT$8from_str17h4151ce5932deea80E",
            "__ZN56_$LT$std..io..IoSliceMut$u20$as$u20$core..fmt..Debug$GT$3fmt17h281471d13d297b83E",
            "__ZN3std3net3tcp11TcpListener7only_v617hbf41fad2fbd8d92cE",
            "__ZN4core3fmt3num53_$LT$impl$u20$core..fmt..Display$u20$for$u20$i128$GT$3fmt17h85238b6bdc560f3fE",
            "__ZN3std6thread9spawnhook15run_spawn_hooks17hf17ad595bf947514E",
            "__ZN108_$LT$aho_corasick..util..prefilter..StartBytesThree$u20$as$u20$aho_corasick..util..prefilter..PrefilterI$GT$7find_in17h21059ea8957a9f69E",
            "__ZN76_$LT$$u5b$u8$u3b$$u20$1$u5d$$u20$as$u20$nom..traits..FindToken$LT$u8$GT$$GT$10find_token17hbc40395466cc408cE",
            "__ZN4core3num7flt2dec8strategy6dragon9mul_pow1017h13572717066fcbeaE",
            "__ZN4core3str16slice_error_fail17h66ed7e8c85f64523E",
            "__ZN3std10sys_common7process10CommandEnv6remove17h9ea6d4fdf7e61fc1E",
            "__ZN12regex_syntax5error5Spans3add17h10af8e777310ee83E",
            "__ZN102_$LT$regex..regexset..string..SetMatchesIntoIter$u20$as$u20$core..iter..traits..iterator..Iterator$GT$9size_hint17h0e773deba67ad951E",
            "__ZN5alloc11collections5btree6search91_$LT$impl$u20$alloc..collections..btree..node..NodeRef$LT$BorrowType$C$K$C$V$C$Type$GT$$GT$14find_key_index17hd5f75639abd80aa5E",
            "__ZN3std2io5error5Error3new17ha76f4d9c2d140b5dE",
            "__ZN89_$LT$std..backtrace_rs..symbolize..gimli..mmap..Mmap$u20$as$u20$core..ops..drop..Drop$GT$4drop17h473195da5dfa611cE",
            "__ZN170_$LT$cel_eval..models.._..$LT$impl$u20$serde..de..Deserialize$u20$for$u20$cel_eval..models..ExecutionContext$GT$..deserialize..__Visitor$u20$as$u20$serde..de..Visitor$GT$9expecting17h838e07db0289e1a1E",
            "__ZN5serde3ser3fmt85_$LT$impl$u20$serde..ser..Serializer$u20$for$u20$$RF$mut$u20$core..fmt..Formatter$GT$14serialize_char17h616235f877f2f8a5E",
            "__ZN4core5slice4sort6stable14driftsort_main17hca5a1ee84c984a8bE",
            "__ZN83_$LT$object..xcoff..AuxHeader32$u20$as$u20$object..read..xcoff..file..AuxHeader$GT$10o_debugger17h81dce75627b2ed21E",
            "__ZN122_$LT$cel_parser..parser..__parse__Conditional..__StateMachine$u20$as$u20$lalrpop_util..state_machine..ParserDefinition$GT$6reduce17hc9621ba454b07219E",
            "__ZN5alloc7raw_vec19RawVec$LT$T$C$A$GT$8grow_one17h461261fc69c23018E",
            "__ZN3std4path4Path9extension17heba58cb2549b67fbE",
            "__ZN4core5slice29_$LT$impl$u20$$u5b$T$u5d$$GT$15copy_from_slice17len_mismatch_fail8do_panic7runtime17h672d59af9fab6625E",
            "__ZN78_$LT$cel_interpreter..ser..KeySerializer$u20$as$u20$serde..ser..Serializer$GT$15serialize_tuple17h4969eb6e6ed1c54bE",
            "__ZN5alloc7raw_vec19RawVec$LT$T$C$A$GT$8grow_one17h614a645b6267fd5aE",
            "__ZN12regex_syntax3hir17ClassUnicodeRange3new17h84f468fa19a8a856E",
            "__ZN5alloc7raw_vec19RawVec$LT$T$C$A$GT$8grow_one17h651403552df97d32E",
            "__ZN4core3ffi5c_str4CStr20from_bytes_until_nul17hd752856bebf371e7E",
            "__ZN5bytes5bytes12owned_to_vec17h17eed7a2d3eb60dbE",
            "__ZN3std3net3udp9UdpSocket17multicast_loop_v617hae56cdfd20adb4cbE",
            "__ZN81_$LT$$u5b$u8$u3b$$u20$25$u5d$$u20$as$u20$nom..traits..FindToken$LT$$RF$u8$GT$$GT$10find_token17hf220d0f93533db9fE",
            "__ZN65_$LT$gimli..constants..DwSectV2$u20$as$u20$core..fmt..Display$GT$3fmt17h7781dbb058f86cddE",
            "__ZN62_$LT$core..alloc..AllocError$u20$as$u20$core..fmt..Display$GT$3fmt17h14601e4438202fb1E",
            "__ZN5alloc11collections5btree4node12slice_insert17h667404a884ee58caE",
            "__ZN10cel_parser6parser19__parse__Expression16ExpressionParser5parse17h769ae2b7a80ef98dE",
            "__ZN5serde3ser3fmt85_$LT$impl$u20$serde..ser..Serializer$u20$for$u20$$RF$mut$u20$core..fmt..Formatter$GT$13serialize_i3217h1a4b85c77dec6c5fE",
            "__ZN3std7process15ExitStatusError12code_nonzero17hf8dffa8573ad015eE",
            "__ZN10serde_json4read22decode_four_hex_digits17hc32845d6e564793dE",
            "__ZN3std3net3tcp9TcpStream7set_ttl17hcfc7100f6cc9208bE",
            "__ZN118_$LT$cel_parser..parser..__parse__Primary..__StateMachine$u20$as$u20$lalrpop_util..state_machine..ParserDefinition$GT$6reduce17h87ad69f31b073824E",
            "__ZN4core3num7flt2dec8strategy5grisu16format_exact_opt17hfb38e914a06706f5E",
            "__ZN78_$LT$object..macho..FatArch64$u20$as$u20$object..read..macho..fat..FatArch$GT$10cpusubtype17h1b6acf95c4183de5E",
            "__ZN66_$LT$regex..regex..bytes..Captures$u20$as$u20$core..fmt..Debug$GT$3fmt17hb6ff704c97bac356E",
            "__ZN10cel_parser6parser20__parse__Conditional17ConditionalParser5parse17hd751a3f75dcc5bacE",
            "__ZN12aho_corasick4util5error10MatchError23unsupported_overlapping17h4ed743484ca948dbE",
            "__ZN56_$LT$anyhow..ensure..Buf$u20$as$u20$core..fmt..Write$GT$9write_str17hdff255dc4cca9537E",
            "__ZN10cel_parser6parser25__parse__ArithmeticAddSub8__action17h5905979a9ded3f27E",
            "__ZN11uniffi_core3ffi10rustbuffer25uniffi_rustbuffer_reserve17h81532e172c1da3c8E",
            "__ZN60_$LT$core..cell..BorrowError$u20$as$u20$core..fmt..Debug$GT$3fmt17h92efa7cb16d2e5e8E",
            "__ZN78_$LT$cel_interpreter..ser..KeySerializer$u20$as$u20$serde..ser..Serializer$GT$24serialize_struct_variant17h2580569c8379613fE",
            "__ZN3std3env7_var_os17he387639d71999118E",
            "__ZN173_$LT$core..result..Result$LT$alloc..sync..Arc$LT$alloc..vec..Vec$LT$u8$GT$$GT$$C$cel_interpreter..ExecutionError$GT$$u20$as$u20$cel_interpreter..magic..IntoResolveResult$GT$19into_resolve_result17h359459370f0de423E",
            "__ZN73_$LT$serde..__private..ser..Unsupported$u20$as$u20$core..fmt..Display$GT$3fmt17h05b9d57f7ade2ba9E",
            "__ZN6object4read2pe6export11ExportTable7exports17h2e03b0ba1671ae75E",
            "__ZN4core6result13unwrap_failed17h3597288d3ab9d319E",
            "__ZN3std3net3tcp9TcpStream10set_linger17h3eaa28e37682a79aE",
            "__ZN100_$LT$bytes..bytes_mut..BytesMut$u20$as$u20$core..cmp..PartialEq$LT$alloc..vec..Vec$LT$u8$GT$$GT$$GT$2eq17h94f8cbde366660e2E",
            "__ZN11uniffi_core3ffi10rustbuffer23uniffi_rustbuffer_alloc17ha8cde93fa41e5c65E",
            "__ZN57_$LT$std..io..stdio..Stderr$u20$as$u20$std..io..Write$GT$9write_fmt17h959da34877463818E",
            "__ZN67_$LT$gimli..constants..DwChildren$u20$as$u20$core..fmt..Display$GT$3fmt17hdec20fc749abb9e1E",
            "__ZN14regex_automata3nfa8thompson9backtrack18BoundedBacktracker3new17he9f576d7d824b05cE",
            "__ZN49_$LT$log..Level$u20$as$u20$core..fmt..Display$GT$3fmt17hbea7b3ee0984b35bE",
            "__ZN3log13__private_api8log_impl17he39b2cb5024633c1E",
            "__ZN69_$LT$$RF$$u5b$u8$u5d$$u20$as$u20$nom..traits..FindToken$LT$u8$GT$$GT$10find_token17h386725d06232d28cE",
            "__ZN72_$LT$bytes..bytes..Bytes$u20$as$u20$core..cmp..PartialOrd$LT$str$GT$$GT$11partial_cmp17hcf2c0c1b0e43864fE",
            "__ZN4core3fmt9Formatter25debug_tuple_field1_finish17hd8ac0d1a46208b90E",
            "__ZN5alloc11collections5btree4node173Handle$LT$alloc..collections..btree..node..NodeRef$LT$alloc..collections..btree..node..marker..Immut$C$K$C$V$C$NodeType$GT$$C$alloc..collections..btree..node..marker..KV$GT$7into_kv17h9fe4fb5a9b8baebbE",
            "__ZN83_$LT$serde_json..value..ser..MapKeySerializer$u20$as$u20$serde..ser..Serializer$GT$14serialize_none17hc889850641a87d0aE",
            "__ZN3std6thread7current18current_or_unnamed17h942e00e1ddbe43caE",
            "__ZN5alloc7raw_vec20RawVecInner$LT$A$GT$15try_allocate_in17h1ea99b9eb73ffac0E",
            "__ZN12aho_corasick3nfa13noncontiguous3NFA11alloc_state17h88ce5b65988008b0E",
            "__ZN167_$LT$cel_eval..models.._..$LT$impl$u20$serde..de..Deserialize$u20$for$u20$cel_eval..models..PassableValue$GT$..deserialize..__Visitor$u20$as$u20$serde..de..Visitor$GT$9expecting17h205366e3f6d8d47cE",
            "__ZN5alloc4sync16Arc$LT$T$C$A$GT$9drop_slow17hb542ef915331fe69E",
            "__ZN3std4time10SystemTime11checked_add17hc7dc2fb7671c94adE",
            "__ZN5bytes9bytes_mut106_$LT$impl$u20$core..cmp..PartialEq$LT$bytes..bytes_mut..BytesMut$GT$$u20$for$u20$alloc..string..String$GT$2eq17h458856a57583a91eE",
            "__ZN6object4read2pe6import11ImportTable9hint_name17hb901dc8a0d7ef195E",
            "__ZN222_$LT$$LT$cel_eval..ast.._..$LT$impl$u20$serde..de..Deserialize$u20$for$u20$cel_eval..ast..JSONExpression$GT$..deserialize..__Visitor$u20$as$u20$serde..de..Visitor$GT$..visit_map..__Visitor$u20$as$u20$serde..de..Visitor$GT$9expecting17h8bcd641c9aa56060E",
            "__ZN82_$LT$core..char..ToLowercase$u20$as$u20$core..iter..traits..iterator..Iterator$GT$10advance_by17hf56f4b68265451b4E",
            "__ZN3std2fs8Metadata8modified17h6f53587d58399de1E",
            "__ZN10serde_json5value10partial_eq86_$LT$impl$u20$core..cmp..PartialEq$LT$str$GT$$u20$for$u20$serde_json..value..Value$GT$2eq17h14e84537f5a405edE",
            "__ZN5alloc4sync16Arc$LT$T$C$A$GT$9drop_slow17h712a5ff144ef2821E",
            "__ZN12regex_syntax6parser5parse17hd90c82ecbb528399E",
            "__ZN67_$LT$object..read..util..ByteString$u20$as$u20$core..fmt..Debug$GT$3fmt17h9e0c6667c7cea714E",
            "__ZN76_$LT$$u5b$u8$u3b$$u20$5$u5d$$u20$as$u20$nom..traits..FindToken$LT$u8$GT$$GT$10find_token17h1ae731e60c401fb1E",
            "__ZN6anyhow5error60_$LT$impl$u20$core..fmt..Debug$u20$for$u20$anyhow..Error$GT$3fmt17hfc70118523033cc3E",
            "__ZN5bytes5bytes10owned_drop17h90d58e420e34de30E",
            "__ZN5alloc11collections5btree3map5entry28VacantEntry$LT$K$C$V$C$A$GT$12insert_entry17hb60ed13c8d9c5e22E",
            "__ZN77_$LT$$u5b$u8$u3b$$u20$19$u5d$$u20$as$u20$nom..traits..FindToken$LT$u8$GT$$GT$10find_token17h4134ba7e5842cb39E",
            "__ZN5alloc7raw_vec19RawVec$LT$T$C$A$GT$8grow_one17hb7ceddb05f3b4ac7E",
            "__ZN3std3net3udp9UdpSocket4send17h227db6e154c0ed9cE",
            "__ZN14regex_automata4util5empty15skip_splits_fwd17h8b12244a715ae782E",
            "__ZN4core3num9diy_float2Fp12normalize_to17h710b8162834f1b33E",
            "__ZN5alloc7raw_vec19RawVec$LT$T$C$A$GT$8grow_one17hc457c8a8457de1f5E",
            "__ZN73_$LT$std..sys_common..process..CommandEnv$u20$as$u20$core..fmt..Debug$GT$3fmt17hc44eaf8a0bb164f6E",
            "__ZN5bytes5bytes21promotable_odd_to_mut17h1861b91f77d21165E",
            "__ZN55_$LT$f64$u20$as$u20$core..fmt..float..GeneralFormat$GT$44already_rounded_value_should_use_exponential17hf02fd729aa51c94eE",
            "__ZN72_$LT$$RF$str$u20$as$u20$alloc..ffi..c_str..CString..new..SpecNewImpl$GT$13spec_new_impl17h90c7553af746ba29E",
            "__ZN4core3fmt3num50_$LT$impl$u20$core..fmt..Octal$u20$for$u20$i64$GT$3fmt17h9093f6fe705bcf65E",
            "__ZN14regex_automata3nfa8thompson7builder7Builder5patch17h782d327d9f786531E",
            "__ZN12regex_syntax5error5Spans6notate17h3fdfa76226188727E",
            "__ZN6chrono8datetime50DateTime$LT$chrono..offset..fixed..FixedOffset$GT$18parse_from_rfc282217h79dfc3e7ae93bac3E",
            "__ZN5alloc4sync16Arc$LT$T$C$A$GT$9drop_slow17h4fb09b480f69ac6aE",
            "__ZN97_$LT$core..char..ToLowercase$u20$as$u20$core..iter..traits..double_ended..DoubleEndedIterator$GT$15advance_back_by17h8084eae6e066ece8E",
            "__ZN67_$LT$chrono..month..ParseMonthError$u20$as$u20$core..fmt..Debug$GT$3fmt17hb37e855e77f59141E",
            "__ZN62_$LT$std..io..stdio..StdinLock$u20$as$u20$std..io..BufRead$GT$7consume17h2250ab196e8da776E",
            "__ZN4core3fmt9Formatter26debug_struct_fields_finish17h9fa7bc9860ba3b80E",
            "__ZN60_$LT$core..task..wake..Waker$u20$as$u20$core..fmt..Debug$GT$3fmt17hd3ef32f9ee8768adE",
            "__ZN10cel_parser6parser15__parse__Member8__action17hb8917245bb99b3f0E",
            "__ZN113_$LT$$LT$regex..regex..string..Captures$u20$as$u20$core..fmt..Debug$GT$..fmt..Key$u20$as$u20$core..fmt..Debug$GT$3fmt17h0cedb4f0793d6fe8E",
            "__ZN4core3fmt3num3imp53_$LT$impl$u20$core..fmt..LowerExp$u20$for$u20$i32$GT$3fmt17h5b3b39a821316361E",
            "__ZN88_$LT$regex_automata..util..primitives..SmallIndexError$u20$as$u20$core..fmt..Display$GT$3fmt17h7fc1b8ebe728cc1dE",
            "__ZN12regex_syntax3hir3Hir11alternation17heb04c0297c61c54fE",
            "__ZN79_$LT$$RF$alloc..vec..Vec$LT$u8$GT$$u20$as$u20$regex..regex..bytes..Replacer$GT$12no_expansion17h8ff144717339b2a8E",
            "__ZN83_$LT$regex_automata..util..determinize..state..Repr$u20$as$u20$core..fmt..Debug$GT$3fmt17hee274236a6fd7a2dE",
            "__ZN3std2io5stdio22try_set_output_capture17h0d247fb3397fa9cbE",
            "__ZN4core3num7dec2flt7decimal7Decimal10left_shift17h3ec51a8e448034f9E",
            "__ZN4core3num6bignum8Big32x4013div_rem_small17ha64985b08c4c8925E",
            "__ZN3std3net3tcp11TcpListener3ttl17h9830b6a7aa0a7fe5E",
            "__ZN76_$LT$aho_corasick..nfa..noncontiguous..Match$u20$as$u20$core..fmt..Debug$GT$3fmt17h62f4135b9661917dE",
            "__ZN70_$LT$serde_json..read..SliceRead$u20$as$u20$serde_json..read..Read$GT$13peek_position17hb17e3229e7841ff0E",
            "__ZN3std2fs8Metadata8accessed17ha703b4d24159729dE",
            "__ZN4core3num6bignum5tests6Big8x37is_zero17hcce1b6729c60a78bE",
            "__ZN5bytes5bytes21promotable_even_clone17h9874636253bd2975E",
            "__ZN3std3net3udp9UdpSocket7set_ttl17hfc764db3adbc9e4bE",
            "__ZN10cel_parser3ast20ExpressionReferences9functions17h60f508f14a52bf0bE",
            "__ZN58_$LT$std..io..stdio..StdinRaw$u20$as$u20$std..io..Read$GT$11read_to_end17h11ba4b8b5478014eE",
            "__ZN3std5alloc20set_alloc_error_hook17h49eabf45f055343dE",
            "__ZN6chrono5naive8datetime13NaiveDateTime16checked_add_days17h68c789493b835abdE",
            "__ZN92_$LT$$LP$alloc..string..String$C$u16$RP$$u20$as$u20$std..net..socket_addr..ToSocketAddrs$GT$15to_socket_addrs17hcbc9e5cdc6c88e2aE",
            "__ZN76_$LT$core..char..convert..CharTryFromError$u20$as$u20$core..fmt..Display$GT$3fmt17hedc731a2d11c376cE",
            "__ZN3std12backtrace_rs9symbolize6Symbol4name17h49c876df5b0152cfE",
            "__ZN65_$LT$lalrpop_util..lexer..Token$u20$as$u20$core..fmt..Display$GT$3fmt17hd001e77a9cec5820E",
            "__ZN81_$LT$$u5b$u8$u3b$$u20$16$u5d$$u20$as$u20$nom..traits..FindToken$LT$$RF$u8$GT$$GT$10find_token17h4398076eca1b17b8E",
            "__ZN83_$LT$object..xcoff..AuxHeader64$u20$as$u20$object..read..xcoff..file..AuxHeader$GT$8o_sntext17hfbbee46fc8e84d4cE",
            "__ZN5alloc4sync16Arc$LT$T$C$A$GT$9drop_slow17h52100a9fce9e3c8fE",
            "__ZN14regex_automata6hybrid5regex5Regex12create_cache17h3fa55015f4b8e94fE",
            "__ZN3std6thread4park17h917ca9ab0b0e7ad9E",
            "__ZN4core3fmt9Formatter26debug_struct_field2_finish17h21ce3385ce5ad3d9E",
            "__ZN7parking4pair17h431cae8b0388dc18E",
            "__ZN4core9panicking18panic_bounds_check17ha9a64cb30dd8d96aE",
            "__ZN10cel_parser6parser18__parse__Relations8__action17h04bcd3756e6ed4adE",
            "__ZN5gimli9constants4DwAt13static_string17hab7309a58d99b1d1E",
            "__ZN3std2io5error14repr_bitpacked4Repr3new17h002cb393039b3bb2E",
            "__ZN4core3fmt9Formatter11debug_tuple17he9f92033e2c6a18eE",
            "__ZN7parking5Inner6unpark17h26dc0cecb292e1e5E",
            "__ZN78_$LT$$LP$$RF$str$C$u16$RP$$u20$as$u20$std..net..socket_addr..ToSocketAddrs$GT$15to_socket_addrs17h8ad73595dceb2e2eE",
            "__ZN5alloc7raw_vec19RawVec$LT$T$C$A$GT$8grow_one17h7cca77cdbbc41ad9E",
            "__ZN14regex_automata3nfa8thompson7builder7Builder10add_sparse17h24acecfe6e297a1fE",
            "__ZN3std5alloc21take_alloc_error_hook17h4592465d4b126fd6E",
            "__ZN87_$LT$cel_interpreter..ser..SerializeVec$u20$as$u20$serde..ser..SerializeTupleStruct$GT$3end17h4aac9b979430fa75E",
            "__ZN3std2io8buffered9bufwriter18BufWriter$LT$W$GT$10write_cold17h48018969d67c6622E",
            "__ZN71_$LT$chrono..offset..fixed..FixedOffset$u20$as$u20$core..fmt..Debug$GT$3fmt17h348ec9ee362d706cE",
            "__ZN61_$LT$bytes..bytes..Bytes$u20$as$u20$core..cmp..PartialOrd$GT$11partial_cmp17h21b4dd06071d0a67E",
            "__ZN6anyhow5error31_$LT$impl$u20$anyhow..Error$GT$10root_cause17hd88c2043bb709ddfE",
            "__ZN5bytes5bytes12owned_to_mut17h6e6ccea224246004E",
            "__ZN107_$LT$regex_automata..util..alphabet..ByteSetRangeIter$u20$as$u20$core..iter..traits..iterator..Iterator$GT$4next17h5f03a7d27aecdd93E",
            "__ZN60_$LT$alloc..string..String$u20$as$u20$core..clone..Clone$GT$5clone17haeb986e2d0069037E",
            "__ZN67_$LT$std..sys..pal..unix..stdio..Stdin$u20$as$u20$std..io..Read$GT$13read_vectored17ha11b9e82236ef31eE",
            "__ZN82_$LT$core..char..ToLowercase$u20$as$u20$core..iter..traits..iterator..Iterator$GT$5count17hb97651b109e7830cE",
            "__ZN222_$LT$$LT$cel_eval..ast.._..$LT$impl$u20$serde..de..Deserialize$u20$for$u20$cel_eval..ast..JSONExpression$GT$..deserialize..__Visitor$u20$as$u20$serde..de..Visitor$GT$..visit_map..__Visitor$u20$as$u20$serde..de..Visitor$GT$9expecting17hc8a9ec2ed26f94f4E",
            "__ZN72_$LT$regex_automata..dfa..onepass..Slots$u20$as$u20$core..fmt..Debug$GT$3fmt17h1e957a56067c6f65E",
            "__ZN57_$LT$std..io..stdio..Stderr$u20$as$u20$std..io..Write$GT$18write_all_vectored17h25fa59afc269ddc9E",
            "__ZN4core9panicking14panic_explicit17h7c5586d5688d12d3E",
            "__ZN55_$LT$std..pipe..PipeReader$u20$as$u20$std..io..Read$GT$4read17h0bece089c22bc9fbE",
            "__ZN15cel_interpreter9functions6exists17h65ad9b7930a1d9a1E",
            "__ZN6anyhow5error9ErrorImpl5error17hfe55b016637a6b78E",
            "__ZN77_$LT$regex_automata..util..captures..Captures$u20$as$u20$core..fmt..Debug$GT$3fmt17hf197bf018bc3f57fE",
            "__ZN6chrono6format5parse125_$LT$impl$u20$core..str..traits..FromStr$u20$for$u20$chrono..datetime..DateTime$LT$chrono..offset..fixed..FixedOffset$GT$$GT$8from_str17h809aadafae405478E",
            "__ZN10cel_parser6parser16__parse__Primary13PrimaryParser3new17h0e52a390941366d9E",
            "__ZN66_$LT$core..sync..atomic..AtomicI16$u20$as$u20$core..fmt..Debug$GT$3fmt17hdcb83de9ff16218bE",
            "__ZN91_$LT$hashbrown..raw..RawIterHashInner$u20$as$u20$core..iter..traits..iterator..Iterator$GT$4next17h017cdade9dae8534E",
            "__ZN80_$LT$$u5b$u8$u3b$$u20$5$u5d$$u20$as$u20$nom..traits..FindToken$LT$$RF$u8$GT$$GT$10find_token17h551415d6bac3310cE",
            "__ZN12regex_syntax3hir10ClassBytes5union17hae801228d6b39c47E",
            "__ZN5alloc7raw_vec19RawVec$LT$T$C$A$GT$8grow_one17h479cddb25686136eE",
            "__ZN14regex_automata4meta5regex7Builder14build_from_hir17h77a37b4313c47000E",
            "__ZN5alloc11collections5btree3map25BTreeMap$LT$K$C$V$C$A$GT$5entry17hc0bc1537ec98a41eE",
            "__ZN6chrono5naive4date11cycle_to_yo17h29f56d0b74f72a67E",
            "__ZN10serde_json5error5Error2io17hdd11c058f19b5b54E",
            "__ZN14regex_automata4meta5regex5Cache12memory_usage17hc5fd9e4c9a1ef213E",
            "__ZN75_$LT$cel_interpreter..ser..Serializer$u20$as$u20$serde..ser..Serializer$GT$22serialize_tuple_struct17h68a53c018a2ab7ebE",
            "__ZN12aho_corasick3nfa10contiguous7Builder24build_from_noncontiguous17h29c01db59ef81d59E",
            "__ZN87_$LT$$RF$$u5b$u8$u5d$$u20$as$u20$nom..traits..FindSubstring$LT$$RF$$u5b$u8$u5d$$GT$$GT$14find_substring17he16739770d5388f6E",
            "__ZN106_$LT$aho_corasick..util..prefilter..StartBytesOne$u20$as$u20$aho_corasick..util..prefilter..PrefilterI$GT$7find_in17h65a60b4027315674E",
            "__ZN4core3fmt8builders8DebugMap3key17hcf94223fbfd770d3E",
            "__ZN12regex_syntax3hir12ClassUnicode16case_fold_simple17h5d6506719f611412E",
            "__ZN4core3fmt8builders11DebugStruct6finish17h5b7116fdaeb57c20E",
            "__ZN5gimli4arch7AArch6416name_to_register17h8db1784bd5f414f0E",
            "__ZN5bytes9bytes_mut8BytesMut9split_off17h44c82849fdf6eafcE",
            "__ZN74_$LT$std..sys_common..net..LookupHost$u20$as$u20$core..ops..drop..Drop$GT$4drop17h0a2a1e1dcb1e9e4eE",
            "__ZN15cel_interpreter7context7Context7resolve17h4896b8b62e78c218E",
            "__ZN4core3num6bignum5tests6Big8x38from_u6417h0b180882885750faE",
            "__ZN85_$LT$object..xcoff..FileHeader32$u20$as$u20$object..read..xcoff..file..FileHeader$GT$7f_nsyms17h4c829707cac10482E",
            "__ZN5alloc7raw_vec19RawVec$LT$T$C$A$GT$8grow_one17hd1fa308037aaef02E",
            "__ZN4core9panicking11panic_const24panic_const_mul_overflow17h321f14f76efab48dE",
            "__ZN68_$LT$core..slice..ascii..EscapeAscii$u20$as$u20$core..fmt..Debug$GT$3fmt17h4c42a1ee04bef457E",
            "__ZN68_$LT$std..sync..mpsc..TryRecvError$u20$as$u20$core..fmt..Display$GT$3fmt17hee8608a87946bef5E",
            "__ZN72_$LT$gimli..read..endian_slice..DebugLen$u20$as$u20$core..fmt..Debug$GT$3fmt17h8591ecf2bbfcfc8dE",
            "__ZN185_$LT$serde..de..impls..$LT$impl$u20$serde..de..Deserialize$u20$for$u20$core..num..saturating..Saturating$LT$u16$GT$$GT$..deserialize..SaturatingVisitor$u20$as$u20$serde..de..Visitor$GT$9expecting17hc12f98834547c471E",
            "__ZN66_$LT$regex..regex..string..Regex$u20$as$u20$core..fmt..Display$GT$3fmt17hfc54bf15f4d12ddaE",
            "__ZN14regex_automata3nfa8thompson8compiler8Compiler9add_union17h02dcace2d8d08b70E",
            "__ZN6object4read2pe6import24ImportDescriptorIterator4next17h9e89dc148825581eE",
            "__ZN4core3num7dec2flt7decimal7Decimal11right_shift17hd9aec56acdd1e496E",
            "__ZN83_$LT$object..xcoff..AuxHeader32$u20$as$u20$object..read..xcoff..file..AuxHeader$GT$9o_modtype17hfd88e6a3887d05b5E",
            "__ZN3std3sys3pal4unix2fd8FileDesc7read_at17h93b2609e3dc61764E",
            "__ZN14regex_automata4util6search10MatchError7gave_up17h09ecf21b6a8b4edcE",
            "__ZN5alloc7raw_vec19RawVec$LT$T$C$A$GT$8grow_one17hf8616e334adfc3baE",
            "__ZN4core3fmt5float50_$LT$impl$u20$core..fmt..Debug$u20$for$u20$f64$GT$3fmt17h6d64db996ae2ef33E",
            "__ZN5alloc7raw_vec19RawVec$LT$T$C$A$GT$8grow_one17he11ecd42f5850d2cE",
            "__ZN3std3net3udp9UdpSocket9recv_from17h04b64fb6affb6d69E",
            "__ZN81_$LT$std..sys..pal..unix..sync..mutex..Mutex$u20$as$u20$core..ops..drop..Drop$GT$4drop17hb8ff23034c6540d9E",
            "__ZN77_$LT$serde_json..value..ser..Serializer$u20$as$u20$serde..ser..Serializer$GT$14serialize_i12817hf1b127366bb4034eE",
            "__ZN75_$LT$cel_interpreter..ser..Serializer$u20$as$u20$serde..ser..Serializer$GT$23serialize_tuple_variant17h26a924302507506cE",
            "__ZN3std3sys14anonymous_pipe4unix76_$LT$impl$u20$std..os..fd..owned..AsFd$u20$for$u20$std..pipe..PipeReader$GT$5as_fd17hc8491e2ec3f2eb37E",
            "__ZN3std5panic12always_abort17h789dd497e13a9763E",
            "__ZN80_$LT$$u5b$u8$u3b$$u20$6$u5d$$u20$as$u20$nom..traits..FindToken$LT$$RF$u8$GT$$GT$10find_token17h672e3bf3c87ea828E",
            "__ZN14regex_automata3nfa8thompson8compiler8Compiler5patch17h74d1900ff140b8edE",
            "__ZN85_$LT$regex_automata..util..wire..BE$u20$as$u20$regex_automata..util..wire..Endian$GT$9write_u1617h196c3d9265988b92E",
            "__ZN3std2io5error83_$LT$impl$u20$core..fmt..Debug$u20$for$u20$std..io..error..repr_bitpacked..Repr$GT$3fmt17h611626bf08daa728E",
            "__ZN143_$LT$serde..de..impls..$LT$impl$u20$serde..de..Deserialize$u20$for$u20$i32$GT$..deserialize..PrimitiveVisitor$u20$as$u20$serde..de..Visitor$GT$9expecting17hb302e8135e7df48aE",
            "__ZN54_$LT$std..fs..DirEntry$u20$as$u20$core..fmt..Debug$GT$3fmt17hbf2a1aca7d6dbe4cE",
            "__ZN64_$LT$rustc_demangle..v0..Ident$u20$as$u20$core..fmt..Display$GT$3fmt17h7077ec001952eebfE",
            "__ZN4core3fmt8builders10DebugTuple5field17h9c6df662306c04ccE",
            "__ZN77_$LT$std..sys..pal..unix..net..Socket$u20$as$u20$std..os..fd..owned..AsFd$GT$5as_fd17h7007364638808c25E",
            "__ZN79_$LT$regex_automata..util..search..MatchError$u20$as$u20$core..fmt..Display$GT$3fmt17he388b6589cb6ac7eE",
            "__ZN69_$LT$std..sys..pal..unix..stdio..Stdout$u20$as$u20$std..io..Write$GT$14write_vectored17h115993cf3003272cE",
            "__ZN84_$LT$std..env..Args$u20$as$u20$core..iter..traits..exact_size..ExactSizeIterator$GT$8is_empty17he3577c00699c1f42E",
            "__ZN77_$LT$regex_automata..dfa..onepass..Transition$u20$as$u20$core..fmt..Debug$GT$3fmt17h715f3ac35bd3c17eE",
            "__ZN81_$LT$$u5b$u8$u3b$$u20$32$u5d$$u20$as$u20$nom..traits..FindToken$LT$$RF$u8$GT$$GT$10find_token17h44fa65b3273c22ecE",
            "__ZN78_$LT$cel_interpreter..ser..KeySerializer$u20$as$u20$serde..ser..Serializer$GT$13serialize_f6417hc3456e6358606758E",
            "__ZN77_$LT$serde_json..value..ser..Serializer$u20$as$u20$serde..ser..Serializer$GT$14serialize_u12817hc786840600c948d5E",
            "__ZN156_$LT$cel_eval..ast.._..$LT$impl$u20$serde..de..Deserialize$u20$for$u20$cel_eval..ast..JSONAtom$GT$..deserialize..__Visitor$u20$as$u20$serde..de..Visitor$GT$9expecting17hbb901670ee5bd8afE",
            "__ZN5alloc7raw_vec19RawVec$LT$T$C$A$GT$8grow_one17h95e9112d4b5e038dE",
            "__ZN5bytes5bytes21promotable_odd_to_vec17he2b64894d6678d11E",
            "__ZN71_$LT$serde..de..value..ExpectedInSeq$u20$as$u20$serde..de..Expected$GT$3fmt17h12854cd7a4f9746dE",
            "__ZN66_$LT$serde..de..WithDecimalPoint$u20$as$u20$core..fmt..Display$GT$3fmt17h7ac0b1e4cb8d3e6aE",
            "__ZN5alloc7raw_vec19RawVec$LT$T$C$A$GT$8grow_one17hf43fac0f097adeb4E",
            "__ZN3log13__private_api7enabled17he61cea39a24b66c2E",
            "__ZN81_$LT$$u5b$u8$u3b$$u20$15$u5d$$u20$as$u20$nom..traits..FindToken$LT$$RF$u8$GT$$GT$10find_token17h6b0adaad7c0dd820E",
            "__ZN80_$LT$$u5b$u8$u3b$$u20$2$u5d$$u20$as$u20$nom..traits..FindToken$LT$$RF$u8$GT$$GT$10find_token17h070468cf39d98e4fE",
            "__ZN15cel_interpreter9functions9timestamp17haec38ee4fe96c539E",
            "__ZN108_$LT$futures_lite..io..Cursor$LT$alloc..vec..Vec$LT$u8$GT$$GT$$u20$as$u20$futures_io..if_std..AsyncWrite$GT$10poll_write17h3ad15bb6fedd05f3E",
            "__ZN14regex_automata4util8captures14GroupInfoInner15add_first_group17h5ae0267a67f079d1E",
            "__ZN3std2os4unix3net6stream10UnixStream9try_clone17hfc122f3e1193becfE",
            "__ZN94_$LT$regex_automata..meta..regex..SplitN$u20$as$u20$core..iter..traits..iterator..Iterator$GT$4next17h2c8d6ff0368b9f0dE",
            "__ZN111_$LT$regex_automata..util..prefilter..memmem..Memmem$u20$as$u20$regex_automata..util..prefilter..PrefilterI$GT$6prefix17h580b361992d58edaE",
            "__ZN57_$LT$std..path..Display$u20$as$u20$core..fmt..Display$GT$3fmt17hdcc2dd0d03777366E",
            "__ZN66_$LT$core..sync..atomic..AtomicU16$u20$as$u20$core..fmt..Debug$GT$3fmt17h85b45b09fe0c24b1E",
            "__ZN93_$LT$aho_corasick..util..primitives..StateID$u20$as$u20$core..convert..TryFrom$LT$u32$GT$$GT$8try_from17hdcce057d03085fa3E",
            "__ZN73_$LT$std..env..Vars$u20$as$u20$core..iter..traits..iterator..Iterator$GT$9size_hint17hb1e29c80848575b4E",
            "__ZN14regex_automata6hybrid5regex5Regex11pattern_len17hb949978f9cb41070E",
            "__ZN56_$LT$std..process..Child$u20$as$u20$core..fmt..Debug$GT$3fmt17h801eba29ffbf80adE",
            "__ZN6object4read3elf10attributes15AttributeReader11read_string17h3f1c5c8b356d4f60E",
            "__ZN75_$LT$cel_interpreter..ser..Serializer$u20$as$u20$serde..ser..Serializer$GT$13serialize_map17h4c9da26e949c4a2eE",
            "__ZN4core5slice4sort6stable14driftsort_main17hc9b6121cb28cb431E",
            "__ZN5alloc7raw_vec19RawVec$LT$T$C$A$GT$8grow_one17hf5303251cec693d6E",
            "__ZN5alloc7raw_vec19RawVec$LT$T$C$A$GT$8grow_one17hd6e2e742c0c51140E",
            "__ZN55_$LT$serde..de..OneOf$u20$as$u20$core..fmt..Display$GT$3fmt17hb33851c3b8dfbc80E",
            "__ZN4core3fmt3num50_$LT$impl$u20$core..fmt..Octal$u20$for$u20$i16$GT$3fmt17he31867690b201907E",
            "__ZN5regex8builders6string15RegexSetBuilder14dfa_size_limit17h1614ab13c97ecb27E",
            "__ZN3std4time7Instant22checked_duration_since17h84c229f1a1a0584aE",
            "__ZN4core10intrinsics3mir21__internal_make_place19panic_cold_explicit17hf8bbba1813d75908E",
            "__ZN63_$LT$regex..regex..bytes..Regex$u20$as$u20$core..fmt..Debug$GT$3fmt17h5e6e0d2067fc19a1E",
            "__ZN4core3fmt5float53_$LT$impl$u20$core..fmt..UpperExp$u20$for$u20$f32$GT$3fmt17h4858a9da2386c308E",
            "__ZN3std9panicking11panic_count19finished_panic_hook17hedf483b1d524aa96E",
            "__ZN42_$LT$str$u20$as$u20$core..fmt..Display$GT$3fmt17he000aa962b97c7e2E",
            "__ZN102_$LT$aho_corasick..util..primitives..StateIDIter$u20$as$u20$core..iter..traits..iterator..Iterator$GT$4next17hbb59e37bc1fb63b5E",
            "__ZN54_$LT$core..ffi..c_void$u20$as$u20$core..fmt..Debug$GT$3fmt17h61addfc49067f674E",
            "__ZN68_$LT$core..ptr..alignment..Alignment$u20$as$u20$core..fmt..Debug$GT$3fmt17h06ff2d3af095602bE",
            "__ZN5alloc7raw_vec19RawVec$LT$T$C$A$GT$8grow_one17hf3a789e005e0df7eE",
            "__ZN5bytes9bytes_mut8BytesMut6zeroed17hd4da3358255fcf8eE",
            "__ZN3std4path4Path6is_dir17h3fe974fe0eb2e639E",
            "__ZN73_$LT$std..sys..pal..unix..fs..OpenOptions$u20$as$u20$core..fmt..Debug$GT$3fmt17hfd655072ef971abeE",
            "__ZN79_$LT$core..ffi..c_str..FromBytesUntilNulError$u20$as$u20$core..fmt..Display$GT$3fmt17h48c1d79fffcb533cE",
            "__ZN4core3fmt9Formatter9debug_set17h1a5d0399dd8141c2E",
            "__ZN3std4sync6poison4once4Once10wait_force17ha36278b6ed232cadE",
            "__ZN4core3num7flt2dec8strategy6dragon15format_shortest17h3752453b1d894281E",
            "__ZN73_$LT$$RF$$u5b$u8$u5d$$u20$as$u20$nom..traits..FindToken$LT$$RF$u8$GT$$GT$10find_token17h273c441aa82ec244E",
            "__ZN5alloc11collections5btree4node171Handle$LT$alloc..collections..btree..node..NodeRef$LT$alloc..collections..btree..node..marker..Mut$C$K$C$V$C$NodeType$GT$$C$alloc..collections..btree..node..marker..KV$GT$15split_leaf_data17hff90ddf0b9e4161dE",
            "__ZN3std3sys3pal4unix6thread6Thread4join17h6d28e5f8016ea73dE",
            "__ZN83_$LT$object..xcoff..AuxHeader32$u20$as$u20$object..read..xcoff..file..AuxHeader$GT$7o_dsize17h60f8231b80baeda0E",
            "__ZN14regex_automata4util8alphabet4Unit7is_byte17h94bb48a35dd87b71E",
            "__ZN66_$LT$core..sync..atomic..AtomicI64$u20$as$u20$core..fmt..Debug$GT$3fmt17h73722fbce8ad23a5E",
            "__ZN6chrono6format4scan13short_weekday17hee5c361e854e9857E",
            "__ZN5bytes5bytes95_$LT$impl$u20$core..cmp..PartialOrd$LT$bytes..bytes..Bytes$GT$$u20$for$u20$$RF$$u5b$u8$u5d$$GT$11partial_cmp17h68ae9e96b2acccd6E",
            "__ZN3std2os4unix3net6stream10UnixStream17set_write_timeout17h39f097ffefb9ab83E",
            "__ZN14regex_automata4util8captures14GroupInfoInner14small_slot_len17h95db02f5bd3be78cE",
            "__ZN102_$LT$aho_corasick..util..alphabet..ByteClassIter$u20$as$u20$core..iter..traits..iterator..Iterator$GT$4next17h041a398c69d1c14eE",
            "__ZN83_$LT$std..sys..pal..unix..pipe..AnonPipe$u20$as$u20$std..os..fd..raw..FromRawFd$GT$11from_raw_fd17h0e2a8e6620767404E",
            "__ZN98_$LT$regex_automata..dfa..onepass..SlotsIter$u20$as$u20$core..iter..traits..iterator..Iterator$GT$4next17hf488555b7af56009E",
            "__ZN6object4read3elf10attributes22AttributeIndexIterator4next17h0e4fc1384e100eb2E",
            "__ZN62_$LT$core..char..ToLowercase$u20$as$u20$core..fmt..Display$GT$3fmt17h534c7ac167394ee4E",
            "__ZN14regex_automata3nfa8thompson6pikevm6PikeVM15create_captures17h651a6d4b0fef50beE",
            "__ZN4core3fmt3num54_$LT$impl$u20$core..fmt..LowerHex$u20$for$u20$u128$GT$3fmt17he9447baf8a8e80fcE",
            "__ZN10serde_json5value4from85_$LT$impl$u20$core..convert..From$LT$f64$GT$$u20$for$u20$serde_json..value..Value$GT$4from17hb47410a29b8d59efE",
            "__ZN84_$LT$$RF$alloc..borrow..Cow$LT$str$GT$$u20$as$u20$regex..regex..string..Replacer$GT$14replace_append17h5815828e1133a55eE",
            "__ZN14regex_automata3nfa8thompson9backtrack18BoundedBacktracker15create_captures17hb8706c1dd5baf04cE",
            "__ZN92_$LT$bytes..bytes..Bytes$u20$as$u20$core..convert..From$LT$alloc..vec..Vec$LT$u8$GT$$GT$$GT$4from17h1586179657b38547E",
            "__ZN80_$LT$bytes..bytes..Bytes$u20$as$u20$core..cmp..PartialEq$LT$$u5b$u8$u5d$$GT$$GT$2eq17hcdc532d375c6e550E",
            "__ZN240_$LT$$LT$serde..de..impls..$LT$impl$u20$serde..de..Deserialize$u20$for$u20$core..net..socket_addr..SocketAddr$GT$..deserialize..SocketAddrKind$u20$as$u20$serde..de..Deserialize$GT$..deserialize..KindVisitor$u20$as$u20$serde..de..Visitor$GT$9expecting17h71041d7c4485b4e6E",
            "__ZN3std2fs81_$LT$impl$u20$std..io..Seek$u20$for$u20$alloc..sync..Arc$LT$std..fs..File$GT$$GT$4seek17h8a8ce767bdbefeb0E",
            "__ZN5serde6format3Buf6as_str17h7cd3adc929347e2aE",
            "__ZN3std3sys14anonymous_pipe4unix76_$LT$impl$u20$std..os..fd..owned..AsFd$u20$for$u20$std..pipe..PipeWriter$GT$5as_fd17h2cf90c76829fa05dE",
            "__ZN3std3net11socket_addr130_$LT$impl$u20$std..sys_common..IntoInner$LT$libc..unix..bsd..sockaddr_in6$GT$$u20$for$u20$core..net..socket_addr..SocketAddrV6$GT$10into_inner17hc18d122a74b55757E",
            "__ZN4core3str19slice_error_fail_rt17h0c8fd663233703bcE",
            "__ZN75_$LT$chrono..naive..datetime..NaiveDateTime$u20$as$u20$core..fmt..Debug$GT$3fmt17h7d29997cf9f587f4E",
            "__ZN14regex_automata3dfa7onepass7Builder3new17h24f7c36c9ecc568dE",
            "__ZN5alloc4sync16Arc$LT$T$C$A$GT$9drop_slow17hba27108010b68ab5E",
            "__ZN4core9panicking13assert_failed17h409a7a097389a4a6E",
            "__ZN6chrono5naive4date9NaiveDate25from_weekday_of_month_opt17h88d8ac053d244ea6E",
            "__ZN5alloc4sync16Arc$LT$T$C$A$GT$9drop_slow17h47b1b21261e0b39aE",
            "__ZN4core3num6bignum8Big32x408mul_pow517heb60a00333db0894E",
            "__ZN3nom8internal50Err$LT$$LP$$RF$str$C$nom..error..ErrorKind$RP$$GT$8to_owned17ha32ef96314bead47E",
            "__ZN65_$LT$regex..regex..bytes..Regex$u20$as$u20$core..fmt..Display$GT$3fmt17h242bd23aa1cc8179E",
            "__ZN67_$LT$core..net..ip_addr..Ipv6Addr$u20$as$u20$core..fmt..Display$GT$3fmt17h3a913703b8f1e072E",
            "__ZN112_$LT$$LT$regex..regex..bytes..Captures$u20$as$u20$core..fmt..Debug$GT$..fmt..Key$u20$as$u20$core..fmt..Debug$GT$3fmt17h60fadc703c929825E",
            "__ZN3std3net3udp9UdpSocket16multicast_ttl_v417h79a3eb6669352630E",
            "__ZN95_$LT$regex_automata..util..primitives..StateID$u20$as$u20$core..convert..TryFrom$LT$u32$GT$$GT$8try_from17hfe26b371e5a2648bE",
            "__ZN3std3sys3pal4unix3net6Socket7new_raw17h4f52af1fa0a3a792E",
            "__ZN5alloc3str21_$LT$impl$u20$str$GT$12to_lowercase17hb00a1c346f6ce529E",
            "__ZN5gimli4arch6X86_6413register_name17h2ab224e486cf8fe2E",
            "__ZN60_$LT$std..time..Instant$u20$as$u20$core..ops..arith..Sub$GT$3sub17ha9b3798f9500f311E",
            "__ZN82_$LT$dyn$u20$core..any..Any$u2b$core..marker..Send$u20$as$u20$core..fmt..Debug$GT$3fmt17h9d5cd328bceee765E",
            "__ZN3std4sync7barrier7Barrier4wait17hee1e6c98d17c762aE",
            "__ZN88_$LT$std..time..Instant$u20$as$u20$core..ops..arith..Sub$LT$core..time..Duration$GT$$GT$3sub17h0e30465997d4031bE",
            "__ZN12regex_syntax3hir3Hir6concat17h97cfc25c57d13725E",
            "__ZN78_$LT$regex_automata..nfa..thompson..nfa..Inner$u20$as$u20$core..fmt..Debug$GT$3fmt17he384e7cc0a5413e1E",
            "__ZN62_$LT$gimli..constants..DwLne$u20$as$u20$core..fmt..Display$GT$3fmt17hb1206a46f467e3b8E",
            "__ZN14regex_automata4meta8wrappers18ReverseHybridCache5reset17h09f652d88089c2c5E",
            "__ZN5alloc7raw_vec19RawVec$LT$T$C$A$GT$8grow_one17h37f66d71fd5846e6E",
            "__ZN5bytes9bytes_mut8BytesMut5split17h2a08e0c186545762E",
            "__ZN12regex_syntax3hir7literal3Seq22optimize_by_preference17hff954468e66a9faaE",
            "__ZN3std3net3udp9UdpSocket18leave_multicast_v617h68e1e2212c19d5efE",
            "__ZN61_$LT$std..io..stdio..StderrLock$u20$as$u20$std..io..Write$GT$5write17h281136f1f9ab1768E",
            "__ZN79_$LT$object..xcoff..Symbol32$u20$as$u20$object..read..xcoff..symbol..Symbol$GT$6n_type17h27df78e69492aceeE",
            "__ZN6chrono6format10formatting11format_item17hd2d91711e298c65fE",
            "__ZN4core3num20from_str_radix_panic8do_panic7runtime17h3b6efc7bcc7ba560E",
            "__ZN75_$LT$core..net..socket_addr..SocketAddrV6$u20$as$u20$core..fmt..Display$GT$3fmt17h6014feeb5def2dc8E",
            "__ZN85_$LT$regex_automata..util..primitives..StateIDError$u20$as$u20$core..fmt..Display$GT$3fmt17h9d470e2ff4b1e5f4E",
            "__ZN3std3net3udp9UdpSocket17set_write_timeout17ha79c7296a0ccdb3fE",
            "__ZN6object4read2pe7section48_$LT$impl$u20$object..pe..ImageSectionHeader$GT$16pe_file_range_at17hbba3b43191c18571E",
            "__ZN92_$LT$cel_eval..ast..JSONAtom$u20$as$u20$core..convert..From$LT$cel_parser..ast..Atom$GT$$GT$4from17he41cc266aec71d7aE",
            "__ZN54_$LT$bytes..bytes..Bytes$u20$as$u20$core..cmp..Ord$GT$3cmp17h4e15dde815074c0fE",
            "__ZN61_$LT$gimli..constants..DwId$u20$as$u20$core..fmt..Display$GT$3fmt17hd89a31e20d76b045E",
            "__ZN5alloc7raw_vec19RawVec$LT$T$C$A$GT$8grow_one17he9446e26a0655449E",
            "__ZN3std2fs4File8try_lock17h6b681e199ce3f6baE",
            "__ZN5bytes9bytes_mut103_$LT$impl$u20$core..convert..From$LT$bytes..bytes_mut..BytesMut$GT$$u20$for$u20$bytes..bytes..Bytes$GT$4from17h83dbbf129257244bE",
            "__ZN61_$LT$$RF$std..io..stdio..Stderr$u20$as$u20$std..io..Write$GT$9write_all17h87e27aa80864bbc6E",
            "__ZN164_$LT$cel_eval..ast.._..$LT$impl$u20$serde..de..Deserialize$u20$for$u20$cel_eval..ast..JSONUnaryOp$GT$..deserialize..__FieldVisitor$u20$as$u20$serde..de..Visitor$GT$9expecting17h21d0a224e993ed6dE",
            "__ZN75_$LT$cel_interpreter..ser..Serializer$u20$as$u20$serde..ser..Serializer$GT$14serialize_char17h34add16fb7a7e42eE",
            "__ZN5gimli4read5value9ValueType8bit_size17hab17f41de87b65afE",
            "__ZN6object4read9ObjectMap3get17hb0b11a46aad105cbE",
            "__ZN121_$LT$cel_parser..parser..__parse__LogicalAnd..__StateMachine$u20$as$u20$lalrpop_util..state_machine..ParserDefinition$GT$15token_to_symbol17h659fd62cf9186a77E",
            "__ZN10cel_parser6parser18__parse__LogicalOr15LogicalOrParser5parse17hafc3d4dd3b5ea402E",
            "__ZN6memchr4arch3all6twoway18ApproximateByteSet3new17he8167ae7ee2f9d75E",
            "__ZN4core3f6421_$LT$impl$u20$f64$GT$5clamp8do_panic7runtime17hd3aa2d1abe452f35E",
            "__ZN63_$LT$$RF$std..process..ChildStdin$u20$as$u20$std..io..Write$GT$5write17h3dbca799d5818b4fE",
            "__ZN177_$LT$serde..de..impls..$LT$impl$u20$serde..de..Deserialize$u20$for$u20$core..num..nonzero..NonZero$LT$i128$GT$$GT$..deserialize..NonZeroVisitor$u20$as$u20$serde..de..Visitor$GT$9expecting17h6811a56d3dd9636aE",
            "__ZN3std3sys3pal4unix14abort_internal17h65ce1c7f91ab5c73E",
            "__ZN14regex_automata6hybrid3dfa3DFA12always_match17hcd709cd4488b01e9E",
            "__ZN49_$LT$u8$u20$as$u20$core..num..bignum..FullOps$GT$12full_div_rem17hf0462283da7afae4E",
            "__ZN4core5slice4sort6stable9quicksort9quicksort17h60104f3437162a2eE",
            "__ZN120_$LT$cel_parser..parser..__parse__Relations..__StateMachine$u20$as$u20$lalrpop_util..state_machine..ParserDefinition$GT$15token_to_symbol17h9014f0af9c5a6f6aE",
            "__ZN4core3fmt17FormattingOptions16get_debug_as_hex17h8fc3a55259c460e7E",
            "__ZN11uniffi_core3ffi10rustbuffer10RustBuffer13new_with_size17h126249febb7255afE",
            "__ZN73_$LT$core..fmt..num..LowerHex$u20$as$u20$core..fmt..num..GenericRadix$GT$5digit17h4058c1d23b31a4b4E",
            "__ZN5alloc11collections5btree4node119NodeRef$LT$alloc..collections..btree..node..marker..Mut$C$K$C$V$C$alloc..collections..btree..node..marker..Internal$GT$4push17h943fd657a858346fE",
            "__ZN5bytes3fmt3hex76_$LT$impl$u20$core..fmt..LowerHex$u20$for$u20$bytes..bytes_mut..BytesMut$GT$3fmt17hbca9b283ea241ac6E",
            "__ZN6chrono5naive4date9NaiveDate8add_days17h3cfb2e068c3e40dbE",
            "__ZN14regex_automata4util8captures8Captures22interpolate_bytes_into17he13d67e483f8fcdfE",
            "__ZN63_$LT$std..env..JoinPathsError$u20$as$u20$core..fmt..Display$GT$3fmt17h4a8e46868b2594b1E",
            "__ZN4core3num6bignum5tests6Big8x38mul_pow217h79dad6ba0c1add73E",
            "__ZN4core10intrinsics3mir4Call19panic_cold_explicit17hadee364f77f2ef85E",
            "__ZN10cel_parser6parser19__parse__FieldInits6__goto17ha91bd98120ed836eE",
            "__ZN5alloc5boxed7convert116_$LT$impl$u20$core..convert..From$LT$$RF$str$GT$$u20$for$u20$alloc..boxed..Box$LT$dyn$u20$core..error..Error$GT$$GT$4from17h46f6e673bf752003E",
            "__ZN3log13__private_api3loc17hc86216c66a7a6c99E",
            "__ZN4core9panicking11panic_const35panic_const_coroutine_resumed_panic17h1089591b463c0d25E",
            "__ZN94_$LT$regex_automata..util..determinize..state..StateBuilderNFA$u20$as$u20$core..fmt..Debug$GT$3fmt17hcd77025c80cb86a3E",
            "__ZN75_$LT$std..env..VarsOs$u20$as$u20$core..iter..traits..iterator..Iterator$GT$4next17h43e54ea58cde88d9E",
            "__ZN14regex_automata3nfa8thompson7builder7Builder8add_look17hccc1af1389fb1838E",
            "__ZN82_$LT$cel_interpreter..Program$u20$as$u20$core..convert..TryFrom$LT$$RF$str$GT$$GT$8try_from17h2cf20362f2ddf191E",
            "__ZN89_$LT$aho_corasick..packed..teddy..generic..FatMaskBuilder$u20$as$u20$core..fmt..Debug$GT$3fmt17hb99629cb77d48598E",
            "__ZN3std3sys3pal4unix2os8unsetenv17h6ba309ff71077e7eE",
            "__ZN81_$LT$$u5b$u8$u3b$$u20$19$u5d$$u20$as$u20$nom..traits..FindToken$LT$$RF$u8$GT$$GT$10find_token17h7509ecf02e0150f9E",
            "__ZN4core10intrinsics3mir17UnwindUnreachable19panic_cold_explicit17h573c38295d0182bdE",
            "__ZN6chrono6expect18panic_cold_display17h3329f8de09ee54d7E",
            "__ZN101_$LT$chrono..naive..date..NaiveDate$u20$as$u20$core..ops..arith..Add$LT$chrono..month..Months$GT$$GT$3add17h87c9ddcaa0c6246cE",
            "__ZN4core3str5count14do_count_chars17hd63bef4f8485f3c1E",
            "__ZN128_$LT$$LT$serde..de..WithDecimalPoint$u20$as$u20$core..fmt..Display$GT$..fmt..LookForDecimalPoint$u20$as$u20$core..fmt..Write$GT$9write_str17hc5a309b698482120E",
            "__ZN4core10intrinsics3mir15SetDiscriminant19panic_cold_explicit17hc249a8d506cb3410E",
            "__ZN4core9panicking11panic_const24panic_const_shl_overflow17h09f76d9f6c673d7eE",
            "__ZN5alloc7raw_vec19RawVec$LT$T$C$A$GT$8grow_one17h757b068ba6f0148cE",
            "__ZN10cel_parser6parser19__parse__LogicalAnd8__action17h26ce57ddfdfaa1b5E",
            "__ZN76_$LT$std..process..Command$u20$as$u20$std..os..unix..process..CommandExt$GT$6groups17h8945bd2305b2e2e9E",
            "__ZN3std6thread6Thread3new17hf4f5c8a4c4f820daE",
            "__ZN5alloc7raw_vec19RawVec$LT$T$C$A$GT$8grow_one17h21c04d2d96a77b00E",
            "__ZN70_$LT$serde..de..impls..StringVisitor$u20$as$u20$serde..de..Visitor$GT$9expecting17h739fa9a88cd28568E",
            "__ZN5alloc7raw_vec19RawVec$LT$T$C$A$GT$8grow_one17h46b9e61cc12a13fcE",
            "__ZN145_$LT$serde..de..impls..$LT$impl$u20$serde..de..Deserialize$u20$for$u20$isize$GT$..deserialize..PrimitiveVisitor$u20$as$u20$serde..de..Visitor$GT$9expecting17hd7388579b6309283E",
            "__ZN4core3ffi5c_str4CStr6to_str17h68e6ebd30b9c7aaaE",
            "__ZN5alloc7raw_vec19RawVec$LT$T$C$A$GT$8grow_one17h560d36962f98e4f2E",
            "__ZN3std2io5stdio6Stdout4lock17h919046c88d823931E",
            "__ZN4core9panicking11panic_const24panic_const_shr_overflow17hc36c0b901c1fd9d6E",
            "__ZN5gimli4arch3Arm16name_to_register17h8d8ac4208b687ca9E",
            "__ZN57_$LT$core..error..Request$u20$as$u20$core..fmt..Debug$GT$3fmt17h4a466a6751197adbE",
            "__ZN12regex_syntax3hir5Class16case_fold_simple17he1e0bbbadb28ea41E",
            "__ZN75_$LT$std..env..ArgsOs$u20$as$u20$core..iter..traits..iterator..Iterator$GT$9size_hint17h687e4c64c90f05eeE",
            "__ZN4core3str5count23char_count_general_case17hb4e84775d213d618E",
            "__ZN63_$LT$regex_syntax..debug..Bytes$u20$as$u20$core..fmt..Debug$GT$3fmt17h680421a0b635852aE",
            "__ZN81_$LT$regex_automata..hybrid..regex..Builder$u20$as$u20$core..default..Default$GT$7default17h5344dc8d93c7393eE",
            "__ZN5bytes9bytes_mut89_$LT$impl$u20$core..cmp..PartialOrd$LT$bytes..bytes_mut..BytesMut$GT$$u20$for$u20$str$GT$11partial_cmp17hd68cab0d28ccd4c5E",
            "__ZN3std3sys3pal4unix2fs6chroot17h5ddb475226b27fe8E",
            "__ZN67_$LT$chrono..round..RoundingError$u20$as$u20$core..fmt..Display$GT$3fmt17hf945e0eb41f114c2E",
            "__ZN6chrono5naive4date9NaiveDate18checked_sub_signed17h3dac6eaac79b0eaaE",
            "__ZN5alloc4sync16Arc$LT$T$C$A$GT$9drop_slow17h2b47e69c6350c5adE",
            "__ZN6chrono6format4Item8to_owned17h7f9e1d557dfb8540E",
            "__ZN70_$LT$alloc..vec..Vec$LT$T$C$A$GT$$u20$as$u20$core..ops..drop..Drop$GT$4drop17hadfc2e38434f3032E",
            "__ZN3std2io5stdio5Stdin4lock17hb689dabb39c41148E",
            "__ZN4core3fmt3num54_$LT$impl$u20$core..fmt..UpperExp$u20$for$u20$i128$GT$3fmt17h1f7269b7a44285b1E",
            "__ZN3std3sys4sync6rwlock5queue6RwLock14lock_contended17h1be7bdc770410ed4E",
            "__ZN64_$LT$object..read..SymbolIndex$u20$as$u20$core..fmt..Display$GT$3fmt17hc3581e6748583c59E",
            "__ZN6chrono5naive4date9NaiveDate11diff_months17hc8253062d494133dE",
            "__ZN65_$LT$std..thread..PanicGuard$u20$as$u20$core..ops..drop..Drop$GT$4drop17hd04a5d10fb6b3adcE",
            "__ZN5alloc4sync16Arc$LT$T$C$A$GT$9drop_slow17h5fce3db953a8e084E",
            "__ZN130_$LT$cel_parser..parser..__parse__ArithmeticMulDivMod..__StateMachine$u20$as$u20$lalrpop_util..state_machine..ParserDefinition$GT$15token_to_symbol17hbe05e8a7dac3988eE",
            "__ZN68_$LT$core..sync..atomic..AtomicUsize$u20$as$u20$core..fmt..Debug$GT$3fmt17hf5ab83d494c78f9cE",
            "__ZN14regex_automata4util6search10MatchError17haystack_too_long17h106633045b9e1296E",
            "__ZN6chrono5naive8datetime13NaiveDateTime19parse_and_remainder17h34b298ee1f16c4a3E",
            "__ZN4core3num6bignum5tests6Big8x33add17h8c3e66a9075b68d6E",
            "__ZN83_$LT$std..sys..pal..unix..fs..copy..FreeOnDrop$u20$as$u20$core..ops..drop..Drop$GT$4drop17h94470caf90908169E",
            "__ZN5alloc3ffi5c_str75_$LT$impl$u20$alloc..borrow..ToOwned$u20$for$u20$core..ffi..c_str..CStr$GT$10clone_into17h0e82e620e11b7f70E",
            "__ZN5gimli4read5Error11description17h6b83f1d0ffc4b005E",
            "__ZN79_$LT$bytes..bytes_mut..BytesMut$u20$as$u20$core..cmp..PartialOrd$LT$str$GT$$GT$11partial_cmp17hb81fa12752c4cfb7E",
            "__ZN6object4read2pe6import27DelayLoadDescriptorIterator4next17h13e1dbc2b6565fc2E",
            "__ZN83_$LT$serde_json..value..ser..MapKeySerializer$u20$as$u20$serde..ser..Serializer$GT$12serialize_u817h738aa79776fb967eE",
            "__ZN83_$LT$cel_parser..ast..Expression$u20$as$u20$cel_interpreter..magic..FromContext$GT$12from_context17hf860ce0099a4a53fE",
            "__ZN4core9panicking15const_panic_fmt17h82d79fa37a61ec3aE",
            "__ZN14regex_automata3nfa8thompson8compiler8Compiler6c_fail17hddfcef47f2a65b1fE",
            "__ZN80_$LT$$u5b$u8$u3b$$u20$8$u5d$$u20$as$u20$nom..traits..FindToken$LT$$RF$u8$GT$$GT$10find_token17ha7a78344b903afadE",
            "__ZN127_$LT$core..option..Option$LT$alloc..sync..Arc$LT$alloc..string..String$GT$$GT$$u20$as$u20$cel_interpreter..magic..FromValue$GT$10from_value17h782dcf2bf670a64fE",
            "__ZN3std4path4Path11file_prefix17he1d99a547b11f6d5E",
            "__ZN4core9panicking11panic_const28panic_const_async_fn_resumed17hbe21ca4a775275e8E",
            "__ZN4core7unicode12unicode_data2cc6lookup17he86ab54cec502654E",
            "__ZN5alloc4sync16Arc$LT$T$C$A$GT$9drop_slow17hf8627800de12c41bE",
            "__ZN117_$LT$cel_parser..parser..__parse__Member..__StateMachine$u20$as$u20$lalrpop_util..state_machine..ParserDefinition$GT$15expected_tokens17h012de08e7739da30E",
            "__ZN3std3net3tcp11TcpListener6accept17h23a49bcb01a068ffE",
            "__ZN88_$LT$bytes..bytes..Bytes$u20$as$u20$core..convert..From$LT$alloc..string..String$GT$$GT$4from17h3c51cc0dbe9ea3f4E",
            "__ZN78_$LT$cel_interpreter..ser..KeySerializer$u20$as$u20$serde..ser..Serializer$GT$13serialize_map17hbf226b479260e5a5E",
            "__ZN70_$LT$std..sys..pal..unix..fs..Dir$u20$as$u20$core..ops..drop..Drop$GT$4drop17h9f7c1ab38ce01d57E",
            "__ZN12regex_syntax3hir12ClassUnicode8is_ascii17h35039a08a9b46b83E",
            "__ZN62_$LT$core..char..ToUppercase$u20$as$u20$core..fmt..Display$GT$3fmt17h692c01863a6a5477E",
            "__ZN12regex_syntax3hir12ClassUnicode20try_case_fold_simple17h62913e02638e101aE",
            "__ZN89_$LT$regex_automata..nfa..thompson..range_trie..RangeTrie$u20$as$u20$core..fmt..Debug$GT$3fmt17h0f3cd27e364b5c06E",
            "__ZN83_$LT$object..xcoff..AuxHeader64$u20$as$u20$object..read..xcoff..file..AuxHeader$GT$10o_debugger17h32c25708bd19e9f1E",
            "__ZN4core3num7dec2flt60_$LT$impl$u20$core..str..traits..FromStr$u20$for$u20$f32$GT$8from_str17h32f7aefaadc4db61E",
            "__ZN5alloc4sync16Arc$LT$T$C$A$GT$9drop_slow17h0cee42d70cb884b9E",
            "__ZN4core3num6bignum8Big32x403add17h0a1de33637bc09bdE",
            "__ZN82_$LT$std..sys..pal..unix..fs..cfm..CachedFileMetadata$u20$as$u20$std..io..Read$GT$13read_vectored17h41c8e49105a9c11eE",
            "__ZN10cel_parser6parser19__parse__FieldInits8__action17hc31726e0884456fcE",
            "__ZN4core9panicking11panic_const38panic_const_async_gen_fn_resumed_panic17hb67dd41b76f46fc3E",
            "__ZN109_$LT$regex_automata..util..prefilter..teddy..Teddy$u20$as$u20$regex_automata..util..prefilter..PrefilterI$GT$4find17ha5343e65a82c0922E",
            "__ZN5alloc11collections5btree6search142_$LT$impl$u20$alloc..collections..btree..node..NodeRef$LT$BorrowType$C$K$C$V$C$alloc..collections..btree..node..marker..LeafOrInternal$GT$$GT$11search_tree17h7de83eb169be7d5cE",
            "__ZN144_$LT$serde..de..impls..$LT$impl$u20$serde..de..Deserialize$u20$for$u20$u128$GT$..deserialize..PrimitiveVisitor$u20$as$u20$serde..de..Visitor$GT$9expecting17h80d1de7f1071c6f0E",
            "__ZN4core3num7flt2dec8strategy6dragon12format_exact17h129378a1526215e5E",
            "__ZN12regex_syntax3hir7literal4rank17ha763718c3a843395E",
            "__ZN76_$LT$aho_corasick..util..error..BuildError$u20$as$u20$core..fmt..Display$GT$3fmt17ha49cb14d9a73977aE",
            "__ZN83_$LT$serde_json..value..ser..MapKeySerializer$u20$as$u20$serde..ser..Serializer$GT$16serialize_struct17hd0071c3d299d1216E",
            "__ZN5regex8builders5bytes12RegexBuilder10size_limit17h24badeaa70429931E",
            "__ZN5alloc7raw_vec19RawVec$LT$T$C$A$GT$8grow_one17h19672c6421b96f25E",
            "__ZN77_$LT$$u5b$u8$u3b$$u20$12$u5d$$u20$as$u20$nom..traits..FindToken$LT$u8$GT$$GT$10find_token17h7a982f350265eb8aE",
            "__ZN65_$LT$core..net..ip_addr..Ipv4Addr$u20$as$u20$core..fmt..Debug$GT$3fmt17h254bfc8e0979fe86E",
            "__ZN3std3sys3pal4unix7process14process_common7Command6stderr17h1c74995aca0e5e40E",
            "__ZN5alloc7raw_vec19RawVec$LT$T$C$A$GT$8grow_one17h189159e7daef44e5E",
            "__ZN8cel_eval21evaluate_with_context17hf31949eb9c66a1e0E",
            "__ZN159_$LT$cel_eval..ast.._..$LT$impl$u20$serde..de..Deserialize$u20$for$u20$cel_eval..ast..JSONUnaryOp$GT$..deserialize..__Visitor$u20$as$u20$serde..de..Visitor$GT$9expecting17hb52134643d48aca4E",
            "__ZN6object4read2pe4rich6memmem17h4575d05bc2c005d5E",
            "__ZN84_$LT$regex_automata..util..determinize..state..State$u20$as$u20$core..fmt..Debug$GT$3fmt17h4442c0216f2fe035E",
            "__ZN70_$LT$core..fmt..num..Octal$u20$as$u20$core..fmt..num..GenericRadix$GT$5digit17h9ba1584df238d749E",
            "__ZN78_$LT$cel_interpreter..ser..KeySerializer$u20$as$u20$serde..ser..Serializer$GT$15serialize_bytes17h8d552dc15ae0b92aE",
            "__ZN78_$LT$object..macho..FatArch64$u20$as$u20$object..read..macho..fat..FatArch$GT$4size17hc189f6f98840476bE",
            "__ZN5alloc5alloc18handle_alloc_error8ct_error17hf030ba2c5f3cb7edE",
            "__ZN3std3sys3pal4unix2fs6unlink17hbe5951bf31acddcaE",
            "__ZN59_$LT$$RF$std..io..stdio..Stdin$u20$as$u20$std..io..Read$GT$10read_exact17h5f148ffc611bb8c3E",
            "__ZN79_$LT$object..xcoff..Symbol64$u20$as$u20$object..read..xcoff..symbol..Symbol$GT$11name_offset17h9d174e56d7b75740E",
            "__ZN83_$LT$serde_json..value..ser..MapKeySerializer$u20$as$u20$serde..ser..Serializer$GT$13serialize_f3217hd873b50a74554cb2E",
            "__ZN12aho_corasick4util5error10MatchError18unsupported_stream17h4094e25a58a74673E",
            "__ZN81_$LT$$u5b$u8$u3b$$u20$10$u5d$$u20$as$u20$nom..traits..FindToken$LT$$RF$u8$GT$$GT$10find_token17h1a25a792e784c1b5E",
            "__ZN4core7unicode12unicode_data15grapheme_extend11lookup_slow17hcce649b589da28bfE",
            "__ZN12regex_syntax3hir12ClassUnicode9intersect17hc72935fe1690bb51E",
            "__ZN12regex_syntax3ast3Ast9assertion17h327a2db2cbb9bda3E",
            "__ZN14regex_automata4util8alphabet4Unit12is_word_byte17h2f89ecb874fc824aE",
            "__ZN11uniffi_core8metadata14MetadataBuffer15concat_long_str17hdac9853d7637855eE",
            "__ZN4core7unicode12unicode_data10alphabetic6lookup17h64ea393606507a72E",
            "__ZN87_$LT$chrono..naive..datetime..NaiveDateTime$u20$as$u20$chrono..round..DurationRound$GT$14duration_trunc17hab53ffd6969d5a8fE",
            "__ZN3std7process7Command9env_clear17he276fd3e1d39eaa1E",
            "__ZN14regex_automata4util6syntax10parse_with17heaf4085c4180430bE",
            "__ZN4core10intrinsics3mir11Unreachable19panic_cold_explicit17h878d4285efb42d1fE",
            "__ZN10cel_parser6parser25__parse__ArithmeticAddSub6__goto17h98002a42ee257354E",
            "__ZN63_$LT$chrono..offset..utc..Utc$u20$as$u20$core..fmt..Display$GT$3fmt17h76e27691db1785c3E",
            "__ZN14regex_automata6hybrid3dfa7LazyRef7dead_id17hf43ba2080e12a323E",
            "__ZN86_$LT$memchr..memmem..FindRevIter$u20$as$u20$core..iter..traits..iterator..Iterator$GT$4next17h15edfe0361ca0898E",
            "__ZN6chrono5naive4time9NaiveTime22overflowing_add_signed17h25b059488b6f9eacE",
            "__ZN111_$LT$aho_corasick..util..alphabet..ByteClassElementRanges$u20$as$u20$core..iter..traits..iterator..Iterator$GT$4next17h049e79aa583daccdE",
            "__ZN67_$LT$core..sync..atomic..AtomicU128$u20$as$u20$core..fmt..Debug$GT$3fmt17h3175b12c96b808a3E",
            "__ZN102_$LT$chrono..naive..date..NaiveDateWeeksIterator$u20$as$u20$core..iter..traits..iterator..Iterator$GT$4next17h2006e4d9e8886c3bE",
            "__ZN58_$LT$std..io..stdio..StdinRaw$u20$as$u20$std..io..Read$GT$4read17h04808aa9472b1e02E",
            "__ZN94_$LT$bytes..bytes..Bytes$u20$as$u20$core..cmp..PartialOrd$LT$alloc..vec..Vec$LT$u8$GT$$GT$$GT$11partial_cmp17h3286d0b42840cf2fE",
            "__ZN107_$LT$aho_corasick..util..prefilter..RareBytesThree$u20$as$u20$aho_corasick..util..prefilter..PrefilterI$GT$7find_in17ha1865cb16596355aE",
            "__ZN88_$LT$std..env..Args$u20$as$u20$core..iter..traits..double_ended..DoubleEndedIterator$GT$9next_back17h28d36a682822aeb0E",
            "__ZN4core5slice5index31slice_start_index_overflow_fail17h136c415921f45fe5E",
            "__ZN98_$LT$aho_corasick..nfa..noncontiguous..NFA$u20$as$u20$aho_corasick..util..remapper..Remappable$GT$11swap_states17h01bbcd29c04c4a48E",
            "__ZN57_$LT$alloc..string..Drain$u20$as$u20$core..fmt..Debug$GT$3fmt17he89b6448282c3357E",
            "__ZN83_$LT$object..xcoff..AuxHeader64$u20$as$u20$object..read..xcoff..file..AuxHeader$GT$9o_sntdata17hfe0a54242550e3a3E",
            "__ZN85_$LT$core..num..nonzero..NonZero$LT$u16$GT$$u20$as$u20$core..str..traits..FromStr$GT$8from_str17h7ff5a310a8a2c70eE",
            "__ZN6chrono5naive8datetime13NaiveDateTime18checked_sub_offset17h119f6e1f2c7938f1E",
            "__ZN3std3sys3pal4unix7process14process_common7Command6stdout17h708e53d5051d8450E",
            "__ZN5alloc4sync16Arc$LT$T$C$A$GT$9drop_slow17hd64e4de5d0632223E",
            "__ZN127_$LT$core..result..Result$LT$i64$C$cel_interpreter..ExecutionError$GT$$u20$as$u20$cel_interpreter..magic..IntoResolveResult$GT$19into_resolve_result17h99969b3d4df2969fE",
            "__ZN60_$LT$futures_lite..io..Empty$u20$as$u20$core..fmt..Debug$GT$3fmt17hf19d0fa3ad7c72f9E",
            "__ZN3std3ffi6os_str8OsString17into_boxed_os_str17h54bb28f993b87835E",
            "__ZN4core3net6parser93_$LT$impl$u20$core..str..traits..FromStr$u20$for$u20$core..net..socket_addr..SocketAddrV4$GT$8from_str17hc95206a785600e16E",
            "__ZN14regex_automata4util6search10PatternSet3new17hcee82f0b31378ed8E",
            "__ZN121_$LT$cel_parser..parser..__parse__FieldInits..__StateMachine$u20$as$u20$lalrpop_util..state_machine..ParserDefinition$GT$15simulate_reduce17he1b2e0b2e03a8e1bE",
            "__ZN101_$LT$chrono..naive..date..NaiveDate$u20$as$u20$core..ops..arith..Sub$LT$chrono..month..Months$GT$$GT$3sub17hf27e0ea1c2175ca1E",
            "__ZN107_$LT$object..read..pe..relocation..RelocationIterator$u20$as$u20$core..iter..traits..iterator..Iterator$GT$4next17hc857d5181665d744E",
            "__ZN4core3num6bignum8Big32x407div_rem17h4f9a39e9ff539e56E",
            "__ZN14regex_automata4util8captures14GroupInfoError9duplicate17hc00f73ea418b3984E",
            "__ZN12regex_syntax3hir5Class7is_utf817h30a220a722c1d5f0E",
            "__ZN3std6thread6scoped9ScopeData29decrement_num_running_threads17hff671748b73cb7a2E",
            "__ZN14regex_automata6hybrid5regex5Regex3new17hf0598b911c164f4bE",
            "__ZN4core10intrinsics3mir4Move19panic_cold_explicit17h5d76cf852d5d81fbE",
            "__ZN4core3fmt3num54_$LT$impl$u20$core..fmt..UpperHex$u20$for$u20$u128$GT$3fmt17h494a37e440f3ce57E",
            "__ZN57_$LT$std..io..stdio..Stderr$u20$as$u20$std..io..Write$GT$5write17hef521506e0e3060dE",
            "__ZN5alloc4sync16Arc$LT$T$C$A$GT$9drop_slow17h9221db2a1c6b9250E",
            "__ZN65_$LT$core..net..ip_addr..IpAddr$u20$as$u20$core..fmt..Display$GT$3fmt17h578dff08fdad9b95E",
            "__ZN119_$LT$cel_parser..parser..__parse__MapInits..__StateMachine$u20$as$u20$lalrpop_util..state_machine..ParserDefinition$GT$15simulate_reduce17hc9d54006cbe5b966E",
            "__ZN57_$LT$i64$u20$as$u20$cel_interpreter..magic..FromValue$GT$10from_value17h9443968312a73170E",
            "__ZN5alloc7raw_vec20RawVecInner$LT$A$GT$14grow_amortized17h18c7f3c9ab56fbe5E",
            "__ZN103_$LT$regex_automata..util..search..PatternSetIter$u20$as$u20$core..iter..traits..iterator..Iterator$GT$9size_hint17h6baed75ef5851ef0E",
            "__ZN8cel_eval12parse_to_ast17hb6d05568458775f2E",
            "__ZN8cel_eval12evaluate_ast17hd111c18575832958E",
            "__ZN63_$LT$gimli..constants..DwForm$u20$as$u20$core..fmt..Display$GT$3fmt17habd6dd28bd1101aaE",
            "__ZN94_$LT$regex_syntax..hir..ClassUnicodeIter$u20$as$u20$core..iter..traits..iterator..Iterator$GT$4next17h831770e8b7592de5E",
            "__ZN4core5slice6memchr7memrchr17he9bea2c84888e5b8E",
            "__ZN4core3fmt8builders11DebugStruct5field17h8d59c52c7cbb5266E",
            "__ZN80_$LT$regex_automata..util..sparse_set..SparseSet$u20$as$u20$core..fmt..Debug$GT$3fmt17h1b666bd58ba77ec6E",
            "__ZN5regex9find_byte9find_byte17h5e13cd85906ea1f2E",
            "__ZN87_$LT$regex_automata..nfa..thompson..literal_trie..State$u20$as$u20$core..fmt..Debug$GT$3fmt17h660eb61c4d30c363E",
            "__ZN6anyhow5error168_$LT$impl$u20$core..convert..From$LT$anyhow..Error$GT$$u20$for$u20$alloc..boxed..Box$LT$dyn$u20$core..error..Error$u2b$core..marker..Send$u2b$core..marker..Sync$GT$$GT$4from17h60dba32b86799f93E",
            "__ZN3std3sys3pal4unix2fs4File4read17hc09f265f6ae3b71cE",
            "__ZN12aho_corasick3nfa13noncontiguous3NFA14add_transition17h47f7856633b066e5E",
            "__ZN14regex_automata4util11determinize5state5State9match_len17h1b62c93d7dd741f3E",
            "__ZN3std7process7Command6status17hac0b6d089c739f8fE",
            "__ZN86_$LT$core..char..CaseMappingIter$u20$as$u20$core..iter..traits..iterator..Iterator$GT$10advance_by17h3750b99d4ae22b63E",
            "__ZN73_$LT$aho_corasick..util..debug..DebugByte$u20$as$u20$core..fmt..Debug$GT$3fmt17h813af32ce57d0225E",
            "__ZN78_$LT$std..sys..pal..unix..fd..FileDesc$u20$as$u20$std..os..fd..owned..AsFd$GT$5as_fd17h9814e69a69328132E",
            "__ZN6anyhow5error31_$LT$impl$u20$anyhow..Error$GT$10from_boxed17h1c1fb592bf3952d0E",
            "__ZN127_$LT$dyn$u20$cel_eval..HostContext$u20$as$u20$uniffi_core..ffi_converter_traits..FfiConverterArc$LT$cel_eval..UniFfiTag$GT$$GT$8try_read17h6d3e7486bb163e06E",
            "__ZN14regex_automata6hybrid5regex7Builder3dfa17hc8b5c7078442f055E",
            "__ZN94_$LT$serde..__private..de..borrow_cow_bytes..CowBytesVisitor$u20$as$u20$serde..de..Visitor$GT$9expecting17h11ef367b609e5103E",
            "__ZN169_$LT$core..result..Result$LT$alloc..sync..Arc$LT$alloc..string..String$GT$$C$cel_interpreter..ExecutionError$GT$$u20$as$u20$cel_interpreter..magic..IntoResolveResult$GT$19into_resolve_result17h951df55c9841e2c9E",
            "__ZN97_$LT$regex..regexset..bytes..SetMatchesIter$u20$as$u20$core..iter..traits..iterator..Iterator$GT$4next17hcab7171e94e6d1deE",
            "__ZN69_$LT$regex_syntax..ast..ClassSet$u20$as$u20$core..ops..drop..Drop$GT$4drop17h37d2be43a310a6c0E",
            "__ZN86_$LT$core..option..Option$LT$bool$GT$$u20$as$u20$cel_interpreter..magic..FromValue$GT$10from_value17hb1f5876d241754bdE",
            "__ZN5regex5regex5bytes100_$LT$impl$u20$core..convert..From$LT$regex..regex..bytes..Match$GT$$u20$for$u20$$RF$$u5b$u8$u5d$$GT$4from17he8045b11a6ee3eafE",
            "__ZN14regex_automata4meta8wrappers7OnePass12create_cache17h4ed93a602fefe65cE",
            "__ZN4core9panicking13assert_failed17heddd1b1ce86edb63E",
            "__ZN12aho_corasick3nfa13noncontiguous8Compiler7shuffle17h394647841305aa13E",
            "__ZN97_$LT$std..time..SystemTime$u20$as$u20$core..ops..arith..AddAssign$LT$core..time..Duration$GT$$GT$10add_assign17hd459b9d270f79650E",
            "__ZN60_$LT$std..io..error..Error$u20$as$u20$core..error..Error$GT$6source17h6d11c1f178fbbee4E",
            "__ZN3std3env8home_dir17h8615cf4bfe54ef25E",
            "__ZN3std3net3tcp9TcpStream16set_read_timeout17h7a8e86179ff89955E",
            "__ZN3std2os4unix3net8datagram12UnixDatagram9peer_addr17h47fbb685197664caE",
            "__ZN5alloc7raw_vec19RawVec$LT$T$C$A$GT$8grow_one17hed9364c8baffff64E",
            "__ZN3std9backtrace9Backtrace7capture17h4b0a6725a734eb76E",
            "__ZN62_$LT$core..task..wake..Context$u20$as$u20$core..fmt..Debug$GT$3fmt17hff551fe8c5eb3fafE",
            "__ZN3std3net3udp9UdpSocket16set_read_timeout17h145bd39bf6acadd9E",
            "__ZN120_$LT$cel_parser..parser..__parse__Relations..__StateMachine$u20$as$u20$lalrpop_util..state_machine..ParserDefinition$GT$6reduce17h90b0ce867231a07eE",
            "__ZN12regex_syntax3ast3Ast5group17h3a2fe35daa36c8fdE",
            "__ZN5alloc4sync16Arc$LT$T$C$A$GT$9drop_slow17hf9c74c68cc6f10f9E",
            "__ZN3std3sys3pal4unix2fs15remove_dir_impl14remove_dir_all17hf5c231056d5ee81dE",
            "__ZN5alloc5boxed7convert138_$LT$impl$u20$core..convert..From$LT$alloc..borrow..Cow$LT$str$GT$$GT$$u20$for$u20$alloc..boxed..Box$LT$dyn$u20$core..error..Error$GT$$GT$4from17h5dcfe40c0a9803b5E",
            "__ZN77_$LT$$RF$std..os..unix..net..stream..UnixStream$u20$as$u20$std..io..Write$GT$14write_vectored17hd9ee8b7182f6d6a2E",
            "__ZN6anyhow5chain66_$LT$impl$u20$core..default..Default$u20$for$u20$anyhow..Chain$GT$7default17hce09b9c8aea7e592E",
            "__ZN92_$LT$$RF$str$u20$as$u20$nom..traits..Slice$LT$core..ops..range..RangeTo$LT$usize$GT$$GT$$GT$5slice17h1ecfcdb4d4a654f3E",
            "__ZN4core3fmt3num3imp53_$LT$impl$u20$core..fmt..UpperExp$u20$for$u20$i16$GT$3fmt17hb1cc5672de02277dE",
            "__ZN94_$LT$object..xcoff..SectionHeader64$u20$as$u20$object..read..xcoff..section..SectionHeader$GT$8s_nreloc17h913ca04014ee7e31E",
            "__ZN6memchr4arch3all6twoway5Shift7reverse17hd4236ee58b347952E",
            "__ZN167_$LT$cel_eval..ast.._..$LT$impl$u20$serde..de..Deserialize$u20$for$u20$cel_eval..ast..JSONRelationOp$GT$..deserialize..__FieldVisitor$u20$as$u20$serde..de..Visitor$GT$9expecting17he7a977054baedd84E",
            "__ZN9hashbrown3raw21RawTable$LT$T$C$A$GT$14reserve_rehash17h6811852e2a4b3395E",
            "__ZN127_$LT$dyn$u20$cel_eval..HostContext$u20$as$u20$uniffi_core..ffi_converter_traits..FfiConverterArc$LT$cel_eval..UniFfiTag$GT$$GT$5lower17hc1fbb67343155c27E",
            "__ZN175_$LT$serde..de..impls..$LT$impl$u20$serde..de..Deserialize$u20$for$u20$core..num..nonzero..NonZero$LT$i8$GT$$GT$..deserialize..NonZeroVisitor$u20$as$u20$serde..de..Visitor$GT$9expecting17h24e164dcc3b51099E",
            "__ZN3std4path4Path13_strip_prefix17ha88bf4e9905ea679E",
            "__ZN5alloc7raw_vec20RawVecInner$LT$A$GT$7reserve21do_reserve_and_handle17h7a27aa0fb19954b8E",
            "__ZN76_$LT$std..thread..spawnhook..SpawnHooks$u20$as$u20$core..ops..drop..Drop$GT$4drop17hf61e507da03e1ef8E",
            "__ZN5alloc7raw_vec19RawVec$LT$T$C$A$GT$8grow_one17h2ec9305894463d5bE",
            "__ZN5alloc3ffi5c_str7CString19_from_vec_unchecked17hbb3ee2e537443f26E",
            "__ZN4core3fmt5float52_$LT$impl$u20$core..fmt..Display$u20$for$u20$f64$GT$3fmt17h001c0a637e720298E",
            "__ZN63_$LT$std..process..ExitStatus$u20$as$u20$core..fmt..Display$GT$3fmt17hc8e9391c03bfc1b5E",
            "__ZN64_$LT$std..sync..barrier..Barrier$u20$as$u20$core..fmt..Debug$GT$3fmt17hd388225eedfb2b68E",
            "__ZN92_$LT$regex_syntax..hir..ClassBytesRange$u20$as$u20$regex_syntax..hir..interval..Interval$GT$16case_fold_simple17hc70740385d3a0458E",
            "__ZN3std3net3tcp9TcpStream15connect_timeout17h5c6b97f44e6a4b38E",
            "__ZN3std3sys6os_str5bytes5Slice10clone_into17h7090172d906e8609E",
            "__ZN3std3net3udp9UdpSocket9peek_from17h04c8b4fcc78a4b22E",
            "__ZN5alloc7raw_vec19RawVec$LT$T$C$A$GT$8grow_one17h1bbc03f619969adeE",
            "__ZN70_$LT$serde_json..read..SliceRead$u20$as$u20$serde_json..read..Read$GT$8position17h69781089069f61b6E",
            "__ZN4core3fmt3num3imp52_$LT$impl$u20$core..fmt..UpperExp$u20$for$u20$u8$GT$3fmt17hf80b15b473df766cE",
            "__ZN76_$LT$$u5b$u8$u3b$$u20$6$u5d$$u20$as$u20$nom..traits..FindToken$LT$u8$GT$$GT$10find_token17ha7e1e33723941a86E",
            "__ZN60_$LT$std..io..error..Error$u20$as$u20$core..error..Error$GT$11description17hb931c1abc01fd913E",
            "__ZN3std2io5stdio23attempt_print_to_stderr17h6a2d9072623906d2E",
            "__ZN4core7unicode12unicode_data5cased6lookup17h7744bd50d766264eE",
            "__ZN5gimli4arch9LoongArch16name_to_register17h41fa6efdba9e0dd5E",
            "__ZN112_$LT$regex_automata..util..prefilter..memchr..Memchr3$u20$as$u20$regex_automata..util..prefilter..PrefilterI$GT$4find17h1f41cf1021c561a2E",
            "__ZN70_$LT$regex..regexset..string..RegexSet$u20$as$u20$core..fmt..Debug$GT$3fmt17hf0a6c2a94f604a1aE",
            "__ZN94_$LT$object..xcoff..SectionHeader32$u20$as$u20$object..read..xcoff..section..SectionHeader$GT$9s_lnnoptr17hc9c5d93287d862f2E",
            "__ZN59_$LT$std..process..ChildStderr$u20$as$u20$std..io..Read$GT$11read_to_end17h0ecd08b281f443a1E",
            "__ZN4core3fmt8builders8DebugSet6finish17h1a2a18b05c4322fbE",
            "__ZN3std7process5abort17h6288bdc10fcde32fE",
            "__ZN67_$LT$core..str..iter..EscapeDebug$u20$as$u20$core..fmt..Display$GT$3fmt17h1ea19c433930c190E",
            "__ZN14regex_automata4meta8strategy4Core19search_slots_nofail17h30ad96d935b3ba4fE",
            "__ZN61_$LT$std..io..stdio..StderrLock$u20$as$u20$std..io..Write$GT$9write_all17h41cc9506017e781dE",
            "__ZN3std4path4Path10_ends_with17h053c60872251dfe5E",
            "__ZN85_$LT$chrono..time_delta..TimeDelta$u20$as$u20$cel_interpreter..magic..FromContext$GT$12from_context17hf2efbbb5d42756cbE",
            "__ZN83_$LT$object..xcoff..AuxHeader64$u20$as$u20$object..read..xcoff..file..AuxHeader$GT$8o_sndata17hfeacc56c48b72eb2E",
            "__ZN5gimli4arch4MIPS13register_name17hd27f144a456158b2E",
            "__ZN3ryu6pretty8format3217h5d683158471182a7E",
            "__ZN15cel_interpreter9functions8contains17h2db986d16cc9fa14E",
            "__ZN90_$LT$std..sys_common..net..LookupHost$u20$as$u20$core..convert..TryFrom$LT$$RF$str$GT$$GT$8try_from17h87d8dfde7de0231eE",
            "__ZN4core3fmt3num53_$LT$impl$u20$core..fmt..Binary$u20$for$u20$isize$GT$3fmt17h84f5a1f5c0f78285E",
            "__ZN5alloc11collections5btree4node121NodeRef$LT$alloc..collections..btree..node..marker..Owned$C$K$C$V$C$alloc..collections..btree..node..marker..Internal$GT$12new_internal17h197babc335763785E",
            "__ZN86_$LT$core..char..CaseMappingIter$u20$as$u20$core..iter..traits..iterator..Iterator$GT$4last17h154fff00f6a507deE",
            "__ZN51_$LT$$RF$std..fs..File$u20$as$u20$std..io..Read$GT$14read_to_string17h92fb4ed96638fcc8E",
            "__ZN5regex8builders6string15RegexSetBuilder10size_limit17hbd9ee2c807fd81d8E",
            "__ZN11uniffi_core8metadata14MetadataBuffer11concat_bool17h15211ee8ac885f9aE",
            "__ZN54_$LT$std..fs..FileType$u20$as$u20$core..fmt..Debug$GT$3fmt17h913e3954c83ee647E",
            "__ZN83_$LT$std..sys..pal..unix..fs..cfm..CachedFileMetadata$u20$as$u20$std..io..Write$GT$5write17hcd88728e5fb8b84aE",
            "__ZN3std10sys_common3net9TcpStream7connect17h676d00452e4a9411E",
            "__ZN88_$LT$regex..regex..bytes..Captures$u20$as$u20$core..ops..index..Index$LT$$RF$str$GT$$GT$5index17h2763228a4334d5beE",
            "__ZN5alloc4sync16Arc$LT$T$C$A$GT$9drop_slow17h022a08d27b5da4f3E",
            "__ZN73_$LT$core..fmt..num..UpperHex$u20$as$u20$core..fmt..num..GenericRadix$GT$5digit17h6e7fd20efb956d61E",
            "__ZN121_$LT$cel_parser..parser..__parse__Expression..__StateMachine$u20$as$u20$lalrpop_util..state_machine..ParserDefinition$GT$15token_to_symbol17haf71b6f6c94697b8E",
            "__ZN14regex_automata4meta5regex5Regex12create_cache17h82821e43a3ad55e7E",
            "__ZN4core5slice4sort6stable14driftsort_main17hbd0f3f4549201496E",
            "__ZN3log10set_logger17h36a58bf02a738013E",
            "__ZN15cel_interpreter14ExecutionError20undeclared_reference17h5290df57b3ac9ef1E",
            "__ZN5alloc7raw_vec19RawVec$LT$T$C$A$GT$8grow_one17h9807ad3ea3864048E",
            "__ZN14rustc_demangle12try_demangle17h2aeeec5f10ad0100E",
            "__ZN6object4read3elf10attributes15AttributeReader12read_integer17h7d72278768756c1dE",
            "__ZN9hashbrown3raw21RawTable$LT$T$C$A$GT$14reserve_rehash17ha90222f889ebaaffE",
            "__ZN128_$LT$core..result..Result$LT$bool$C$cel_interpreter..ExecutionError$GT$$u20$as$u20$cel_interpreter..magic..IntoResolveResult$GT$19into_resolve_result17h61139ccdfe2ae8caE",
            "__ZN4core3fmt8builders9DebugList5entry17h4a64a4afc55ff470E",
            "__ZN5regex8builders6string15RegexSetBuilder15line_terminator17h75de318aa32d5bccE",
            "__ZN6object4read2pe6export11ExportTable15target_by_index17h72d95710b3c44268E",
            "__ZN5alloc11collections5btree4node13move_to_slice17hcdec174a9da6dcfeE",
            "__ZN86_$LT$core..char..CaseMappingIter$u20$as$u20$core..iter..traits..iterator..Iterator$GT$4next17h7a266b70fec9dfb1E",
            "__ZN83_$LT$serde_json..value..ser..MapKeySerializer$u20$as$u20$serde..ser..Serializer$GT$13serialize_u1617hff9d52a575f331c8E",
            "__ZN10cel_parser6parser18__parse__LogicalOr6__goto17hc4e96c4950896ad2E",
            "__ZN159_$LT$serde..de..impls..$LT$impl$u20$serde..de..Deserialize$u20$for$u20$core..time..Duration$GT$..deserialize..DurationVisitor$u20$as$u20$serde..de..Visitor$GT$9expecting17h1ab8235367c3ce89E",
            "__ZN73_$LT$chrono..weekday..ParseWeekdayError$u20$as$u20$core..fmt..Display$GT$3fmt17hd28d7f531d1e2088E",
            "__ZN4core3net6parser54_$LT$impl$u20$core..net..socket_addr..SocketAddrV4$GT$11parse_ascii17hbc9156622fef831cE",
            "__ZN4core10intrinsics3mir5Field19panic_cold_explicit17h982ebea6b693330cE",
            "__ZN9addr2line13demangle_auto17h7ae5bc1ed73103d0E",
            "__ZN14regex_automata6hybrid3dfa7Builder14build_from_nfa17h8ad1a238b1e5eabdE",
            "__ZN15cel_interpreter7objects5Value6member17h5d705ef4d977129fE",
            "__ZN71_$LT$$RF$std..sys..pal..unix..fd..FileDesc$u20$as$u20$std..io..Read$GT$13read_vectored17h8e886e975eebdde3E",
            "__ZN5gimli4read5value5Value11reinterpret17h0a1b000cfb04437fE",
            "__ZN9addr2line9path_push17h6083a8d44af3f59bE",
            "__ZN4core10intrinsics3mir12UnwindResume19panic_cold_explicit17hf0f3b346f59d57a7E",
            "__ZN4core9panicking11panic_const24panic_const_div_overflow17h8665c0c613abd608E",
            "__ZN10cel_parser6parser25__parse__ArithmeticAddSub22ArithmeticAddSubParser3new17hf924a825cd21338fE",
            "__ZN4core3str7pattern11StrSearcher3new17h67ee3d9c19843431E",
            "__ZN10serde_json3map5Entry9or_insert17h3c26d94467120dbeE",
            "__ZN4core5slice5index24slice_end_index_len_fail17hf4c2bbbcbc725bbcE",
            "__ZN3std2os4unix7process9parent_id17hd2043ead9d26dd92E",
            "__ZN5gimli4arch9LoongArch13register_name17he5043e02e2ff3446E",
            "__ZN56_$LT$std..pipe..PipeWriter$u20$as$u20$std..io..Write$GT$14write_vectored17h74458d30499e48e7E",
            "__ZN81_$LT$$u5b$u8$u3b$$u20$21$u5d$$u20$as$u20$nom..traits..FindToken$LT$$RF$u8$GT$$GT$10find_token17hba1900a54aaa40aeE",
            "__ZN5regex8builders5bytes15RegexSetBuilder14dfa_size_limit17hde4fda14ca223b71E",
            "__ZN15cel_interpreter9functions9ends_with17h8a6845018928cbc0E",
            "__ZN71_$LT$aho_corasick..nfa..contiguous..NFA$u20$as$u20$core..fmt..Debug$GT$3fmt17h1911df30ebf0f68aE",
            "__ZN14regex_automata6hybrid3dfa7Builder5build17h5aaee589855d7cf1E",
            "__ZN126_$LT$$LT$regex..regex..string..Captures$u20$as$u20$core..fmt..Debug$GT$..fmt..CapturesDebugMap$u20$as$u20$core..fmt..Debug$GT$3fmt17h6cd2a450ac6ffe9cE",
            "__ZN5gimli4read6abbrev13Abbreviations6insert17h12cc136484580fe0E",
            "__ZN108_$LT$regex_automata..util..captures..GroupInfoAllNames$u20$as$u20$core..iter..traits..iterator..Iterator$GT$4next17h605d0e1673751c63E",
            "__ZN3std3net3udp9UdpSocket4recv17h0702c4cc0cb8a988E",
            "__ZN137_$LT$$LT$serde..de..impls..OsStringKind$u20$as$u20$serde..de..Deserialize$GT$..deserialize..KindVisitor$u20$as$u20$serde..de..Visitor$GT$9expecting17h5832c63971ba296dE",
            "__ZN127_$LT$regex_automata..meta..error..RetryError$u20$as$u20$core..convert..From$LT$regex_automata..util..search..MatchError$GT$$GT$4from17h45689b2582cc2094E",
            "__ZN88_$LT$uniffi_core..ffi..foreignfuture..ForeignFuture$u20$as$u20$core..ops..drop..Drop$GT$4drop17hbe26a546f82634deE",
            "__ZN4core10intrinsics3mir6Static19panic_cold_explicit17ha020f6c91f3bb86dE",
            "__ZN85_$LT$core..option..Option$LT$f64$GT$$u20$as$u20$cel_interpreter..magic..FromValue$GT$10from_value17hccc6f43fc2af7b21E",
            "__ZN77_$LT$alloc..ffi..c_str..FromVecWithNulError$u20$as$u20$core..fmt..Display$GT$3fmt17h98e2b0d933a03a2bE",
            "__ZN81_$LT$$u5b$u8$u3b$$u20$12$u5d$$u20$as$u20$nom..traits..FindToken$LT$$RF$u8$GT$$GT$10find_token17h170623b81edb9256E",
            "__ZN187_$LT$serde..de..impls..$LT$impl$u20$serde..de..Deserialize$u20$for$u20$core..num..saturating..Saturating$LT$isize$GT$$GT$..deserialize..SaturatingVisitor$u20$as$u20$serde..de..Visitor$GT$9expecting17h3e7378e8a3ec40c6E",
            "__ZN3std2io5stdio5Stdin9read_line17hac13cf3d80452823E",
            "__ZN3std3sys3pal4unix2os5chdir17h3a2d4d94be037ad9E",
            "__ZN65_$LT$cel_eval..DisplayableValue$u20$as$u20$core..fmt..Display$GT$3fmt17haca2a9d9dfe28200E",
            "__ZN5regex8builders5bytes15RegexSetBuilder10size_limit17h88ac1e9538fb6b92E",
            "__ZN87_$LT$std..process..ExitStatusError$u20$as$u20$std..os..unix..process..ExitStatusExt$GT$8from_raw17hcef92ee9e4655a48E",
            "__ZN73_$LT$std..os..unix..net..stream..UnixStream$u20$as$u20$std..io..Write$GT$5write17hcc5c225e01802e4cE",
            "__ZN5regex8builders6string12RegexBuilder14dfa_size_limit17h896df1274da1c622E",
            "__ZN5alloc7raw_vec19RawVec$LT$T$C$A$GT$8grow_one17h2f71248d9b8fb374E",
            "__ZN76_$LT$$u5b$u8$u3b$$u20$4$u5d$$u20$as$u20$nom..traits..FindToken$LT$u8$GT$$GT$10find_token17hd92331059b3ac207E",
            "__ZN73_$LT$regex_syntax..hir..ClassUnicodeRange$u20$as$u20$core..fmt..Debug$GT$3fmt17h40545684afdd452bE",
            "__ZN4core9panicking11panic_const32panic_const_async_gen_fn_resumed17h1de141fd5ee1d5e2E",
            "__ZN98_$LT$regex..regex..bytes..Regex$u20$as$u20$core..convert..TryFrom$LT$alloc..string..String$GT$$GT$8try_from17h2b2cc6c9b260e6f0E",
            "__ZN3std2fs81_$LT$impl$u20$std..io..Read$u20$for$u20$alloc..sync..Arc$LT$std..fs..File$GT$$GT$14read_to_string17h44626e0f0280e1a3E",
            "__ZN5alloc4sync16Arc$LT$T$C$A$GT$9drop_slow17h47cf5c102c689048E",
            "__ZN222_$LT$$LT$cel_eval..ast.._..$LT$impl$u20$serde..de..Deserialize$u20$for$u20$cel_eval..ast..JSONExpression$GT$..deserialize..__Visitor$u20$as$u20$serde..de..Visitor$GT$..visit_map..__Visitor$u20$as$u20$serde..de..Visitor$GT$9expecting17h4abb3fd4566702b6E",
            "__ZN4core3net6parser85_$LT$impl$u20$core..str..traits..FromStr$u20$for$u20$core..net..ip_addr..Ipv4Addr$GT$8from_str17h7423594f9a69a5e9E",
            "__ZN85_$LT$core..num..nonzero..NonZero$LT$i32$GT$$u20$as$u20$core..str..traits..FromStr$GT$8from_str17h1fbb82d6bdc491b1E",
            "__ZN130_$LT$cel_parser..parser..__parse__ArithmeticMulDivMod..__StateMachine$u20$as$u20$lalrpop_util..state_machine..ParserDefinition$GT$6reduce17h1758eac1726bc233E",
            "__ZN4core3num7dec2flt7decimal13parse_decimal17h003c48aa82d50c09E",
            "__ZN3std9panicking11panic_count9get_count17h822292cedfc54d1dE",
            "__ZN5alloc4sync16Arc$LT$T$C$A$GT$9drop_slow17h95bd713c1cec88ceE",
            "__ZN82_$LT$core..char..ToUppercase$u20$as$u20$core..iter..traits..iterator..Iterator$GT$10advance_by17hcb32216f66dfe8ffE",
            "__ZN63_$LT$core..ascii..EscapeDefault$u20$as$u20$core..fmt..Debug$GT$3fmt17h6393fdc51d5b985fE",
            "__ZN14regex_automata3nfa8thompson8compiler8Compiler5c_cap17h0fd13558fee9efe1E",
            "__ZN14regex_automata3nfa8thompson7builder7Builder14finish_pattern17hcd79ebcc81233514E",
            "__ZN14regex_automata3nfa8thompson9backtrack18BoundedBacktracker7builder17h45c645d7b73c6a41E",
            "__ZN66_$LT$chrono..naive..internals..Mdf$u20$as$u20$core..fmt..Debug$GT$3fmt17h0bc458e664cce811E",
            "__ZN6memchr6memmem8searcher19prefilter_kind_neon17hb9dc59d8ece4405dE",
            "__ZN6object4read4util5Bytes12read_uleb12817h70e24267021b4c64E",
            "__ZN77_$LT$alloc..borrow..Cow$LT$str$GT$$u20$as$u20$core..ops..arith..AddAssign$GT$10add_assign17h634b3ed56f985022E",
            "__ZN6chrono6format6parsed6Parsed29to_naive_datetime_with_offset17he99a3d58291370d3E",
            "__ZN78_$LT$regex_automata..nfa..thompson..nfa..State$u20$as$u20$core..fmt..Debug$GT$3fmt17hfa31f2106168ba78E",
            "__ZN119_$LT$cel_parser..parser..__parse__MapInits..__StateMachine$u20$as$u20$lalrpop_util..state_machine..ParserDefinition$GT$6reduce17h10ceebabf67f3788E",
            "__ZN5regex6escape17h416e6bb3d42ac8e8E",
            "__ZN59_$LT$$RF$std..io..stdio..Stdin$u20$as$u20$std..io..Read$GT$13read_vectored17hee7f7b4e3059ca4cE",
            "__ZN5alloc3ffi5c_str40_$LT$impl$u20$core..ffi..c_str..CStr$GT$15to_string_lossy17hf39e1e9b11f165f5E",
            "__ZN5alloc7raw_vec19RawVec$LT$T$C$A$GT$8grow_one17habbb8094e09724beE",
            "__ZN97_$LT$regex_syntax..hir..translate..TranslatorI$u20$as$u20$regex_syntax..ast..visitor..Visitor$GT$20visit_alternation_in17h2ae2140acbf169aeE",
            "__ZN3std3sys3pal4unix2fd8FileDesc13read_vectored17hce2ef2a04c35da79E",
            "__ZN6chrono6format4scan12short_month017h419fc7a34af049f1E",
            "__ZN85_$LT$regex_automata..util..wire..LE$u20$as$u20$regex_automata..util..wire..Endian$GT$9write_u1617h80d0759e45f70baeE",
            "__ZN3std7process5Child16wait_with_output17he50439de8e716f00E",
            "__ZN83_$LT$serde_json..value..ser..MapKeySerializer$u20$as$u20$serde..ser..Serializer$GT$14serialize_unit17hf1766450cb269a9dE",
            "__ZN107_$LT$chrono..naive..datetime..NaiveDateTime$u20$as$u20$core..ops..arith..Sub$LT$chrono..naive..Days$GT$$GT$3sub17hbd6be2262f46669aE",
            "__ZN4core3fmt5float53_$LT$impl$u20$core..fmt..UpperExp$u20$for$u20$f64$GT$3fmt17he46bc1af9509afbcE",
            "__ZN11uniffi_core3ffi10rustbuffer10RustBuffer8capacity17hd3ed490ccca573edE",
            "__ZN4core3fmt3num54_$LT$impl$u20$core..fmt..UpperHex$u20$for$u20$i128$GT$3fmt17h00e6474d12fb46cdE",
            "__ZN89_$LT$std..panicking..rust_panic_without_hook..RewrapBox$u20$as$u20$core..fmt..Display$GT$3fmt17h64fe2cbf6bd91910E",
            "__ZN10cel_parser6parser14__parse__Unary11UnaryParser5parse17h4e73064da4008dd1E",
            "__ZN6memchr4arch3all6memchr3One4iter17h151b689c908717deE",
            "__ZN4core3fmt9Formatter12pad_integral17h3ec780dd43c9e496E",
            "__ZN8cel_eval3ast102_$LT$impl$u20$core..convert..From$LT$cel_eval..ast..JSONAtom$GT$$u20$for$u20$cel_parser..ast..Atom$GT$4from17h3aee06a15eb7d9ffE",
            "__ZN60_$LT$std..io..stdio..StderrRaw$u20$as$u20$std..io..Write$GT$9write_fmt17h888f4e8f81a7ee06E",
            "__ZN4core3fmt3num53_$LT$impl$u20$core..fmt..Binary$u20$for$u20$usize$GT$3fmt17h7bf85ab3af9a2678E",
            "__ZN61_$LT$bytes..bytes_mut..BytesMut$u20$as$u20$core..cmp..Ord$GT$3cmp17hb14c7ed48b87882bE",
            "__ZN11uniffi_core3ffi10rustfuture9scheduler9Scheduler6cancel17h7dc190ee48f03f8eE",
            "__ZN77_$LT$serde..de..impls..StringInPlaceVisitor$u20$as$u20$serde..de..Visitor$GT$9expecting17h487d76bd58aaeeb2E",
            "__ZN61_$LT$std..io..stdio..StdoutLock$u20$as$u20$std..io..Write$GT$14write_vectored17h98e215dd548859f8E",
            "__ZN10serde_json5error10make_error17h67eeda23f6550fd0E",
            "__ZN5bytes5bytes103_$LT$impl$u20$core..convert..From$LT$bytes..bytes..Bytes$GT$$u20$for$u20$bytes..bytes_mut..BytesMut$GT$4from17h436c7b694f24c31aE",
            "__ZN3std2os4unix3net8datagram12UnixDatagram4send17hf662cec4899cf852E",
            "__ZN63_$LT$std..io..stdio..StderrLock$u20$as$u20$core..fmt..Debug$GT$3fmt17h1b75a59a6e0bb3efE",
            "__ZN6memchr4arch3all9rabinkarp12is_equal_raw17h6731d9658b3b861cE",
            "__ZN55_$LT$std..io..stdio..Stdin$u20$as$u20$std..io..Read$GT$11read_to_end17h7ac49377198117e6E",
            "__ZN5gimli4arch6X86_6416name_to_register17hbdcff0d77320170bE",
            "__ZN4core9panicking11panic_const24panic_const_neg_overflow17h95d9c2b0861d7c8fE",
            "__ZN109_$LT$regex_automata..util..prefilter..teddy..Teddy$u20$as$u20$regex_automata..util..prefilter..PrefilterI$GT$6prefix17hf750904503652472E",
            "__ZN71_$LT$rustc_demangle..legacy..Demangle$u20$as$u20$core..fmt..Display$GT$3fmt17h5d53a68ce49e4c9bE",
            "__ZN5bytes5bytes100_$LT$impl$u20$core..cmp..PartialOrd$LT$bytes..bytes..Bytes$GT$$u20$for$u20$alloc..string..String$GT$11partial_cmp17h80173567e651a97aE",
            "__ZN85_$LT$std..sys..pal..unix..sync..mutex..AttrGuard$u20$as$u20$core..ops..drop..Drop$GT$4drop17h6b03ac9a4051d353E",
            "__ZN3std10sys_common7process10CommandEnv3set17h4a3d64556c5efeb8E",
            "__ZN59_$LT$dyn$u20$core..any..Any$u20$as$u20$core..fmt..Debug$GT$3fmt17h363c9b8480e5da5aE",
            "__ZN5gimli9constants6DwForm13static_string17hbb4d87200479f6c7E",
            "__ZN79_$LT$object..xcoff..Symbol32$u20$as$u20$object..read..xcoff..symbol..Symbol$GT$7n_value17h88fabd8308c47a2aE",
            "__ZN5bytes9bytes_mut88_$LT$impl$u20$core..cmp..PartialEq$LT$bytes..bytes_mut..BytesMut$GT$$u20$for$u20$str$GT$2eq17h1c1c49342e6ddd88E",
            "__ZN76_$LT$regex_automata..nfa..thompson..nfa..NFA$u20$as$u20$core..fmt..Debug$GT$3fmt17hdcf965e70e950185E",
            "__ZN5alloc11collections5btree6search142_$LT$impl$u20$alloc..collections..btree..node..NodeRef$LT$BorrowType$C$K$C$V$C$alloc..collections..btree..node..marker..LeafOrInternal$GT$$GT$11search_tree17h537c296b9402177eE",
            "__ZN12aho_corasick4util5error10MatchError3new17ha2570df6b645e650E",
            "__ZN5bytes5bytes5Bytes9slice_ref17h37b77b41ffb51c49E",
            "__ZN15cel_interpreter5magic16FunctionRegistry3get17hf4be97b6715a123aE",
            "__ZN6object4read4coff7section48_$LT$impl$u20$object..pe..ImageSectionHeader$GT$11name_offset17h9cf6c3670a060fd5E",
            "__ZN4core3fmt9Formatter9debug_map17h5805f7ecfec55c5aE",
            "__ZN10serde_json5value4from85_$LT$impl$u20$core..convert..From$LT$f32$GT$$u20$for$u20$serde_json..value..Value$GT$4from17h13e58769fad1053fE",
            "__ZN50_$LT$u32$u20$as$u20$core..num..bignum..FullOps$GT$12full_div_rem17h075efac15459e119E",
            "__ZN5alloc7raw_vec19RawVec$LT$T$C$A$GT$8grow_one17h8166928a41056fb9E",
            "__ZN73_$LT$std..env..Args$u20$as$u20$core..iter..traits..iterator..Iterator$GT$9size_hint17hf5619e91524c4121E",
            "__ZN83_$LT$object..xcoff..AuxHeader32$u20$as$u20$object..read..xcoff..file..AuxHeader$GT$12o_text_start17hea3d59963c138606E",
            "__ZN3std4sync6poison7condvar7Condvar10notify_all17hac7d9d6ef6ca2404E",
            "__ZN59_$LT$std..process..ChildStdout$u20$as$u20$std..io..Read$GT$13read_vectored17h6d87db8cfb750c73E",
            "__ZN57_$LT$u64$u20$as$u20$cel_interpreter..magic..FromValue$GT$10from_value17h7280e1cdb2b16237E",
            "__ZN55_$LT$std..time..Instant$u20$as$u20$core..fmt..Debug$GT$3fmt17h09f881ca29cfc649E",
            "__ZN3std9panicking11begin_panic17he87125609d55e2bcE",
            "__ZN10cel_parser6parser15__parse__Member6__goto17hc93c0eef04176e4bE",
            "__ZN6chrono10time_delta9TimeDelta11checked_mul17h6472052a6addaeacE",
            "__ZN12aho_corasick3nfa13noncontiguous8Compiler7densify17he88e3ed379643165E",
            "__ZN104_$LT$std..sys_common..net..LookupHost$u20$as$u20$core..convert..TryFrom$LT$$LP$$RF$str$C$u16$RP$$GT$$GT$8try_from17hb73c23900a126809E",
            "__ZN68_$LT$serde..de..impls..PathVisitor$u20$as$u20$serde..de..Visitor$GT$9expecting17h4231ef411718fb22E",
            "__ZN5alloc3ffi5c_str40_$LT$impl$u20$core..ffi..c_str..CStr$GT$13into_c_string17he180a520ce3bb26aE",
            "__ZN72_$LT$memchr..memmem..searcher..Prefilter$u20$as$u20$core..fmt..Debug$GT$3fmt17h30eca925b0aa52f4E",
            "__ZN3std2os4unix3net8datagram12UnixDatagram4recv17h15159cc23640748dE",
            "__ZN178_$LT$serde..de..impls..$LT$impl$u20$serde..de..Deserialize$u20$for$u20$core..num..nonzero..NonZero$LT$usize$GT$$GT$..deserialize..NonZeroVisitor$u20$as$u20$serde..de..Visitor$GT$9expecting17hb8c5e611ee7a3761E",
            "__ZN95_$LT$aho_corasick..util..primitives..PatternID$u20$as$u20$core..convert..TryFrom$LT$u16$GT$$GT$8try_from17h50352f58d44d9557E",
            "__ZN5alloc11collections5btree4node76NodeRef$LT$alloc..collections..btree..node..marker..Immut$C$K$C$V$C$Type$GT$4keys17h28daa27f6334f114E",
            "__ZN4core3num14overflow_panic3div17he0168ebd4955d9c8E",
            "__ZN3std3net3tcp9TcpStream9peer_addr17h55b8baa016e66eb5E",
            "__ZN66_$LT$std..sys_common..wtf8..Wtf8$u20$as$u20$core..fmt..Display$GT$3fmt17hb6dae8c12eb9f3ceE",
            "__ZN83_$LT$chrono..time_delta..TimeDelta$u20$as$u20$cel_interpreter..magic..FromValue$GT$10from_value17h23cfc8d1e769b379E",
            "__ZN4core3fmt3num3imp55_$LT$impl$u20$core..fmt..LowerExp$u20$for$u20$isize$GT$3fmt17h679b669bcb62278eE",
            "__ZN12aho_corasick3nfa13noncontiguous3NFA9add_match17hc8e55f5e555f74d3E",
            "__ZN59_$LT$$RF$std..io..stdio..Stdin$u20$as$u20$std..io..Read$GT$8read_buf17h5f1dc0f318538990E",
            "__ZN61_$LT$serde_json..value..Value$u20$as$u20$core..fmt..Debug$GT$3fmt17hcf9d4f9cca10d8b9E",
            "__ZN79_$LT$alloc..vec..Vec$LT$u8$GT$$u20$as$u20$std..io..copy..BufferedWriterSpec$GT$11buffer_size17h07b3bf0721878a06E",
            "__ZN82_$LT$chrono..time_delta..TimeDelta$u20$as$u20$core..ops..arith..Mul$LT$i32$GT$$GT$3mul17h78de82c9f9d01eedE",
            "__ZN14regex_automata4meta5regex7Builder9configure17hc03ed4a9dc8f1fd5E",
            "__ZN4core9panicking16panic_in_cleanup17h3ebaefe82b2eae3fE",
            "__ZN3std10sys_common4wtf816slice_error_fail17hccf5ca4a5c6121afE",
            "__ZN12regex_syntax3ast3Ast15class_bracketed17hf27ecb3e31826fc1E",
            "__ZN78_$LT$cel_interpreter..ser..KeySerializer$u20$as$u20$serde..ser..Serializer$GT$14serialize_none17h769855a930314833E",
            "__ZN89_$LT$regex..regex..string..Captures$u20$as$u20$core..ops..index..Index$LT$$RF$str$GT$$GT$5index17h42d4f5923c5f63f1E",
            "__ZN68_$LT$chrono..naive..isoweek..IsoWeek$u20$as$u20$core..fmt..Debug$GT$3fmt17h8bbac827af67afedE",
            "__ZN14regex_automata3nfa8thompson9backtrack18BoundedBacktracker11never_match17h48c000859ccba315E",
            "__ZN4core3num7dec2flt5parse12parse_number17h92943672c8ae7db5E",
            "__ZN4core9panicking36panic_misaligned_pointer_dereference17h0ce0591bda0bc4b8E",
            "__ZN73_$LT$$u5b$A$u5d$$u20$as$u20$core..slice..cmp..SlicePartialEq$LT$B$GT$$GT$5equal17h277324eec9232fc4E",
            "__ZN52_$LT$std..path..Iter$u20$as$u20$core..fmt..Debug$GT$3fmt17haf37659af1ade220E",
            "__ZN4core5slice4sort6stable9quicksort9quicksort17h6172ef550ea4ceeaE",
            "__ZN5alloc7raw_vec19RawVec$LT$T$C$A$GT$8grow_one17h255a24a15b38ff93E",
            "__ZN3std7process5Child4kill17h7b9d2f7d1aa2a707E",
            "__ZN4core3num3fmt9Formatted5write17h2d09efb28630e313E",
            "__ZN3nom8internal43Err$LT$nom..error..Error$LT$$RF$str$GT$$GT$8to_owned17hbaf9dfb846ca9284E",
            "__ZN125_$LT$$LT$regex..regex..bytes..Captures$u20$as$u20$core..fmt..Debug$GT$..fmt..CapturesDebugMap$u20$as$u20$core..fmt..Debug$GT$3fmt17ha8ebd3a05bb140f1E",
            "__ZN12regex_syntax3hir5Class7literal17h8f668acb8f4b498fE",
            "__ZN62_$LT$gimli..constants..DwDsc$u20$as$u20$core..fmt..Display$GT$3fmt17h94c6674593b48555E",
            "__ZN92_$LT$$RF$alloc..borrow..Cow$LT$$u5b$u8$u5d$$GT$$u20$as$u20$regex..regex..bytes..Replacer$GT$14replace_append17hd6ecdf1f70821688E",
            "__ZN14regex_automata3nfa8thompson9backtrack7Builder6syntax17h4f00558f083e933bE",
            "__ZN61_$LT$$RF$std..io..stdio..Stdout$u20$as$u20$std..io..Write$GT$18write_all_vectored17hb53fb4c7469d2b44E",
            "__ZN64_$LT$regex_syntax..ast..Ast$u20$as$u20$core..ops..drop..Drop$GT$4drop17h5721551ddd8aa8caE",
            "__ZN51_$LT$std..env..Args$u20$as$u20$core..fmt..Debug$GT$3fmt17h67ce44cdafff76abE",
            "__ZN71_$LT$core..net..socket_addr..SocketAddr$u20$as$u20$core..fmt..Debug$GT$3fmt17hc267edc1afec9c6fE",
            "__ZN5alloc11collections5btree4node210Handle$LT$alloc..collections..btree..node..NodeRef$LT$alloc..collections..btree..node..marker..Mut$C$K$C$V$C$alloc..collections..btree..node..marker..Leaf$GT$$C$alloc..collections..btree..node..marker..Edge$GT$10insert_fit17h5df3743f8ed5957eE",
            "__ZN4core3num6bignum5tests6Big8x39add_small17h620cae4234bdca4fE",
            "__ZN164_$LT$cel_eval..ast.._..$LT$impl$u20$serde..de..Deserialize$u20$for$u20$cel_eval..ast..JSONArithmeticOp$GT$..deserialize..__Visitor$u20$as$u20$serde..de..Visitor$GT$9expecting17h8dd3bbfd8eb48a44E",
            "__ZN57_$LT$usize$u20$as$u20$serde_json..value..index..Index$GT$15index_or_insert17h3e57d58d023f7584E",
            "__ZN12aho_corasick11ahocorasick11AhoCorasick10match_kind17h0bad2b3b80a6bc7bE",
            "__ZN94_$LT$object..xcoff..SectionHeader64$u20$as$u20$object..read..xcoff..section..SectionHeader$GT$7s_nlnno17h8be1afd16651e209E",
            "__ZN80_$LT$$u5b$u8$u3b$$u20$3$u5d$$u20$as$u20$nom..traits..FindToken$LT$$RF$u8$GT$$GT$10find_token17h7e47d87085cc7d36E",
            "__ZN75_$LT$cel_interpreter..ser..Serializer$u20$as$u20$serde..ser..Serializer$GT$22serialize_unit_variant17h163ad92ecab746daE",
            "__ZN12aho_corasick4util5error10MatchError24invalid_input_unanchored17hdb3f6bb148106a55E",
            "__ZN4core3fmt3num52_$LT$impl$u20$core..fmt..Binary$u20$for$u20$u128$GT$3fmt17he6023ebb89bc79a7E",
            "__ZN72_$LT$cel_eval..models..PassableValue$u20$as$u20$core..cmp..PartialEq$GT$2eq17haf56f2f9a2627773E",
            "__ZN72_$LT$std..sync..mpsc..RecvTimeoutError$u20$as$u20$core..fmt..Display$GT$3fmt17h859aa4ef08baa67eE",
            "__ZN83_$LT$object..xcoff..CsectAux64$u20$as$u20$object..read..xcoff..symbol..CsectAux$GT$8x_snhash17he86984c7281d8edcE",
            "__ZN101_$LT$alloc..sync..Arc$LT$alloc..string..String$GT$$u20$as$u20$cel_interpreter..magic..FromContext$GT$12from_context17h43c425295f7aaae2E",
            "__ZN5regex8builders5bytes12RegexBuilder3new17h9f9bd89d2e686f26E",
            "__ZN12regex_syntax3hir10ClassBytes16case_fold_simple17hee4e07c18f83152dE",
            "__ZN85_$LT$core..num..nonzero..NonZero$LT$u64$GT$$u20$as$u20$core..str..traits..FromStr$GT$8from_str17h145c8b0bfb3601e8E",
            "__ZN83_$LT$object..xcoff..AuxHeader32$u20$as$u20$object..read..xcoff..file..AuxHeader$GT$7o_snbss17h2892729773534515E",
            "__ZN5alloc7raw_vec19RawVec$LT$T$C$A$GT$8grow_one17h3f6528163ea4b72aE",
            "__ZN71_$LT$regex_automata..util..search..Span$u20$as$u20$core..fmt..Debug$GT$3fmt17h22d170caff75749bE",
            "__ZN5serde3ser3fmt85_$LT$impl$u20$serde..ser..Serializer$u20$for$u20$$RF$mut$u20$core..fmt..Formatter$GT$13serialize_str17hf66ad0d5fc142f88E",
            "__ZN58_$LT$regex_syntax..ast..Span$u20$as$u20$core..cmp..Ord$GT$3cmp17hbf6b78362ace2b85E",
            "__ZN69_$LT$gimli..constants..DwVirtuality$u20$as$u20$core..fmt..Display$GT$3fmt17h230e9ac9ad9ac1b6E",
            "__ZN77_$LT$serde_json..value..ser..Serializer$u20$as$u20$serde..ser..Serializer$GT$15serialize_bytes17h89ae0dea7b643f0bE",
            "__ZN4core3str6traits23str_index_overflow_fail17h221334b21a77bff6E",
            "__ZN4core5slice29_$LT$impl$u20$$u5b$T$u5d$$GT$15copy_from_slice17len_mismatch_fail17h947535f10dfaa9cbE",
            "__ZN6memchr4arch3all6memchr3Two4iter17h08ae9faf6e9ad80eE",
            "__ZN67_$LT$serde..__private..doc..Error$u20$as$u20$core..fmt..Display$GT$3fmt17h0c61cca52fcde103E",
            "__ZN96_$LT$std..io..error..Error$u20$as$u20$core..convert..From$LT$alloc..ffi..c_str..NulError$GT$$GT$4from17h3b75cc961a343d0bE",
            "__ZN3std7process2id17h5cc62f1f13b0f15bE",
            "__ZN85_$LT$core..option..Option$LT$u64$GT$$u20$as$u20$cel_interpreter..magic..FromValue$GT$10from_value17haaa7b85fe6bdf33cE",
            "__ZN5bytes9bytes_mut107_$LT$impl$u20$core..cmp..PartialOrd$LT$bytes..bytes_mut..BytesMut$GT$$u20$for$u20$alloc..string..String$GT$11partial_cmp17h43a0e916221cf46aE",
            "__ZN5alloc11collections5btree4node119NodeRef$LT$alloc..collections..btree..node..marker..Mut$C$K$C$V$C$alloc..collections..btree..node..marker..Internal$GT$30correct_childrens_parent_links17hcef6223eb429722fE",
            "__ZN176_$LT$serde..de..impls..$LT$impl$u20$serde..de..Deserialize$u20$for$u20$core..num..nonzero..NonZero$LT$u32$GT$$GT$..deserialize..NonZeroVisitor$u20$as$u20$serde..de..Visitor$GT$9expecting17hbf5242a0d3bc006eE",
            "__ZN81_$LT$$u5b$u8$u3b$$u20$23$u5d$$u20$as$u20$nom..traits..FindToken$LT$$RF$u8$GT$$GT$10find_token17h193eb466df2a1093E",
            "__ZN58_$LT$$RF$str$u20$as$u20$regex..regex..string..Replacer$GT$14replace_append17h214f603277fcfd20E",
            "__ZN111_$LT$core..option..Option$LT$chrono..time_delta..TimeDelta$GT$$u20$as$u20$cel_interpreter..magic..FromValue$GT$10from_value17h76b4252c496201c6E",
            "__ZN72_$LT$std..os..unix..net..stream..UnixStream$u20$as$u20$std..io..Read$GT$13read_vectored17h7af569a6c2e46a3cE",
            "__ZN87_$LT$regex_automata..nfa..thompson..error..BuildError$u20$as$u20$core..fmt..Display$GT$3fmt17h3a8bd8c6eb915124E",
            "__ZN4core3fmt3num53_$LT$impl$u20$core..fmt..LowerHex$u20$for$u20$i64$GT$3fmt17haca3ce7e32d08813E",
            "__ZN109_$LT$object..read..pe..import..ImportDescriptorIterator$u20$as$u20$core..iter..traits..iterator..Iterator$GT$4next17hec8b96075bc8bde0E",
            "__ZN68_$LT$std..sys_common..net..TcpStream$u20$as$u20$core..fmt..Debug$GT$3fmt17h71b1d40f7e283544E",
            "__ZN3std3env7args_os17h23784f93dc355a49E",
            "__ZN117_$LT$regex..regexset..string..SetMatchesIntoIter$u20$as$u20$core..iter..traits..double_ended..DoubleEndedIterator$GT$9next_back17h4387853d68f6bfd2E",
            "__ZN81_$LT$$u5b$u8$u3b$$u20$22$u5d$$u20$as$u20$nom..traits..FindToken$LT$$RF$u8$GT$$GT$10find_token17h556752ff113ecf1aE",
            "__ZN3std4path4Path12_starts_with17h99b9622178cd9d4aE",
            "__ZN12regex_syntax3ast5parse6Parser5parse17h5a04ca4d46904242E",
            "__ZN3std2os4unix3net8datagram12UnixDatagram12send_to_addr17h26a55077f3ed5071E",
            "__ZN47_$LT$std..fs..File$u20$as$u20$std..io..Read$GT$13read_vectored17h12601088af678463E",
            "__ZN5alloc7raw_vec19RawVec$LT$T$C$A$GT$8grow_one17h17612f9092e6e6e2E",
            "__ZN101_$LT$regex..regexset..bytes..SetMatchesIntoIter$u20$as$u20$core..iter..traits..iterator..Iterator$GT$4next17hcc8cda25a779c5a8E",
            "__ZN6memchr6memmem8searcher36searcher_kind_two_way_with_prefilter17h62ee4ef9347f8af4E",
            "__ZN4core3num6bignum8Big32x403sub17hd0f4d3ed119ce6a3E",
            "__ZN73_$LT$serde..de..ignored_any..IgnoredAny$u20$as$u20$serde..de..Visitor$GT$9expecting17h93262b10df2ef05fE",
            "__ZN90_$LT$std..sys..pal..unix..args..Args$u20$as$u20$core..iter..traits..iterator..Iterator$GT$4next17h291c12f0eb492b13E",
            "__ZN12aho_corasick11ahocorasick28enforce_anchored_consistency17h3d4bce0ae5da90d5E",
            "__ZN3std6thread9yield_now17h643ca5a559ac86a6E",
            "__ZN116_$LT$cel_parser..parser..__parse__Unary..__StateMachine$u20$as$u20$lalrpop_util..state_machine..ParserDefinition$GT$6reduce17h8dfc7c573b63a14fE",
            "__ZN77_$LT$serde_json..value..ser..Serializer$u20$as$u20$serde..ser..Serializer$GT$23serialize_tuple_variant17h6b2f3c0e99ae9874E",
            "__ZN94_$LT$object..xcoff..SectionHeader32$u20$as$u20$object..read..xcoff..section..SectionHeader$GT$8s_scnptr17h24f538907d97eedfE",
            "__ZN76_$LT$$RF$alloc..string..String$u20$as$u20$regex..regex..string..Replacer$GT$14replace_append17he4cf2066a74d8ff0E",
            "__ZN73_$LT$gimli..read..endian_slice..DebugByte$u20$as$u20$core..fmt..Debug$GT$3fmt17h43c97a754ddde6a1E",
            "__ZN63_$LT$serde_json..number..Number$u20$as$u20$core..fmt..Debug$GT$3fmt17ha4bdd2e046633640E",
            "__ZN72_$LT$std..sync..poison..condvar..Condvar$u20$as$u20$core..fmt..Debug$GT$3fmt17hf816e80f7d1e1a9aE",
            "__ZN60_$LT$std..io..error..Error$u20$as$u20$core..error..Error$GT$5cause17h38be000d950e169dE",
            "__ZN113_$LT$regex_automata..util..prefilter..byteset..ByteSet$u20$as$u20$regex_automata..util..prefilter..PrefilterI$GT$6prefix17hc94eef79255f430dE",
            "__ZN64_$LT$gimli..constants..DwMacro$u20$as$u20$core..fmt..Display$GT$3fmt17hbdf205966ad317c1E",
            "__ZN5bytes3fmt5debug73_$LT$impl$u20$core..fmt..Debug$u20$for$u20$bytes..bytes_mut..BytesMut$GT$3fmt17he9bfa4ced1cf7c81E",
            "__ZN12aho_corasick9automaton12try_find_fwd17h2da4061fdec0807eE",
            "__ZN10cel_parser6parser16__parse__Primary6__goto17h4ce3c35283ecace2E",
            "__ZN95_$LT$aho_corasick..util..primitives..PatternID$u20$as$u20$core..convert..TryFrom$LT$u64$GT$$GT$8try_from17h78540562089902f3E",
            "__ZN3std4path117_$LT$impl$u20$core..convert..From$LT$$RF$std..path..Path$GT$$u20$for$u20$alloc..boxed..Box$LT$std..path..Path$GT$$GT$4from17h28b4eaea8b3649eaE",
            "__ZN9hashbrown3raw21RawTable$LT$T$C$A$GT$14reserve_rehash17hfa70d683efd07b25E",
            "__ZN81_$LT$$u5b$u8$u3b$$u20$28$u5d$$u20$as$u20$nom..traits..FindToken$LT$$RF$u8$GT$$GT$10find_token17hbe3e3e41b339dda0E",
            "__ZN4core4cell22panic_already_borrowed17h0bd0061c64dc05f4E",
            "__ZN83_$LT$object..xcoff..AuxHeader32$u20$as$u20$object..read..xcoff..file..AuxHeader$GT$12o_data_start17h64b1ab8b5cab8ee5E",
            "__ZN81_$LT$regex..regex..string..NoExpand$u20$as$u20$regex..regex..string..Replacer$GT$14replace_append17hc38340d413b0d355E",
            "__ZN77_$LT$$u5b$u8$u3b$$u20$18$u5d$$u20$as$u20$nom..traits..FindToken$LT$u8$GT$$GT$10find_token17hffc86577cc2dc554E",
            "__ZN3std2io7IoSlice8as_slice17hd05bbb3477dc9d8bE",
            "__ZN83_$LT$regex_automata..nfa..thompson..nfa..Transition$u20$as$u20$core..fmt..Debug$GT$3fmt17h0519a3ac00da45d3E",
            "__ZN83_$LT$alloc..string..String$u20$as$u20$cel_interpreter..magic..IntoResolveResult$GT$19into_resolve_result17h17c25e13dd620d88E",
            "__ZN62_$LT$gimli..constants..DwInl$u20$as$u20$core..fmt..Display$GT$3fmt17h862c0e43e6baf114E",
            "__ZN14regex_automata3dfa7onepass3DFA12always_match17hff7d44c83153e612E",
            "__ZN3std2fs81_$LT$impl$u20$std..io..Read$u20$for$u20$alloc..sync..Arc$LT$std..fs..File$GT$$GT$4read17h49d5d9360ca89acfE",
            "__ZN5alloc3ffi5c_str7CString8from_raw17h9f1a76e2bc43b207E",
            "__ZN4core3fmt3num53_$LT$impl$u20$core..fmt..LowerHex$u20$for$u20$u32$GT$3fmt17h5e6a26fc9b92c463E",
            "__ZN78_$LT$object..macho..FatArch32$u20$as$u20$object..read..macho..fat..FatArch$GT$6offset17h16d9f0da395780daE",
            "__ZN3std6thread7current11set_current17h33c39213ec9ee2c8E",
            "__ZN88_$LT$alloc..borrow..Cow$LT$$u5b$u8$u5d$$GT$$u20$as$u20$regex..regex..bytes..Replacer$GT$12no_expansion17h5fe3e9cbfec6d7fdE",
            "__ZN5alloc11collections5btree4node171Handle$LT$alloc..collections..btree..node..NodeRef$LT$alloc..collections..btree..node..marker..Mut$C$K$C$V$C$NodeType$GT$$C$alloc..collections..btree..node..marker..KV$GT$12into_val_mut17heae930c6584ac24aE",
            "__ZN67_$LT$regex_syntax..hir..ErrorKind$u20$as$u20$core..fmt..Display$GT$3fmt17h87a82205c239e6dcE",
            "__ZN5alloc7raw_vec20RawVecInner$LT$A$GT$10deallocate17hf162c54cc1feed85E",
            "__ZN3std4path125_$LT$impl$u20$core..convert..From$LT$$RF$mut$u20$std..path..Path$GT$$u20$for$u20$alloc..boxed..Box$LT$std..path..Path$GT$$GT$4from17h665e3b0400035050E",
            "__ZN12regex_syntax3ast5Flags10flag_state17h1f523035e4f294a0E",
            "__ZN6chrono6format4scan15timezone_offset6digits17h81f38aeb30d13c2bE",
            "__ZN5alloc6string6String12from_utf16be17h9064df34784480e1E",
            "__ZN12regex_syntax3hir10Properties5empty17h50f5a2413fb54971E",
            "__ZN120_$LT$cel_parser..parser..__parse__LogicalOr..__StateMachine$u20$as$u20$lalrpop_util..state_machine..ParserDefinition$GT$15simulate_reduce17h974829eb51517585E",
            "__ZN3std3sys3pal4unix2fs5lstat17h8e72a9478df4769cE",
            "__ZN5alloc4sync16Arc$LT$T$C$A$GT$9drop_slow17hd0945e18db076141E",
            "__ZN4core3str21_$LT$impl$u20$str$GT$22split_at_mut_unchecked17hd6d1c29d0aba0796E",
            "__ZN3std2io5impls83_$LT$impl$u20$std..io..Write$u20$for$u20$core..io..borrowed_buf..BorrowedCursor$GT$5write17h567d42e61a8854cbE",
            "__ZN3std6thread11sleep_until17h649c828398f9f371E",
            "__ZN63_$LT$gimli..constants..DwSect$u20$as$u20$core..fmt..Display$GT$3fmt17hff56ad25e99e6ac0E",
            "__ZN76_$LT$core..net..ip_addr..Ipv4Addr$u20$as$u20$core..ops..bit..BitOrAssign$GT$12bitor_assign17hcab0fd1756b2fb16E",
            "__ZN10serde_json3map5Entry3key17h75cc311d86ca214dE",
            "__ZN10cel_parser3ast10Expression10references17h30de8c9903dd4050E",
            "__ZN11uniffi_core3ffi10rustbuffer10RustBuffer8from_vec17h5320ac8c92289f1fE",
            "__ZN3std4path4Path9file_stem17hd06f14d4f2c24badE",
            "__ZN3std3sys3pal4unix2fs4File13read_vectored17h201c47287a44efacE",
            "__ZN3std2fs4File9try_clone17h43000299c9945408E",
            "__ZN3log5Level6as_str17h5b983dd20b0539a9E",
            "__ZN3std2io8buffered9bufwriter18BufWriter$LT$W$GT$9flush_buf8BufGuard9remaining17h027ccb751a8fa13cE",
            "__ZN4core3net6parser85_$LT$impl$u20$core..str..traits..FromStr$u20$for$u20$core..net..ip_addr..Ipv6Addr$GT$8from_str17h8205f6d97abf60b0E",
            "__ZN71_$LT$core..fmt..num..Binary$u20$as$u20$core..fmt..num..GenericRadix$GT$5digit17hb98c0167ec734c53E",
            "__ZN56_$LT$std..pipe..PipeWriter$u20$as$u20$std..io..Write$GT$5write17h742ddde781cbe5c1E",
            "__ZN4core3fmt3num54_$LT$impl$u20$core..fmt..LowerHex$u20$for$u20$i128$GT$3fmt17h688d69709929a3f4E",
            "__ZN12regex_syntax3ast3Ast13class_unicode17hf87775099627904bE",
            "__ZN77_$LT$$u5b$u8$u3b$$u20$29$u5d$$u20$as$u20$nom..traits..FindToken$LT$u8$GT$$GT$10find_token17h3ec08f4db59f3703E",
            "__ZN68_$LT$core..fmt..builders..PadAdapter$u20$as$u20$core..fmt..Write$GT$9write_str17h469e9e32df891fd0E",
            "__ZN63_$LT$serde_json..error..Error$u20$as$u20$core..fmt..Display$GT$3fmt17h6674f2415e9f29d5E",
            "__ZN5alloc11collections5btree3map25BTreeMap$LT$K$C$V$C$A$GT$3get17h3518ca1b7ce88596E",
            "__ZN3std3sys3pal4unix2os6setenv17hdae042c035fd1983E",
            "__ZN12aho_corasick11ahocorasick11AhoCorasick12patterns_len17h4df2b08bb8f76f1eE",
            "__ZN6chrono5naive8datetime13NaiveDateTime18checked_add_offset17h7d640ab8ecfc4676E",
            "__ZN67_$LT$bytes..bytes_mut..BytesMut$u20$as$u20$core..cmp..PartialEq$GT$2eq17h2f0ca73cbe9a138fE",
            "__ZN5alloc7raw_vec19RawVec$LT$T$C$A$GT$8grow_one17h755c8ced23fd3b79E",
            "__ZN120_$LT$cel_parser..parser..__parse__LogicalOr..__StateMachine$u20$as$u20$lalrpop_util..state_machine..ParserDefinition$GT$6reduce17h46ab6ab13b79b730E",
            "__ZN3std3net3udp9UdpSocket13write_timeout17hbd9129f6c0419d96E",
            "__ZN6chrono5naive7isoweek7IsoWeek8from_yof17hace9b413f1cb07d1E",
            "__ZN73_$LT$regex_automata..meta..regex..Regex$u20$as$u20$core..clone..Clone$GT$5clone17h162abafb829f940bE",
            "__ZN5bytes9bytes_mut110_$LT$impl$u20$core..cmp..PartialEq$LT$bytes..bytes_mut..BytesMut$GT$$u20$for$u20$alloc..vec..Vec$LT$u8$GT$$GT$2eq17h219bbd389b019181E",
            "__ZN112_$LT$regex_automata..util..prefilter..memchr..Memchr2$u20$as$u20$regex_automata..util..prefilter..PrefilterI$GT$4find17h6eded846d1ba9b27E",
            "__ZN14regex_automata4meta7limited26hybrid_try_search_half_rev17h464566300b50f3f3E",
            "__ZN15cel_interpreter9functions10exists_one17hf69a978f44e67b5dE",
            "__ZN58_$LT$std..io..stdio..StdinRaw$u20$as$u20$std..io..Read$GT$13read_vectored17ha6839a2e55467fa1E",
            "__ZN68_$LT$std..backtrace..BacktraceSymbol$u20$as$u20$core..fmt..Debug$GT$3fmt17ha88b82a361ea21c5E",
            "__ZN6chrono6format5parse13parse_rfc282217heafc9f9102f66388E",
            "__ZN97_$LT$bytes..bytes_mut..BytesMut$u20$as$u20$core..cmp..PartialOrd$LT$alloc..string..String$GT$$GT$11partial_cmp17hec9dcad8ebedc34aE",
            "__ZN6memchr4arch3all6twoway6Suffix7reverse17he6617dca654e5073E",
            "__ZN85_$LT$object..xcoff..FileHeader64$u20$as$u20$object..read..xcoff..file..FileHeader$GT$8f_timdat17h8707b4cdb56afaa8E",
            "__ZN92_$LT$regex_automata..nfa..thompson..literal_trie..Transition$u20$as$u20$core..fmt..Debug$GT$3fmt17h5e3ad29a3ebfcda9E",
            "__ZN10cel_parser6parser19__parse__Expression16ExpressionParser3new17h1681818dfba2f8c3E",
            "__ZN85_$LT$chrono..naive..datetime..NaiveDateTime$u20$as$u20$core..str..traits..FromStr$GT$8from_str17h082c68b081851520E",
            "__ZN5alloc5boxed16Box$LT$T$C$A$GT$13new_uninit_in17he0c1ba2301821f2eE",
            "__ZN62_$LT$std..process..ChildStderr$u20$as$u20$core..fmt..Debug$GT$3fmt17h3d1fc3700c007d8fE",
            "__ZN3std3sys3pal4unix4sync5mutex5Mutex8try_lock17h3c9543f69f1ea322E",
            "__ZN127_$LT$cel_parser..parser..__parse__ArithmeticAddSub..__StateMachine$u20$as$u20$lalrpop_util..state_machine..ParserDefinition$GT$15simulate_reduce17h167b59ac7802eda7E",
            "__ZN59_$LT$std..io..stdio..StdinLock$u20$as$u20$std..io..Read$GT$14read_buf_exact17h71c1ce5db596f409E",
            "__ZN84_$LT$serde..__private..de..content..ContentVisitor$u20$as$u20$serde..de..Visitor$GT$9expecting17hbfa49600d48c0958E",
            "__ZN83_$LT$object..xcoff..AuxHeader32$u20$as$u20$object..read..xcoff..file..AuxHeader$GT$10o_algndata17hf8fc404c5ec0dad1E",
            "__ZN5alloc4sync16Arc$LT$T$C$A$GT$9drop_slow17hd12dd132eddd84b5E",
            "__ZN83_$LT$object..xcoff..AuxHeader64$u20$as$u20$object..read..xcoff..file..AuxHeader$GT$7o_snbss17h4ca1456c66997102E",
            "__ZN110_$LT$cel_interpreter..objects..Key$u20$as$u20$core..convert..From$LT$$RF$cel_interpreter..objects..Key$GT$$GT$4from17h740a7c67e0259c47E",
            "__ZN69_$LT$std..sys..pal..unix..stdio..Stderr$u20$as$u20$std..io..Write$GT$5write17h027b010e2cf50c8cE",
            "__ZN50_$LT$u16$u20$as$u20$core..num..bignum..FullOps$GT$12full_div_rem17h1a5ca6ffa6298a2bE",
            "__ZN62_$LT$$RF$std..net..tcp..TcpStream$u20$as$u20$std..io..Read$GT$8read_buf17hc426670d7241f886E",
            "__ZN5alloc5alloc18handle_alloc_error17h98b9331696459920E",
            "__ZN186_$LT$std..sys..pal..unix..process..process_inner..$LT$impl$u20$std..sys..pal..unix..process..process_common..Command$GT$..posix_spawn..PosixSpawnattr$u20$as$u20$core..ops..drop..Drop$GT$4drop17h729e00dd9f8cae09E",
            "__ZN12lalrpop_util12fmt_expected17hcbdc46a5c0699407E",
            "__ZN12regex_syntax3ast8ClassSet4span17he1620d975b28324cE",
            "__ZN122_$LT$chrono..datetime..DateTime$LT$chrono..offset..fixed..FixedOffset$GT$$u20$as$u20$cel_interpreter..magic..FromValue$GT$10from_value17h7d0a739fce1cb2d0E",
            "__ZN3std3sys3pal4unix2os11split_paths13bytes_to_path17hfcdd3b55ca9ecb20E",
            "__ZN83_$LT$object..xcoff..AuxHeader64$u20$as$u20$object..read..xcoff..file..AuxHeader$GT$10o_algndata17h69a43bb43071bb14E",
            "__ZN68_$LT$alloc..string..FromUtf16Error$u20$as$u20$core..fmt..Display$GT$3fmt17h8752f79d7825e81fE",
            "__ZN10serde_json5error5Error6syntax17h0014fa368a7f7513E",
            "__ZN87_$LT$bytes..bytes_mut..BytesMut$u20$as$u20$core..cmp..PartialEq$LT$$u5b$u8$u5d$$GT$$GT$2eq17h434e2f883ad18db2E",
            "__ZN6object4read2pe14data_directory15DataDirectories3get17hac6e396fda4bff83E",
            "__ZN3std3net11socket_addr136_$LT$impl$u20$std..sys_common..IntoInner$LT$libc..unix..bsd..apple..sockaddr_in$GT$$u20$for$u20$core..net..socket_addr..SocketAddrV4$GT$10into_inner17heb95c927921f091aE",
            "__ZN75_$LT$regex_automata..dfa..onepass..Epsilons$u20$as$u20$core..fmt..Debug$GT$3fmt17he2dff409e4910ae2E",
            "__ZN75_$LT$std..fs..ReadDir$u20$as$u20$core..iter..traits..iterator..Iterator$GT$4next17hd00212cfa1f83788E",
            "__ZN5alloc11collections9vec_deque21VecDeque$LT$T$C$A$GT$4grow17h3071e343527af5e3E",
            "__ZN83_$LT$regex_automata..hybrid..id..LazyStateIDError$u20$as$u20$core..fmt..Display$GT$3fmt17h8368e3c3af23aa5fE",
            "__ZN14regex_automata4meta5regex7Builder6syntax17hf8bba741ee893ba9E",
            "__ZN5alloc7raw_vec19RawVec$LT$T$C$A$GT$8grow_one17h318e3c2c308f8367E",
            "__ZN73_$LT$regex..regex..bytes..Regex$u20$as$u20$core..str..traits..FromStr$GT$8from_str17h051edba6d901afafE",
            "__ZN113_$LT$regex_automata..util..alphabet..ByteClassElementRanges$u20$as$u20$core..iter..traits..iterator..Iterator$GT$4next17hee3ac466584a6d1aE",
            "__ZN114_$LT$cel_interpreter..objects..Value$u20$as$u20$core..convert..From$LT$$RF$cel_interpreter..objects..Value$GT$$GT$4from17hd7e744d1feb1e998E",
            "__ZN12regex_syntax6parser6Parser5parse17h096ef3a02e945258E",
            "__ZN4core5slice4sort6stable9quicksort9quicksort17h679b99e92f81e16bE",
            "__ZN72_$LT$chrono..naive..internals..YearFlags$u20$as$u20$core..fmt..Debug$GT$3fmt17hd99a7f822284216fE",
            "__ZN4core5slice4sort8unstable8heapsort8heapsort17h97fd55c730f535c8E",
            "__ZN14regex_automata4meta5regex5Cache5reset17h8286110bce661ac0E",
            "__ZN68_$LT$serde_json..read..StrRead$u20$as$u20$serde_json..read..Read$GT$8position17hf29565458fa81ecaE",
            "__ZN59_$LT$std..process..ChildStdout$u20$as$u20$std..io..Read$GT$4read17hbcfc228238397dccE",
            "__ZN6object4read2pe7section59_$LT$impl$u20$object..read..coff..section..SectionTable$GT$18section_containing17h1a06a5f60b835cceE",
            "__ZN14regex_automata3nfa8thompson3nfa10Transition12matches_unit17h7b89005d540179fbE",
            "__ZN77_$LT$std..sys..pal..unix..fs..File$u20$as$u20$std..os..fd..raw..FromRawFd$GT$11from_raw_fd17h187204925379fb7dE",
            "__ZN4core3fmt8builders10DebugTuple21finish_non_exhaustive17h301bdfc9f9fe1b3fE",
            "__ZN69_$LT$std..sys..pal..unix..stdio..Stderr$u20$as$u20$std..io..Write$GT$14write_vectored17hb2e3fd4611ed8231E",
            "__ZN4core3fmt3num3imp54_$LT$impl$u20$core..fmt..Display$u20$for$u20$isize$GT$3fmt17hb2b5ab73bc790be6E",
            "__ZN3std2fs5write5inner17h8734a54052563c8eE",
            "__ZN55_$LT$std..path..PathBuf$u20$as$u20$core..fmt..Debug$GT$3fmt17h12a2063d8f5d5419E",
            "__ZN63_$LT$serde_json..value..Value$u20$as$u20$core..fmt..Display$GT$3fmt17h056e929c02460d15E",
            "__ZN3std4time7Instant11checked_sub17h67b456bc4c3c695eE",
            "__ZN3std3sys3pal4unix2fs7readdir17h3073c2a71f94718fE",
            "__ZN65_$LT$regex_syntax..error..Error$u20$as$u20$core..fmt..Display$GT$3fmt17h887b8968b7e43852E",
            "__ZN64_$LT$regex..regex..string..Regex$u20$as$u20$core..fmt..Debug$GT$3fmt17h89e9403690d57efcE",
            "__ZN6chrono5naive4time9NaiveTime14parse_from_str17h099b3cee2b8e9359E",
            "__ZN102_$LT$chrono..naive..date..NaiveDateWeeksIterator$u20$as$u20$core..iter..traits..iterator..Iterator$GT$9size_hint17hb0a285616f7d5f94E",
            "__ZN4core5slice4sort6stable9quicksort9quicksort17h55bcb50198b22811E",
            "__ZN5serde3ser3fmt85_$LT$impl$u20$serde..ser..Serializer$u20$for$u20$$RF$mut$u20$core..fmt..Formatter$GT$13serialize_f3217ha0018a33a74e4bd5E",
            "__ZN6chrono5naive4date9NaiveDate16checked_add_days17h5230fe08c10cb8bbE",
            "__ZN94_$LT$object..xcoff..SectionHeader32$u20$as$u20$object..read..xcoff..section..SectionHeader$GT$8s_nreloc17h44f313dd82dbaa7bE",
            "__ZN7parking6Parker8unparker17he3825be61f7e9ebdE",
            "__ZN6chrono6offset5fixed11FixedOffset4west17h1a9c2cb1abb87d8dE",
            "__ZN4core3str8converts9from_utf817hc997abcad0092c07E",
            "__ZN102_$LT$regex_automata..util..alphabet..ByteSetIter$u20$as$u20$core..iter..traits..iterator..Iterator$GT$4next17h92c640d5866ff1d7E",
            "__ZN4core3fmt3num3imp53_$LT$impl$u20$core..fmt..UpperExp$u20$for$u20$i32$GT$3fmt17hcc568a8492eea8a0E",
            "__ZN59_$LT$std..io..stdio..StdinLock$u20$as$u20$std..io..Read$GT$4read17hff086ced23b21e62E",
            "__ZN55_$LT$f32$u20$as$u20$core..fmt..float..GeneralFormat$GT$44already_rounded_value_should_use_exponential17hb99a22cefb88e53cE",
            "__ZN60_$LT$std..fs..File$u20$as$u20$std..os..unix..fs..FileExt$GT$7read_at17heb741c629911f0feE",
            "__ZN15cel_interpreter9functions3has17hf1db92a88b49582cE",
            "__ZN4core9panicking14panic_nounwind17hbeaece4f8912bf0aE",
            "__ZN97_$LT$serde..__private..de..content..TagContentOtherFieldVisitor$u20$as$u20$serde..de..Visitor$GT$9expecting17h0400758a520f9759E",
            "__ZN5alloc7raw_vec19RawVec$LT$T$C$A$GT$8grow_one17h8b3e1dea38be6c30E",
            "__ZN14regex_automata3nfa8thompson8compiler8Compiler5build17hee93f5cb830a9e40E",
            "__ZN12aho_corasick6packed7pattern8Patterns5reset17h17ecfc8f821a8536E",
            "__ZN83_$LT$object..xcoff..AuxHeader64$u20$as$u20$object..read..xcoff..file..AuxHeader$GT$10o_snloader17h1d71432307b6182fE",
            "__ZN14regex_automata3dfa7onepass3DFA11never_match17h0eb30434afe1a1d1E",
            "__ZN3std3sys3pal4unix7process14process_common7Command3cwd17heac89dfe91ea3303E",
            "__ZN78_$LT$regex_automata..meta..error..BuildError$u20$as$u20$core..fmt..Display$GT$3fmt17he771dff6b0726271E",
            "__ZN59_$LT$$RF$std..io..stdio..Stdin$u20$as$u20$std..io..Read$GT$14read_to_string17h15697f0208d99c44E",
            "__ZN3nom5error9ErrorKind11description17h6f7434459c8165acE",
            "__ZN3std7process7Command15get_current_dir17h0459818efd94b563E",
            "__ZN55_$LT$str$u20$as$u20$serde_json..value..index..Index$GT$14index_into_mut17h30f9e2dfc130fad6E",
            "__ZN66_$LT$std..sys..pal..unix..fs..File$u20$as$u20$core..fmt..Debug$GT$3fmt17h0af9439c7997f6cbE",
            "__ZN68_$LT$std..sys_common..net..UdpSocket$u20$as$u20$core..fmt..Debug$GT$3fmt17hedb351006d3a19ebE",
            "__ZN81_$LT$std..io..buffered..bufwriter..WriterPanicked$u20$as$u20$core..fmt..Debug$GT$3fmt17h2768027ca831dc86E",
            "__ZN3std3sys6os_str5bytes5Slice6to_str17h535085b58e723546E",
            "__ZN97_$LT$cel_interpreter..ser..SerializeTupleVariant$u20$as$u20$serde..ser..SerializeTupleVariant$GT$3end17hf7ecd844125fa583E",
            "__ZN82_$LT$chrono..time_delta..TimeDelta$u20$as$u20$core..ops..arith..Div$LT$i32$GT$$GT$3div17h7521b6ee04b26ed3E",
            "__ZN65_$LT$gimli..constants..DwAccess$u20$as$u20$core..fmt..Display$GT$3fmt17heb07c15c9a8890d1E",
            "__ZN83_$LT$object..xcoff..AuxHeader32$u20$as$u20$object..read..xcoff..file..AuxHeader$GT$9o_sntdata17h50a91e92137622f6E",
            "__ZN10cel_parser6parser19__parse__LogicalAnd16LogicalAndParser5parse17ha308611d3ca39837E",
            "__ZN227_$LT$$LT$cel_eval..models.._..$LT$impl$u20$serde..de..Deserialize$u20$for$u20$cel_eval..models..PassableValue$GT$..deserialize..__Visitor$u20$as$u20$serde..de..Visitor$GT$..visit_map..__Visitor$u20$as$u20$serde..de..Visitor$GT$9expecting17h5e11d0b1a8147517E",
            "__ZN12aho_corasick4util10primitives9PatternID4iter17h66831bf1ae34a969E",
            "__ZN4core3fmt9Formatter25debug_tuple_fields_finish17h32b0be9628f04dd6E",
            "__ZN97_$LT$aho_corasick..util..primitives..PatternID$u20$as$u20$core..convert..TryFrom$LT$usize$GT$$GT$8try_from17h4536bd302ddd3122E",
            "__ZN12futures_lite2io6memchr17h9af51a311f263228E",
            "__ZN75_$LT$aho_corasick..packed..pattern..Pattern$u20$as$u20$core..fmt..Debug$GT$3fmt17hea981150fe2f1a74E",
            "__ZN10serde_json5value4from89_$LT$impl$u20$core..convert..From$LT$$RF$str$GT$$u20$for$u20$serde_json..value..Value$GT$4from17h601d550170bfc193E",
            "__ZN101_$LT$serde_json..value..ser..SerializeStructVariant$u20$as$u20$serde..ser..SerializeStructVariant$GT$3end17h74308743759dab56E",
            "__ZN4core3fmt3num51_$LT$impl$u20$core..fmt..Octal$u20$for$u20$i128$GT$3fmt17h05c6d93cf7020922E",
            "__ZN3std3sys3pal4unix2fd8FileDesc11set_cloexec17h16245a0b87381c80E",
            "__ZN14regex_automata3nfa8thompson8compiler8Compiler10c_at_least17h1a243d6756bebb95E",
            "__ZN12regex_syntax3hir12ClassUnicode4push17h9286d1f20943db08E",
            "__ZN4core3fmt3num55_$LT$impl$u20$core..fmt..LowerHex$u20$for$u20$isize$GT$3fmt17h463c8526d2a8837dE",
            "__ZN85_$LT$cel_interpreter..objects..Value$u20$as$u20$cel_interpreter..magic..FromValue$GT$10from_value17h3dd90483908cacd3E",
            "__ZN3std3net3udp9UdpSocket21set_multicast_loop_v417he2788032400b4e98E",
            "__ZN6object4read2pe6export11ExportTable19target_from_address17hd22f5f621bf56455E",
            "__ZN61_$LT$$RF$std..io..stdio..Stderr$u20$as$u20$std..io..Write$GT$14write_vectored17hc18258e45cd2c6d4E",
            "__ZN14regex_automata4util6search10MatchError3new17h1a50a04757d3a3c2E",
            "__ZN12regex_syntax3hir10ClassBytes4push17h76593a058eb87f74E",
            "__ZN6object4read2pe6export11ExportTable14forward_string17h7daab8a2dd57284cE",
            "__ZN9hashbrown3raw16RawIterHashInner3new17hacf28370689f7275E",
            "__ZN109_$LT$regex_automata..util..prefilter..teddy..Teddy$u20$as$u20$regex_automata..util..prefilter..PrefilterI$GT$12memory_usage17hbbbe19e8051b2532E",
            "__ZN4core3fmt8builders8DebugSet21finish_non_exhaustive17h79eaec6a28b27d0cE",
            "__ZN77_$LT$$u5b$u8$u3b$$u20$30$u5d$$u20$as$u20$nom..traits..FindToken$LT$u8$GT$$GT$10find_token17h3e1f2b1ca965d945E",
            "__ZN6object4read2pe6export11ExportTable18address_by_ordinal17h60ea3baa845fc2a0E",
            "__ZN3std2fs14read_to_string5inner17ha17add5d0925cc33E",
            "__ZN62_$LT$gimli..constants..DwRle$u20$as$u20$core..fmt..Display$GT$3fmt17he485252209fba2a6E",
            "__ZN4core3fmt8builders8DebugSet5entry17h9dcdba5e17e8ecc3E",
            "__ZN10cel_parser5parse11parse_bytes17ha806c50f921060c9E",
            "__ZN6object4read2pe8resource12ResourceName8raw_data17h9af8384a673f7946E",
            "__ZN60_$LT$core..str..lossy..Debug$u20$as$u20$core..fmt..Debug$GT$3fmt17h3bb52ca6dc158298E",
            "__ZN6anyhow5error65_$LT$impl$u20$core..ops..drop..Drop$u20$for$u20$anyhow..Error$GT$4drop17h9d98e94012c6a258E",
            "__ZN6chrono8datetime50DateTime$LT$chrono..offset..fixed..FixedOffset$GT$18parse_from_rfc333917hc8af9ac8f773ae85E",
            "__ZN61_$LT$std..net..udp..UdpSocket$u20$as$u20$core..fmt..Debug$GT$3fmt17hb176fb502c631856E",
            "__ZN4core3fmt3num53_$LT$impl$u20$core..fmt..LowerHex$u20$for$u20$u64$GT$3fmt17h77eda4d78bb8d43dE",
            "__ZN109_$LT$chrono..naive..datetime..NaiveDateTime$u20$as$u20$core..ops..arith..Sub$LT$chrono..month..Months$GT$$GT$3sub17h69ac2e8691fcfe5fE",
            "__ZN5serde3ser3fmt85_$LT$impl$u20$serde..ser..Serializer$u20$for$u20$$RF$mut$u20$core..fmt..Formatter$GT$13serialize_u1617h6eddbae8c055e8b7E",
            "__ZN14regex_automata4util6search10MatchError20unsupported_anchored17h0056009ba8785026E",
            "__ZN185_$LT$serde..de..impls..$LT$impl$u20$serde..de..Deserialize$u20$for$u20$core..num..saturating..Saturating$LT$i16$GT$$GT$..deserialize..SaturatingVisitor$u20$as$u20$serde..de..Visitor$GT$9expecting17h04db4563ff2ef104E",
            "__ZN61_$LT$$RF$std..io..stdio..Stdout$u20$as$u20$std..io..Write$GT$9write_fmt17heda81665544eb7b8E",
            "__ZN4core3fmt3num3imp52_$LT$impl$u20$core..fmt..Display$u20$for$u20$i16$GT$3fmt17h5d4e7c6350847a36E",
            "__ZN5bytes9bytes_mut8BytesMut13reserve_inner17hadc51e40a19cb25eE",
            "__ZN4core9panicking13assert_failed17ha942ae0297e42ee9E",
            "__ZN83_$LT$uniffi_core..ffi..rustbuffer..RustBuffer$u20$as$u20$core..default..Default$GT$7default17hbb9d303941671dadE",
            "__ZN5alloc3ffi5c_str100_$LT$impl$u20$core..default..Default$u20$for$u20$alloc..boxed..Box$LT$core..ffi..c_str..CStr$GT$$GT$7default17hfb0dbb22701259d3E",
            "__ZN256_$LT$alloc..boxed..convert..$LT$impl$u20$core..convert..From$LT$alloc..string..String$GT$$u20$for$u20$alloc..boxed..Box$LT$dyn$u20$core..error..Error$u2b$core..marker..Send$u2b$core..marker..Sync$GT$$GT$..from..StringError$u20$as$u20$core..error..Error$GT$11description17h28e76bbbd4c927feE",
            "__ZN118_$LT$cel_parser..parser..__parse__Primary..__StateMachine$u20$as$u20$lalrpop_util..state_machine..ParserDefinition$GT$15expected_tokens17h97e2bd3441c892b6E",
            "__ZN3std4path4Path11is_absolute17h8733ba98a10790cdE",
            "__ZN5alloc4sync16Arc$LT$T$C$A$GT$9drop_slow17h6b3f564ba787a59eE",
            "__ZN14regex_automata4util8alphabet4Unit3eoi17h5a89d8185ae0ac78E",
            "__ZN15cel_interpreter9functions4uint17ha45519507f38c9b5E",
            "__ZN5alloc4sync16Arc$LT$T$C$A$GT$9drop_slow17h813f9a042252bf43E",
            "__ZN3std2fs10DirBuilder7_create17h0305d4b84d372c72E",
            "__ZN64_$LT$std..backtrace..BytesOrWide$u20$as$u20$core..fmt..Debug$GT$3fmt17h944500e10af04882E",
            "__ZN85_$LT$regex_automata..util..captures..CapturesDebugMap$u20$as$u20$core..fmt..Debug$GT$3fmt17h8df8d68c666d00c0E",
            "__ZN97_$LT$regex_automata..util..primitives..PatternID$u20$as$u20$core..convert..TryFrom$LT$u32$GT$$GT$8try_from17h090fcb331ee3b3cbE",
            "__ZN12aho_corasick11ahocorasick11AhoCorasick12memory_usage17hdf64f57f2477bd49E",
            "__ZN14regex_automata3nfa8thompson3nfa3NFA3new17h126ec952f16125d2E",
            "__ZN15cel_interpreter9functions5bytes17h9d65f8a46231c7cbE",
            "__ZN47_$LT$std..fs..File$u20$as$u20$std..io..Read$GT$11read_to_end17hc2ebf0fd7949ebf8E",
            "__ZN5regex5regex6string92_$LT$impl$u20$core..convert..From$LT$regex..regex..string..Match$GT$$u20$for$u20$$RF$str$GT$4from17he067c1894d1b2267E",
            "__ZN61_$LT$$RF$std..io..stdio..Stdout$u20$as$u20$std..io..Write$GT$9write_all17h5ff51b60ba960f0aE",
            "__ZN52_$LT$$RF$std..fs..File$u20$as$u20$std..io..Write$GT$14write_vectored17hb3305c5edbd1100cE",
            "__ZN76_$LT$cel_interpreter..context..Context$u20$as$u20$core..default..Default$GT$7default17h013d45638f7e58c8E",
            "__ZN222_$LT$$LT$cel_eval..ast.._..$LT$impl$u20$serde..de..Deserialize$u20$for$u20$cel_eval..ast..JSONExpression$GT$..deserialize..__Visitor$u20$as$u20$serde..de..Visitor$GT$..visit_map..__Visitor$u20$as$u20$serde..de..Visitor$GT$9expecting17h829b05b5b59abc46E",
            "__ZN12regex_syntax4utf813Utf8Sequences3new17hb0fe17833502f889E",
            "__ZN80_$LT$std..path..Components$u20$as$u20$core..iter..traits..iterator..Iterator$GT$4next17h9e71fa29152191e0E",
            "__ZN99_$LT$cel_interpreter..ser..SerializeStructVariant$u20$as$u20$serde..ser..SerializeStructVariant$GT$3end17h5d269d88c0f4d2d8E",
            "__ZN72_$LT$std..backtrace_rs..backtrace..Frame$u20$as$u20$core..fmt..Debug$GT$3fmt17h75e40bb132a7e3feE",
            "__ZN3std3sys3pal4unix2fs6rename17hc476f9fb83bb2571E",
            "__ZN117_$LT$cel_parser..parser..__parse__Member..__StateMachine$u20$as$u20$lalrpop_util..state_machine..ParserDefinition$GT$6reduce17h36f9ae52b8f5d323E",
            "__ZN6chrono6format81_$LT$impl$u20$core..str..traits..FromStr$u20$for$u20$chrono..weekday..Weekday$GT$8from_str17h7e10b4c94c9b4e3fE",
            "__ZN101_$LT$core..char..CaseMappingIter$u20$as$u20$core..iter..traits..double_ended..DoubleEndedIterator$GT$15advance_back_by17ha3fd6a13133696f0E",
            "__ZN9hashbrown3raw11Fallibility17capacity_overflow17hc1633fc445ec7855E",
            "__ZN11uniffi_core3ffi9rustcalls14RustCallStatus9cancelled17he9a450d221a41147E",
            "__ZN12regex_syntax3hir10ClassBytes6negate17h86d9c30a720535faE",
            "__ZN59_$LT$std..net..tcp..TcpStream$u20$as$u20$std..io..Write$GT$14write_vectored17h7f1a65ed574ef080E",
            "__ZN4core3num14overflow_panic3neg17h094af51fd5df3cd0E",
            "__ZN10cel_parser6parser19__parse__LogicalAnd16LogicalAndParser3new17h3c285124e67bbee7E",
            "__ZN68_$LT$rustc_demangle..DemangleStyle$u20$as$u20$core..fmt..Display$GT$3fmt17h150a59472729af57E",
            "__ZN98_$LT$std..sys..backtrace..BacktraceLock..print..DisplayBacktrace$u20$as$u20$core..fmt..Display$GT$3fmt17h3a46a73be3538f8bE",
            "__ZN14regex_automata4util6syntax5parse17h6a68c468a559aa38E",
            "__ZN3std2os4unix3net4addr10SocketAddr10is_unnamed17h974e5a29302db239E",
            "__ZN3nom5error12error_to_u3217h0109942b5b3c8072E",
            "__ZN65_$LT$core..net..ip_addr..Ipv6Addr$u20$as$u20$core..fmt..Debug$GT$3fmt17ha3bf76f86d66b51eE",
            "__ZN6chrono10time_delta9TimeDelta16num_microseconds17hf2512415a46defa9E",
            "__ZN161_$LT$serde..de..impls..$LT$impl$u20$serde..de..Deserialize$u20$for$u20$core..net..ip_addr..IpAddr$GT$..deserialize..EnumVisitor$u20$as$u20$serde..de..Visitor$GT$9expecting17h7dd90307a34110e4E",
            "__ZN3std3sys3pal4unix2fd8FileDesc16read_vectored_at17hcfdb7ceb9d214b94E",
            "__ZN42_$LT$$RF$T$u20$as$u20$core..fmt..Debug$GT$3fmt17hda77c9f18582de36E",
            "__ZN5gimli4arch5RiscV13register_name17hb9bbfb50b3810829E",
            "__ZN12aho_corasick3nfa13noncontiguous8Compiler24set_anchored_start_state17hfa559bfb04897cfcE",
            "__ZN4core5slice5index24slice_end_index_len_fail8do_panic7runtime17he0310811a1638204E",
            "__ZN60_$LT$std..io..stdio..StderrRaw$u20$as$u20$std..io..Write$GT$14write_vectored17h008cefd5f0098701E",
            "__ZN5alloc7raw_vec19RawVec$LT$T$C$A$GT$8grow_one17h30d53daa00d79617E",
            "__ZN94_$LT$object..xcoff..SectionHeader64$u20$as$u20$object..read..xcoff..section..SectionHeader$GT$7s_vaddr17h742f56946f0a28c7E",
            "__ZN69_$LT$std..sys..pal..unix..stdio..Stdout$u20$as$u20$std..io..Write$GT$5write17hf7a6436e6e0ff3deE",
            "__ZN122_$LT$regex_automata..util..prefilter..aho_corasick..AhoCorasick$u20$as$u20$regex_automata..util..prefilter..PrefilterI$GT$12memory_usage17h0146a73c7bb0912aE",
            "__ZN5alloc4sync16Arc$LT$T$C$A$GT$9drop_slow17h8d1ccdcb2b38d086E",
            "__ZN97_$LT$std..os..unix..net..listener..Incoming$u20$as$u20$core..iter..traits..iterator..Iterator$GT$4next17hd00d4ab9cbd8092cE",
            "__ZN65_$LT$regex_syntax..ast..Span$u20$as$u20$core..cmp..PartialOrd$GT$11partial_cmp17h0944f1944dc34e19E",
            "__ZN6chrono8datetime50DateTime$LT$chrono..offset..fixed..FixedOffset$GT$14parse_from_str17h4ee568bb4a88a727E",
            "__ZN61_$LT$gimli..constants..DwCc$u20$as$u20$core..fmt..Display$GT$3fmt17h339c19bb8018a328E",
            "__ZN4core3fmt8builders10PadAdapter4wrap17he565499a867ae5faE",
            "__ZN68_$LT$serde..de..impls..BoolVisitor$u20$as$u20$serde..de..Visitor$GT$9expecting17h6e39cd180acae081E",
            "__ZN4core3fmt9Formatter3pad17h4e0005a63ac03dd4E",
            "__ZN57_$LT$std..env..SplitPaths$u20$as$u20$core..fmt..Debug$GT$3fmt17h0ff7e7469bf35722E",
            "__ZN6chrono6format5parse21parse_rfc3339_relaxed17haa05c86f869ba700E",
            "__ZN4core5slice4sort6stable14driftsort_main17hbbf9820a521c790dE",
            "__ZN82_$LT$regex_automata..meta..error..RetryFailError$u20$as$u20$core..fmt..Display$GT$3fmt17h4921132bab03c8d1E",
            "__ZN4core9panicking11panic_const23panic_const_gen_fn_none17hc561ec4874595f6aE",
            "__ZN84_$LT$cel_parser..ast..Expression$u20$as$u20$cel_interpreter..resolvers..Resolver$GT$7resolve17h983234d7c3cb64f2E",
            "__ZN14regex_automata3nfa8thompson9backtrack7Builder9configure17hcf8309159b43c988E",
            "__ZN77_$LT$core..net..ip_addr..Ipv6Addr$u20$as$u20$core..ops..bit..BitAndAssign$GT$13bitand_assign17h24eb2024fca971c9E",
            "__ZN5bytes3buf9vec_deque105_$LT$impl$u20$bytes..buf..buf_impl..Buf$u20$for$u20$alloc..collections..vec_deque..VecDeque$LT$u8$GT$$GT$15chunks_vectored17hbde9f7819864baf6E",
            "__ZN83_$LT$object..xcoff..CsectAux64$u20$as$u20$object..read..xcoff..symbol..CsectAux$GT$8x_scnlen17h4060448f9d14a9b1E",
            "__ZN43_$LT$bool$u20$as$u20$core..fmt..Display$GT$3fmt17h90eeb4597d03f619E",
            "__ZN6chrono5naive4time9NaiveTime19parse_and_remainder17h010b6f47e13e54ccE",
            "__ZN6chrono6format77_$LT$impl$u20$core..str..traits..FromStr$u20$for$u20$chrono..month..Month$GT$8from_str17hca1d63d93f9c1b77E",
            "__ZN3std6thread6scoped9ScopeData29increment_num_running_threads17h12bc55c5bef9c1f7E",
            "__ZN85_$LT$core..num..nonzero..NonZero$LT$u32$GT$$u20$as$u20$core..str..traits..FromStr$GT$8from_str17hd756040d18d5df5eE",
            "__ZN5alloc7raw_vec19RawVec$LT$T$C$A$GT$8grow_one17h610fd4f1479fb93fE",
            "__ZN4core3fmt3num52_$LT$impl$u20$core..fmt..UpperHex$u20$for$u20$u8$GT$3fmt17hfea68c94f8dd8644E",
            "__ZN5bytes5bytes90_$LT$impl$u20$core..cmp..PartialEq$LT$bytes..bytes..Bytes$GT$$u20$for$u20$$u5b$u8$u5d$$GT$2eq17h3496a1b482c796e5E",
            "__ZN4core3fmt3num50_$LT$impl$u20$core..fmt..Binary$u20$for$u20$u8$GT$3fmt17ha7d55c22a3685a63E",
            "__ZN14regex_automata3nfa8thompson9backtrack18BoundedBacktracker11reset_cache17hf87f452d8b2354e3E",
            "__ZN229_$LT$$LT$cel_eval..ast.._..$LT$impl$u20$serde..de..Deserialize$u20$for$u20$cel_eval..ast..JSONExpression$GT$..deserialize..__Seed$u20$as$u20$serde..de..DeserializeSeed$GT$..deserialize..__Visitor$u20$as$u20$serde..de..Visitor$GT$9expecting17h644cee070dafdf67E",
            "__ZN65_$LT$bytes..bytes_mut..BytesMut$u20$as$u20$core..clone..Clone$GT$5clone17h878dbb9416a22133E",
            "__ZN5serde3ser3fmt85_$LT$impl$u20$serde..ser..Serializer$u20$for$u20$$RF$mut$u20$core..fmt..Formatter$GT$14serialize_u12817he556165d47c0ff0bE",
            "__ZN6object4read4coff7section48_$LT$impl$u20$object..pe..ImageSectionHeader$GT$8raw_name17hc06bdeadf6598b74E",
            "__ZN12regex_syntax3hir5Class20try_case_fold_simple17he432f74f6cb7c36bE",
            "__ZN14regex_automata3dfa7onepass7Builder8thompson17h109d0c6c4715ebd8E",
            "__ZN14regex_automata3nfa8thompson7builder7Builder13start_pattern17h2ec3b9166589daf5E",
            "__ZN81_$LT$regex_automata..util..wire..SerializeError$u20$as$u20$core..fmt..Display$GT$3fmt17h9414da6812bd83c2E",
            "__ZN3std2os4unix3net8datagram12UnixDatagram15set_nonblocking17h2f5e6442f900a5b0E",
            "__ZN60_$LT$str$u20$as$u20$std..net..socket_addr..ToSocketAddrs$GT$15to_socket_addrs17h0f6057ed1ad8d0a6E",
            "__ZN4core3fmt8builders9DebugList7entries17hd978f956ab74c8a2E",
            "__ZN4core3str19slice_error_fail_ct17h660aa084b7849c8fE",
            "__ZN5bytes5bytes20promotable_is_unique17hdff81707f68a93a9E",
            "__ZN4core10intrinsics3mir11StorageDead19panic_cold_explicit17hdf7ca33eeb8e5f2dE",
            "__ZN5alloc7raw_vec19RawVec$LT$T$C$A$GT$8grow_one17hf181643995fcb613E",
            "__ZN57_$LT$std..io..stdio..Stderr$u20$as$u20$std..io..Write$GT$5flush17h115ed17e80ad7adaE",
            "__ZN5bytes9bytes_mut98_$LT$impl$u20$core..cmp..PartialOrd$LT$bytes..bytes_mut..BytesMut$GT$$u20$for$u20$$u5b$u8$u5d$$GT$11partial_cmp17hc0a71afad5bc3ff2E",
            "__ZN82_$LT$regex_automata..dfa..onepass..PatternEpsilons$u20$as$u20$core..fmt..Debug$GT$3fmt17hc94d134dd68291a0E",
            "__ZN4core3fmt3num53_$LT$impl$u20$core..fmt..UpperHex$u20$for$u20$u16$GT$3fmt17h60f1e844ad869dd3E",
            "__ZN5alloc4sync16Arc$LT$T$C$A$GT$9drop_slow17heca3ff88cc7d1743E",
            "__ZN90_$LT$std..sys..pal..unix..process..process_common..Command$u20$as$u20$core..fmt..Debug$GT$3fmt17h55c05ed55477ea67E",
            "__ZN14regex_automata3nfa8thompson8compiler8Compiler7c_empty17hc98e449c9d714438E",
            "__ZN12aho_corasick9automaton24try_find_overlapping_fwd17h46881fcaf409bf9eE",
            "__ZN68_$LT$$RF$$u5b$u8$u5d$$u20$as$u20$object..read..read_ref..ReadRef$GT$19read_bytes_at_until17hd313b9181775a889E",
            "__ZN8cel_eval3ast106_$LT$impl$u20$core..convert..From$LT$cel_eval..ast..JSONMember$GT$$u20$for$u20$cel_parser..ast..Member$GT$4from17h0d439ebff3ee52c7E",
            "__ZN3std2io5stdio7_eprint17he7dbb68aebf08225E",
            "__ZN75_$LT$core..char..decode..DecodeUtf16Error$u20$as$u20$core..fmt..Display$GT$3fmt17hfcc214f49624c264E",
            "__ZN79_$LT$std..random..DefaultRandomSource$u20$as$u20$core..random..RandomSource$GT$10fill_bytes17h081dc880bb443b0eE",
            "__ZN131_$LT$$LT$regex_automata..util..captures..CapturesDebugMap$u20$as$u20$core..fmt..Debug$GT$..fmt..Key$u20$as$u20$core..fmt..Debug$GT$3fmt17h56f1e7afc468940dE",
            "__ZN15cel_interpreter14ExecutionError11no_such_key17h194a20638908d5deE",
            "__ZN83_$LT$object..xcoff..CsectAux32$u20$as$u20$object..read..xcoff..symbol..CsectAux$GT$8x_snhash17hfad153ff345d7b70E",
            "__ZN67_$LT$core..ffi..va_list..VaListImpl$u20$as$u20$core..fmt..Debug$GT$3fmt17h1aba97476c3a45dcE",
            "__ZN3std3sys3pal4unix2os5errno17h062132cc616a0646E",
            "__ZN124_$LT$chrono..datetime..DateTime$LT$chrono..offset..fixed..FixedOffset$GT$$u20$as$u20$cel_interpreter..magic..FromContext$GT$12from_context17h1fc8d00125a6520bE",
            "__ZN68_$LT$chrono..time_delta..TimeDelta$u20$as$u20$core..fmt..Display$GT$3fmt17ha167834e73cb4af0E",
            "__ZN70_$LT$std..sys..pal..unix..fs..FileType$u20$as$u20$core..fmt..Debug$GT$3fmt17h9bd76a1a8d2c42d2E",
            "__ZN84_$LT$std..process..CommandArgs$u20$as$u20$core..iter..traits..iterator..Iterator$GT$9size_hint17hdf81cad829e13850E",
            "__ZN4core3fmt8builders8DebugMap5value17h08269191a95bba9cE",
            "__ZN80_$LT$regex_automata..util..primitives..PatternID$u20$as$u20$core..fmt..Debug$GT$3fmt17he49004cc912e33a5E",
            "__ZN3std2os4unix3net6stream10UnixStream4peek17hd9bf1fc757586d4eE",
            "__ZN127_$LT$dyn$u20$cel_eval..HostContext$u20$as$u20$uniffi_core..ffi_converter_traits..FfiConverterArc$LT$cel_eval..UniFfiTag$GT$$GT$8try_lift17h24f4525823a0bf15E",
            "__ZN4core9panicking11panic_const24panic_const_sub_overflow17he55afee5ba223fc7E",
            "__ZN3std3sys5alloc16realloc_fallback17h388102c98b313313E",
            "__ZN78_$LT$cel_interpreter..ser..KeySerializer$u20$as$u20$serde..ser..Serializer$GT$14serialize_char17hdc7686fc620c03c6E",
            "__ZN14regex_automata3dfa7onepass5Cache3new17h52c08027c149fe36E",
            "__ZN222_$LT$$LT$cel_eval..ast.._..$LT$impl$u20$serde..de..Deserialize$u20$for$u20$cel_eval..ast..JSONExpression$GT$..deserialize..__Visitor$u20$as$u20$serde..de..Visitor$GT$..visit_map..__Visitor$u20$as$u20$serde..de..Visitor$GT$9expecting17hf9662a365443e6e9E",
            "__ZN59_$LT$log..ParseLevelError$u20$as$u20$core..fmt..Display$GT$3fmt17h1435d38b101a55e6E",
            "__ZN5alloc3vec16Vec$LT$T$C$A$GT$7reserve17h5348a2de0d840e69E",
            "__ZN10cel_parser6parser18__parse__Relations15RelationsParser3new17hdb7c32d8ee945e97E",
            "__ZN3std3sys3pal4unix2fs4link17h1f6f4a5ad1a8a85cE",
            "__ZN4core5slice4sort6stable14driftsort_main17h049fd9e59b790b3fE",
            "__ZN4core3fmt9Formatter26debug_struct_field1_finish17h32e291d50a337c6cE",
            "__ZN4core10intrinsics3mir11PtrMetadata19panic_cold_explicit17he745a7b3c3e349fbE",
            "__ZN117_$LT$cel_parser..parser..__parse__Member..__StateMachine$u20$as$u20$lalrpop_util..state_machine..ParserDefinition$GT$15simulate_reduce17hd9f800796bdf06adE",
            "__ZN92_$LT$alloc..borrow..Cow$LT$str$GT$$u20$as$u20$core..ops..arith..AddAssign$LT$$RF$str$GT$$GT$10add_assign17hcd963e00fe2d891bE",
            "__ZN94_$LT$object..xcoff..SectionHeader64$u20$as$u20$object..read..xcoff..section..SectionHeader$GT$8s_relptr17h4651fe9bb1fde026E",
            "__ZN60_$LT$std..io..stdio..StdoutRaw$u20$as$u20$std..io..Write$GT$14write_vectored17haf64e80dc0a92cc3E",
            "__ZN14regex_automata3dfa7onepass7Builder5build17hc12d53ca2a79ad92E",
            "__ZN3std4time7Instant14duration_since17h78c1200c284b781cE",
            "__ZN101_$LT$std..sys..pal..unix..args..Args$u20$as$u20$core..iter..traits..exact_size..ExactSizeIterator$GT$3len17h3c61e3d607e5fa18E",
            "__ZN90_$LT$aho_corasick..packed..teddy..generic..SlimMaskBuilder$u20$as$u20$core..fmt..Debug$GT$3fmt17h845c0504a73f5fdcE",
            "__ZN4core3fmt17pointer_fmt_inner17h574849c1f2a14784E",
            "__ZN71_$LT$$RF$std..sys..pal..unix..fd..FileDesc$u20$as$u20$std..io..Read$GT$4read17hb94190d662a42d43E",
            "__ZN9hashbrown3raw11Fallibility9alloc_err17h0d237d0c61999ecfE",
            "__ZN3std3sys3pal4unix2fd8FileDesc15set_nonblocking17h9889ee33252d23dcE",
            "__ZN5alloc5boxed16Box$LT$T$C$A$GT$17try_new_uninit_in17h73e7e6e8f674f335E",
            "__ZN3std3sys3pal4unix2fd8FileDesc4read17h9a1b057649a25233E",
            "__ZN5alloc11collections5btree4node115NodeRef$LT$alloc..collections..btree..node..marker..Mut$C$K$C$V$C$alloc..collections..btree..node..marker..Leaf$GT$16push_with_handle17hff81bce13808eab2E",
            "__ZN4core7unicode12unicode_data14case_ignorable6lookup17h8f7db3f520cedce6E",
            "__ZN5alloc7raw_vec19RawVec$LT$T$C$A$GT$8grow_one17h0943255f2c140c07E",
            "__ZN70_$LT$cel_interpreter..ExecutionError$u20$as$u20$core..fmt..Display$GT$3fmt17h9182237c3f8b86f8E",
            "__ZN3std2os4unix3net8datagram12UnixDatagram16set_read_timeout17he454e9be3d988898E",
            "__ZN4core9panicking13assert_failed17h29599361dbbef03aE",
            "__ZN60_$LT$std..io..stdio..StderrRaw$u20$as$u20$std..io..Write$GT$18write_all_vectored17hdcce155593a721aaE",
            "__ZN5bytes3fmt5debug66_$LT$impl$u20$core..fmt..Debug$u20$for$u20$bytes..bytes..Bytes$GT$3fmt17hd6885fefc960a987E",
            "__ZN59_$LT$std..net..tcp..TcpStream$u20$as$u20$std..io..Write$GT$5write17h1e4e60b669a96119E",
            "__ZN5alloc7raw_vec19RawVec$LT$T$C$A$GT$8grow_one17h473417bb2104a439E",
            "__ZN5regex8builders6string15RegexSetBuilder5build17h1279f761547c2693E",
            "__ZN77_$LT$chrono..naive..date..NaiveDate$u20$as$u20$core..str..traits..FromStr$GT$8from_str17h2d8c8aeb3d685013E",
            "__ZN68_$LT$core..num..bignum..Big32x40$u20$as$u20$core..cmp..PartialEq$GT$2eq17h48f64a19ce7bee5bE",
            "__ZN5bytes3fmt5debug67_$LT$impl$u20$core..fmt..Debug$u20$for$u20$bytes..fmt..BytesRef$GT$3fmt17h276f21fef0e1f39aE",
            "__ZN73_$LT$std..env..Args$u20$as$u20$core..iter..traits..iterator..Iterator$GT$4next17h5d068d9576f80f55E",
            "__ZN4core9panicking13assert_failed17h75c7cf584211a4a1E",
            "__ZN10cel_parser6parser14__parse__Unary6__goto17h2b2305d2f4238034E",
            "__ZN5alloc4sync16Arc$LT$T$C$A$GT$9drop_slow17hdeb8c565e20444b2E",
            "__ZN4core5slice4sort8unstable8heapsort8heapsort17h9bed28e1d20c1477E",
            "__ZN6chrono5naive4date9NaiveDate21signed_duration_since17h4c81115f4d8cd66aE",
            "__ZN61_$LT$gimli..constants..DwUt$u20$as$u20$core..fmt..Display$GT$3fmt17hbfc25cf72e1a9175E",
            "__ZN80_$LT$regex_automata..util..alphabet..ByteClasses$u20$as$u20$core..fmt..Debug$GT$3fmt17h20d282409dcda807E",
            "__ZN3std4sync9lazy_lock14panic_poisoned17hb86e27b2c0d9fae2E",
            "__ZN5bytes9bytes_mut8BytesMut7unsplit17h80f1cde96fe589f0E",
            "__ZN71_$LT$std..sys..pal..unix..time..Instant$u20$as$u20$core..fmt..Debug$GT$3fmt17hcc08eef40d19f71aE",
            "__ZN3std3sys6os_str5bytes5Slice15to_string_lossy17h0b31f7f7807d248eE",
            "__ZN5alloc6string6String21from_utf8_lossy_owned17hf4e98cf9cea100d7E",
            "__ZN65_$LT$chrono..format..ParseError$u20$as$u20$core..fmt..Display$GT$3fmt17hb7fedde331fd489eE",
            "__ZN5alloc11collections5btree4node13move_to_slice17hb3bac8ff0506854aE",
            "__ZN80_$LT$regex_automata..hybrid..error..BuildError$u20$as$u20$core..fmt..Display$GT$3fmt17h7798ecd6c628f2cbE",
            "__ZN12regex_syntax3ast6Concat8into_ast17h0204126257622d26E",
            "__ZN3std10sys_common4wtf87Wtf8Buf25push_code_point_unchecked17h87e0e742fecdb447E",
            "__ZN12aho_corasick4util9prefilter7Builder3add17hd87a1f30f98eac9aE",
            "__ZN4core3fmt3num3imp54_$LT$impl$u20$core..fmt..Display$u20$for$u20$usize$GT$3fmt17he4d1ea791f307512E",
            "__ZN4core3num14overflow_panic3rem17hbaaeea6ae35a612fE",
            "__ZN4core9panicking5panic17h39bd7c257da2f765E",
            "__ZN14regex_automata4meta8wrappers6Hybrid12create_cache17hd9f6ebcfa6b1a582E",
            "__ZN5alloc7raw_vec19RawVec$LT$T$C$A$GT$8grow_one17h05ca1c653f3a7434E",
            "__ZN97_$LT$core..char..ToUppercase$u20$as$u20$core..iter..traits..double_ended..DoubleEndedIterator$GT$15advance_back_by17hbf1c286d8b9de3c2E",
            "__ZN3std2fs4File15set_permissions17hcd00be9e8d1552c2E",
            "__ZN4core5slice4sort6stable9quicksort9quicksort17hd49231a733e3de08E",
            "__ZN5alloc3vec16Vec$LT$T$C$A$GT$6insert13assert_failed17hd441498264c4eee0E",
            "__ZN41_$LT$char$u20$as$u20$core..fmt..Debug$GT$3fmt17h0db5822b471459e7E",
            "__ZN4core3fmt3num51_$LT$impl$u20$core..fmt..Binary$u20$for$u20$i16$GT$3fmt17h3b37171f586a1b5cE",
            "__ZN65_$LT$core..sync..atomic..AtomicU8$u20$as$u20$core..fmt..Debug$GT$3fmt17h6718b343dc357c7fE",
            "__ZN87_$LT$cel_interpreter..objects..Value$u20$as$u20$cel_interpreter..magic..FromContext$GT$12from_context17h06eb18a944ffbb2eE",
            "__ZN4core3fmt3num3imp52_$LT$impl$u20$core..fmt..LowerExp$u20$for$u20$i8$GT$3fmt17hac75f58765ab1feeE",
            "__ZN14regex_automata3nfa8thompson6pikevm6PikeVM11reset_cache17h62fd7f699eccbc94E",
            "__ZN56_$LT$regex..error..Error$u20$as$u20$core..fmt..Debug$GT$3fmt17hd0eb3f698869c11aE",
            "__ZN97_$LT$regex_automata..util..primitives..PatternID$u20$as$u20$core..convert..TryFrom$LT$u64$GT$$GT$8try_from17had82f6e990abfe56E",
            "__ZN3std4path7PathBuf14_add_extension17ha88a4a66b7a532e5E",
            "__ZN61_$LT$gimli..constants..DwDs$u20$as$u20$core..fmt..Display$GT$3fmt17h1f3fe7789ed1aad7E",
            "__ZN3std3ffi6os_str5OsStr18to_ascii_uppercase17hde5e33d8ada1fd4fE",
            "__ZN4core3fmt3num51_$LT$impl$u20$core..fmt..Binary$u20$for$u20$u64$GT$3fmt17h460a6003d2d62753E",
            "__ZN5alloc4sync16Arc$LT$T$C$A$GT$9drop_slow17h2909681501c00b7fE",
            "__ZN52_$LT$$RF$std..fs..File$u20$as$u20$std..io..Write$GT$5write17h18a1292f3a5b20ceE",
            "__ZN4core10intrinsics3mir4Goto19panic_cold_explicit17h6954155ff0aad614E",
            "__ZN9hashbrown3raw21RawTable$LT$T$C$A$GT$14reserve_rehash17h9d72346a7fa47255E",
            "__ZN10cel_parser6parser19__parse__FieldInits16FieldInitsParser3new17hf810ec34783c236bE",
            "__ZN94_$LT$object..xcoff..SectionHeader64$u20$as$u20$object..read..xcoff..section..SectionHeader$GT$7s_flags17h47f8f39b186e854bE",
            "__ZN14regex_automata4util5empty15skip_splits_rev17h3d767d75486a98d6E",
            "__ZN73_$LT$std..os..unix..net..addr..SocketAddr$u20$as$u20$core..fmt..Debug$GT$3fmt17h67c7ade2de6872a5E",
            "__ZN10serde_json5value4from111_$LT$impl$u20$core..convert..From$LT$alloc..borrow..Cow$LT$str$GT$$GT$$u20$for$u20$serde_json..value..Value$GT$4from17h8dd8b13db245e151E",
            "__ZN83_$LT$object..xcoff..AuxHeader32$u20$as$u20$object..read..xcoff..file..AuxHeader$GT$8o_vstamp17h1f03b5bef286ec09E",
            "__ZN61_$LT$serde_json..error..Error$u20$as$u20$core..fmt..Debug$GT$3fmt17h6601b1431d94cffbE",
            "__ZN63_$LT$regex_syntax..hir..Error$u20$as$u20$core..fmt..Display$GT$3fmt17h8eb21cdc6d0279acE",
            "__ZN88_$LT$alloc..collections..btree..map..UnorderedKeyError$u20$as$u20$core..fmt..Display$GT$3fmt17h876b9491873075bbE",
            "__ZN4core3fmt3num51_$LT$impl$u20$core..fmt..Binary$u20$for$u20$u32$GT$3fmt17hbd30e9cd8cb71affE",
            "__ZN14regex_automata3nfa8thompson9backtrack7Builder8thompson17heb35121219328902E",
            "__ZN160_$LT$core..option..Option$LT$alloc..sync..Arc$LT$alloc..vec..Vec$LT$cel_interpreter..objects..Value$GT$$GT$$GT$$u20$as$u20$cel_interpreter..magic..FromValue$GT$10from_value17he637708fd7ed57f4E",
            "__ZN5bytes5bytes5Bytes9is_unique17hf3fe21cb146c087eE",
            "__ZN68_$LT$serde_json..read..StrRead$u20$as$u20$serde_json..read..Read$GT$10ignore_str17ha9770348d9c66a1aE",
            "__ZN5alloc4sync16Arc$LT$T$C$A$GT$9drop_slow17h058cfa601461345bE",
            "__ZN10cel_parser6parser18__parse__LogicalOr15LogicalOrParser3new17h003a86582ae92ae2E",
            "__ZN5alloc4sync16Arc$LT$T$C$A$GT$9drop_slow17h3616d5544d7d2e53E",
            "__ZN59_$LT$std..io..stdio..StdinLock$u20$as$u20$std..io..Read$GT$8read_buf17hbc6a31cc60409438E",
            "__ZN10serde_json2de21Deserializer$LT$R$GT$23parse_exponent_overflow17hfeb30a9f71c7efa9E",
            "__ZN84_$LT$cel_eval..UniFFICallbackHandlerHostContext$u20$as$u20$cel_eval..HostContext$GT$17computed_property17h86edcef867d1e791E",
            "__ZN4core3fmt3num54_$LT$impl$u20$core..fmt..LowerExp$u20$for$u20$u128$GT$3fmt17h41747e7e9c23d233E",
            "__ZN4core5ascii14escape_default17hc7ec8db80a291721E",
            "__ZN95_$LT$aho_corasick..util..primitives..PatternID$u20$as$u20$core..convert..TryFrom$LT$u32$GT$$GT$8try_from17hcf99f0bf08e45ce1E",
            "__ZN86_$LT$std..net..tcp..IntoIncoming$u20$as$u20$core..iter..traits..iterator..Iterator$GT$4next17hf5ae8b18291c416dE",
            "__ZN78_$LT$aho_corasick..util..alphabet..ByteClasses$u20$as$u20$core..fmt..Debug$GT$3fmt17h63c374d802c01b37E",
            "__ZN5alloc4sync16Arc$LT$T$C$A$GT$9drop_slow17h3e397be85b4697f3E",
            "__ZN55_$LT$std..pipe..PipeReader$u20$as$u20$std..io..Read$GT$8read_buf17hff1be4c33c482fa0E",
            "__ZN11uniffi_core24check_compatible_version17hdb45ac5885e5b0ffE",
            "__ZN73_$LT$$u5b$A$u5d$$u20$as$u20$core..slice..cmp..SlicePartialEq$LT$B$GT$$GT$5equal17hfbe5f4af071c9bd0E",
            "__ZN73_$LT$core..net..socket_addr..SocketAddrV4$u20$as$u20$core..fmt..Debug$GT$3fmt17h4f2f0d542258fa91E",
            "__ZN83_$LT$serde_json..value..ser..MapKeySerializer$u20$as$u20$serde..ser..Serializer$GT$13serialize_i6417ha7aec61219f400d6E",
            "__ZN83_$LT$object..xcoff..AuxHeader32$u20$as$u20$object..read..xcoff..file..AuxHeader$GT$10o_algntext17hcba7b18491d3f690E",
            "__ZN63_$LT$rustc_demangle..Demangle$u20$as$u20$core..fmt..Display$GT$3fmt17h18fd5dec60ec4130E",
            "__ZN3std2os4unix3net8datagram12UnixDatagram9bind_addr17h6759a5fa8a02d6f4E",
            "__ZN94_$LT$object..xcoff..SectionHeader32$u20$as$u20$object..read..xcoff..section..SectionHeader$GT$7s_paddr17h8e8130965bba79baE",
            "__ZN11uniffi_core3ffi10rustbuffer28uniffi_rustbuffer_from_bytes17hdf450c62c6b7efccE",
            "__ZN75_$LT$object..read..pe..export..ExportTarget$u20$as$u20$core..fmt..Debug$GT$3fmt17h5d83915ccfbea6eeE",
            "__ZN76_$LT$$RF$std..os..unix..net..stream..UnixStream$u20$as$u20$std..io..Read$GT$4read17ha057b8951774d317E",
            "__ZN93_$LT$alloc..collections..btree..mem..replace..PanicGuard$u20$as$u20$core..ops..drop..Drop$GT$4drop17h145c05a76166fc9eE",
            "__ZN12regex_syntax3ast5Flags8add_item17h8be759964f71fba9E",
            "__ZN63_$LT$gimli..constants..DwLang$u20$as$u20$core..fmt..Display$GT$3fmt17h36d3e218561206edE",
            "__ZN5alloc4sync16Arc$LT$T$C$A$GT$9drop_slow17h5099fc84272725d7E",
            "__ZN5gimli4read5value5Value3not17hfffdc3250a84315dE",
            "__ZN109_$LT$regex_automata..dfa..onepass..SparseTransitionIter$u20$as$u20$core..iter..traits..iterator..Iterator$GT$4next17h43ee89798fe5de91E",
            "__ZN77_$LT$$u5b$u8$u3b$$u20$15$u5d$$u20$as$u20$nom..traits..FindToken$LT$u8$GT$$GT$10find_token17h5380cb22cbe83399E",
            "__ZN12regex_syntax3hir7visitor11HeapVisitor3pop17h37f4323a9001a500E",
            "__ZN4core6option13expect_failed17h2ff55cd799a3307cE",
            "__ZN3std3sys3pal4unix2fd8FileDesc8read_buf17hb0329ccb364114cdE",
            "__ZN3std3sys6os_str5bytes3Buf10push_slice17h1fbb4310c57dfeebE",
            "__ZN3std2os4unix3net8datagram12UnixDatagram17set_write_timeout17hb6715dbb1d60f0c8E",
            "__ZN88_$LT$bytes..bytes_mut..BytesMut$u20$as$u20$core..cmp..PartialOrd$LT$$u5b$u8$u5d$$GT$$GT$11partial_cmp17h6aec721cae1d3405E",
            "__ZN94_$LT$object..xcoff..SectionHeader32$u20$as$u20$object..read..xcoff..section..SectionHeader$GT$7s_flags17hba151fc4daaba460E",
            "__ZN48_$LT$$u5b$T$u5d$$u20$as$u20$core..fmt..Debug$GT$3fmt17h2ce6aafef0f4ab8dE",
            "__ZN64_$LT$std..sys_common..wtf8..Wtf8$u20$as$u20$core..fmt..Debug$GT$3fmt17h4bb87c70e5a450cfE",
            "__ZN125_$LT$memchr..arch..all..packedpair..DefaultFrequencyRank$u20$as$u20$memchr..arch..all..packedpair..HeuristicFrequencyRank$GT$4rank17h2c60b161e3829bd7E",
            "__ZN4core3fmt3num49_$LT$impl$u20$core..fmt..Octal$u20$for$u20$u8$GT$3fmt17habdece17359d056dE",
            "__ZN70_$LT$core..num..error..ParseIntError$u20$as$u20$core..fmt..Display$GT$3fmt17hb8a5399922d47f91E",
            "__ZN5alloc4sync16Arc$LT$T$C$A$GT$9drop_slow17h8004c20193df983eE",
            "__ZN108_$LT$regex_automata..meta..strategy..ReverseAnchored$u20$as$u20$regex_automata..meta..strategy..Strategy$GT$12memory_usage17h656c199a6fe5d1c5E",
            "__ZN78_$LT$regex_syntax..unicode..UnicodeWordError$u20$as$u20$core..fmt..Display$GT$3fmt17h44bcefc1a0661854E",
            "__ZN14regex_automata6hybrid5regex5Regex11reset_cache17h3bf0dfb9c3fb361bE",
            "__ZN67_$LT$regex_syntax..ast..ErrorKind$u20$as$u20$core..fmt..Display$GT$3fmt17hf81d8243aa08daf4E",
            "__ZN4core3num14overflow_panic3sub17hf75602b09696fd0cE",
            "__ZN5alloc11collections5btree4node214Handle$LT$alloc..collections..btree..node..NodeRef$LT$alloc..collections..btree..node..marker..Mut$C$K$C$V$C$alloc..collections..btree..node..marker..Internal$GT$$C$alloc..collections..btree..node..marker..Edge$GT$19correct_parent_link17h17c8273d9ed5b89fE",
            "__ZN3std9panicking8set_hook17h2807e813e32f0d0cE",
            "__ZN47_$LT$str$u20$as$u20$nom..traits..HexDisplay$GT$11to_hex_from17h808021c9b018e39bE",
            "__ZN79_$LT$cel_interpreter..ser..SerializeVec$u20$as$u20$serde..ser..SerializeSeq$GT$3end17h77c8b3f844e0a590E",
            "__ZN80_$LT$std..sys..pal..unix..net..Socket$u20$as$u20$std..os..fd..raw..FromRawFd$GT$11from_raw_fd17h700464ef48d9f350E",
            "__ZN3std2os4unix3net8datagram12UnixDatagram8shutdown17hc503d36284daaa4dE",
            "__ZN8cel_eval25evaluate_ast_with_context17h6bf5adb151f50a22E",
            "__ZN97_$LT$cel_interpreter..resolvers..AllArguments$u20$as$u20$cel_interpreter..resolvers..Resolver$GT$7resolve17h796bef5eb632003eE",
            "__ZN67_$LT$serde..de..impls..StrVisitor$u20$as$u20$serde..de..Visitor$GT$9expecting17h9b48e6ced309b55fE",
            "__ZN14regex_automata3nfa8thompson9backtrack20min_visited_capacity17h3f4fb51c00b2a70eE",
            "__ZN62_$LT$gimli..constants..DwLle$u20$as$u20$core..fmt..Display$GT$3fmt17h2a692b61d9e5a7c6E",
            "__ZN81_$LT$$u5b$u8$u3b$$u20$20$u5d$$u20$as$u20$nom..traits..FindToken$LT$$RF$u8$GT$$GT$10find_token17h402fccb56c6ba159E",
            "__ZN4core3fmt3num52_$LT$impl$u20$core..fmt..LowerHex$u20$for$u20$i8$GT$3fmt17h97ee630a6018e0dbE",
            "__ZN4core5slice4sort6shared9smallsort22panic_on_ord_violation17h6972878201e3bb9cE",
            "__ZN67_$LT$std..backtrace..BacktraceFrame$u20$as$u20$core..fmt..Debug$GT$3fmt17hb9f899ca5fb300d5E",
            "__ZN12aho_corasick4util8alphabet12ByteClassSet12byte_classes17h4343be6b7324a8ecE",
            "__ZN3std3sys3pal4unix7process14process_common7Command8pre_exec17hf7d25c231288d3f5E",
            "__ZN117_$LT$chrono..naive..date..NaiveDateWeeksIterator$u20$as$u20$core..iter..traits..double_ended..DoubleEndedIterator$GT$9next_back17h7627d402689087a4E",
            "__ZN61_$LT$std..io..stdio..StdoutLock$u20$as$u20$std..io..Write$GT$5write17h44d84e478970808bE",
            "__ZN5alloc11collections5btree4node121NodeRef$LT$alloc..collections..btree..node..marker..Owned$C$K$C$V$C$alloc..collections..btree..node..marker..Internal$GT$17from_new_internal17hfd921f4dd36c7798E",
            "__ZN77_$LT$serde_json..value..ser..Serializer$u20$as$u20$serde..ser..Serializer$GT$15serialize_tuple17hbf17ad9088fee67eE",
            "__ZN91_$LT$regex_automata..util..look..UnicodeWordBoundaryError$u20$as$u20$core..fmt..Display$GT$3fmt17he8789e50cbe7e2d9E",
            "__ZN14regex_automata6hybrid3dfa7Builder8thompson17h43ed8a5a637621dfE",
            "__ZN3std4time7Instant11checked_add17h0d80961b2191c33dE",
            "__ZN14regex_automata3nfa8thompson6pikevm6Config9prefilter17h053ae104d5bcf2d5E",
            "__ZN10cel_parser6parser18__parse__LogicalOr8__action17hef4b10b27316b730E",
            "__ZN3std9panicking11panic_count8increase17h6052b5a094c0328aE",
            "__ZN14regex_automata3nfa8thompson8compiler8Compiler14build_from_hir17h04f0831bfd5e3ce5E",
            "__ZN61_$LT$std..io..stdio..StdoutLock$u20$as$u20$std..io..Write$GT$5flush17h8d6912064df7013fE",
            "__ZN59_$LT$$RF$std..io..stdio..Stdin$u20$as$u20$std..io..Read$GT$11read_to_end17h6ce39b7985c4393fE",
            "__ZN103_$LT$object..read..archive..ArchiveSymbolIterator$u20$as$u20$core..iter..traits..iterator..Iterator$GT$4next17h4b9facf7784e487cE",
            "__ZN70_$LT$alloc..vec..Vec$LT$T$C$A$GT$$u20$as$u20$core..ops..drop..Drop$GT$4drop17h96bbd8d605a91fbbE",
            "__ZN256_$LT$alloc..boxed..convert..$LT$impl$u20$core..convert..From$LT$alloc..string..String$GT$$u20$for$u20$alloc..boxed..Box$LT$dyn$u20$core..error..Error$u2b$core..marker..Send$u2b$core..marker..Sync$GT$$GT$..from..StringError$u20$as$u20$core..fmt..Display$GT$3fmt17h4c5b65806db5cef4E",
            "__ZN173_$LT$std..sys..pal..unix..process..process_inner..$LT$impl$u20$std..sys..pal..unix..process..process_common..Command$GT$..do_exec..Reset$u20$as$u20$core..ops..drop..Drop$GT$4drop17hc2d6362ec3b39be0E",
            "__ZN94_$LT$object..xcoff..SectionHeader32$u20$as$u20$object..read..xcoff..section..SectionHeader$GT$8s_relptr17h0de6d81a3fc9faf6E",
            "__ZN4core3net6parser54_$LT$impl$u20$core..net..socket_addr..SocketAddrV6$GT$11parse_ascii17h1befe26c58f3cde8E",
            "__ZN4core9panicking13assert_failed17h1005ef59b2f9672bE",
            "__ZN3std4time7Instant7elapsed17hfe48b35a47e7f24aE",
            "__ZN66_$LT$object..read..util..DebugByte$u20$as$u20$core..fmt..Debug$GT$3fmt17h2f7a0cf8d84ecbd1E",
            "__ZN55_$LT$str$u20$as$u20$serde_json..value..index..Index$GT$10index_into17h45819fa7ce9e7c3cE",
            "__ZN10serde_json5value10partial_eq104_$LT$impl$u20$core..cmp..PartialEq$LT$serde_json..value..Value$GT$$u20$for$u20$alloc..string..String$GT$2eq17h3317ba591e4e54f5E",
            "__ZN6object4read7archive24parse_sysv_extended_name17he81e624a846b1cc2E",
            "__ZN10serde_json5value10partial_eq90_$LT$impl$u20$core..cmp..PartialEq$LT$$RF$str$GT$$u20$for$u20$serde_json..value..Value$GT$2eq17he834c3480431928fE",
            "__ZN94_$LT$std..sys..pal..unix..os..SplitPaths$u20$as$u20$core..iter..traits..iterator..Iterator$GT$4next17hf64eb8d097712dc1E",
            "__ZN5serde3ser3fmt85_$LT$impl$u20$serde..ser..Serializer$u20$for$u20$$RF$mut$u20$core..fmt..Formatter$GT$22serialize_unit_variant17heb09105dcb9e5103E",
            "__ZN67_$LT$chrono..naive..date..NaiveDate$u20$as$u20$core..fmt..Debug$GT$3fmt17h623f205df30f3474E",
            "__ZN4core3fmt5float53_$LT$impl$u20$core..fmt..LowerExp$u20$for$u20$f32$GT$3fmt17h6ea9159c448ca1d1E",
            "__ZN116_$LT$core..net..ip_addr..Ipv6Addr$u20$as$u20$core..ops..bit..BitOrAssign$LT$$RF$core..net..ip_addr..Ipv6Addr$GT$$GT$12bitor_assign17he82e0435a8397e75E",
            "__ZN60_$LT$$RF$str$u20$as$u20$nom..traits..FindToken$LT$u8$GT$$GT$10find_token17ha55798d09a1be0feE",
            "__ZN75_$LT$serde_json..value..de..KeyClassifier$u20$as$u20$serde..de..Visitor$GT$9expecting17h7b5c1e698b6b39c3E",
            "__ZN58_$LT$std..io..error..Error$u20$as$u20$core..fmt..Debug$GT$3fmt17hba193d3f1d6d6cc2E",
            "__ZN56_$LT$$u5b$u8$u5d$$u20$as$u20$nom..traits..HexDisplay$GT$6to_hex17h7897aaefa243410aE",
            "__ZN121_$LT$cel_parser..parser..__parse__FieldInits..__StateMachine$u20$as$u20$lalrpop_util..state_machine..ParserDefinition$GT$15expected_tokens17h34b2ac4c55e26dabE",
            "__ZN73_$LT$aho_corasick..util..alphabet..BitSet$u20$as$u20$core..fmt..Debug$GT$3fmt17hfb1c0c2d8f24f2a7E",
            "__ZN64_$LT$core..char..EscapeDefault$u20$as$u20$core..fmt..Display$GT$3fmt17hce195c5cdd7fbde2E",
            "__ZN5alloc11collections5btree6search91_$LT$impl$u20$alloc..collections..btree..node..NodeRef$LT$BorrowType$C$K$C$V$C$Type$GT$$GT$14find_key_index17hf882ac66d4213aadE",
            "__ZN5regex8builders5bytes12RegexBuilder5build17ha95c36e01e487abcE",
            "__ZN61_$LT$std..io..stdio..StderrLock$u20$as$u20$std..io..Write$GT$18write_all_vectored17heb64e3013f8cffd0E",
            "__ZN69_$LT$aho_corasick..util..search..Span$u20$as$u20$core..fmt..Debug$GT$3fmt17hcc4f464548659928E",
            "__ZN131_$LT$core..option..Option$LT$alloc..sync..Arc$LT$alloc..vec..Vec$LT$u8$GT$$GT$$GT$$u20$as$u20$cel_interpreter..magic..FromValue$GT$10from_value17h50d3a7fd78337efdE",
            "__ZN73_$LT$core..num..bignum..tests..Big8x3$u20$as$u20$core..cmp..PartialEq$GT$2eq17h2d27111b4306367bE",
            "__ZN83_$LT$object..xcoff..AuxHeader64$u20$as$u20$object..read..xcoff..file..AuxHeader$GT$5o_toc17hdb8796178a5406e9E",
            "__ZN58_$LT$bool$u20$as$u20$cel_interpreter..magic..FromValue$GT$10from_value17hf1d702e023823f04E",
            "__ZN14regex_automata4util6search10PatternSet5clear17hbdb3142006b80500E",
            "__ZN5alloc6string107_$LT$impl$u20$core..convert..From$LT$alloc..string..String$GT$$u20$for$u20$alloc..boxed..Box$LT$str$GT$$GT$4from17h64137fd2cd68d916E",
            "__ZN15cel_interpreter7Program7execute17he77fff3cf4b2dbaeE",
            "__ZN73_$LT$chrono..offset..fixed..FixedOffset$u20$as$u20$core..fmt..Display$GT$3fmt17hd043e77cb9b0998fE",
            "__ZN8cel_eval3ast114_$LT$impl$u20$core..convert..From$LT$cel_eval..ast..JSONExpression$GT$$u20$for$u20$cel_parser..ast..Expression$GT$4from17h89e3156081b5a169E",
            "__ZN5serde9__private2de19flat_map_take_entry17h11413554b4dbdc81E",
            "__ZN107_$LT$chrono..naive..datetime..NaiveDateTime$u20$as$u20$core..ops..arith..Add$LT$chrono..naive..Days$GT$$GT$3add17hd627f7097101ebb6E",
            "__ZN77_$LT$std..sys..pal..unix..fs..FilePermissions$u20$as$u20$core..fmt..Debug$GT$3fmt17h705ecf1431b4f93cE",
            "__ZN144_$LT$serde..de..impls..$LT$impl$u20$serde..de..Deserialize$u20$for$u20$i128$GT$..deserialize..PrimitiveVisitor$u20$as$u20$serde..de..Visitor$GT$9expecting17hf218f8d809b3841dE",
            "__ZN12aho_corasick3nfa13noncontiguous8Compiler19add_dead_state_loop17h4e8f86394bbe4f7aE",
            "__ZN68_$LT$gimli..constants..DwDefaulted$u20$as$u20$core..fmt..Display$GT$3fmt17he4864ab69998d073E",
            "__ZN4core9panicking13assert_failed17hc64f27d81c78e0e2E",
            "__ZN91_$LT$std..time..SystemTime$u20$as$u20$core..ops..arith..Sub$LT$core..time..Duration$GT$$GT$3sub17hb5bccbb8dc1c1045E",
            "__ZN5alloc7raw_vec19RawVec$LT$T$C$A$GT$8grow_one17hbfc59efc858ec727E",
            "__ZN73_$LT$core..net..socket_addr..SocketAddrV6$u20$as$u20$core..fmt..Debug$GT$3fmt17heb860bee1dbd0eeaE",
            "__ZN67_$LT$std..sys..os_str..bytes..Buf$u20$as$u20$core..fmt..Display$GT$3fmt17h119abbcd7a8ca6ddE",
            "__ZN60_$LT$alloc..string..String$u20$as$u20$core..clone..Clone$GT$10clone_from17hff47ce513a1e71edE",
            "__ZN85_$LT$object..xcoff..FileHeader32$u20$as$u20$object..read..xcoff..file..FileHeader$GT$8f_symptr17h834e09106d2363eeE",
            "__ZN97_$LT$std..sys..pal..unix..process..process_inner..ExitStatusError$u20$as$u20$core..fmt..Debug$GT$3fmt17h0563c5681ae513f1E",
            "__ZN3std3net3udp9UdpSocket10take_error17hda207f639716659aE",
            "__ZN58_$LT$regex..error..Error$u20$as$u20$core..fmt..Display$GT$3fmt17hfd69ea63e41116efE",
            "__ZN5bytes9bytes_mut101_$LT$impl$u20$core..cmp..PartialEq$LT$bytes..bytes_mut..BytesMut$GT$$u20$for$u20$$RF$$u5b$u8$u5d$$GT$2eq17hc619b89cd1f1c595E",
            "__ZN55_$LT$std..io..util..Repeat$u20$as$u20$std..io..Read$GT$11read_to_end17h7a6663681226aa7fE",
            "__ZN5serde3ser3fmt85_$LT$impl$u20$serde..ser..Serializer$u20$for$u20$$RF$mut$u20$core..fmt..Formatter$GT$13serialize_i1617h1c6b9afa9cb53a33E",
            "__ZN57_$LT$bytes..bytes..Vtable$u20$as$u20$core..fmt..Debug$GT$3fmt17h578e39ef0e7effeeE",
            "__ZN63_$LT$std..io..stdio..StdoutLock$u20$as$u20$core..fmt..Debug$GT$3fmt17he8626d78ad060469E",
            "__ZN78_$LT$regex_automata..util..start..StartByteMap$u20$as$u20$core..fmt..Debug$GT$3fmt17hf503c55992a9b940E",
            "__ZN5alloc7raw_vec19RawVec$LT$T$C$A$GT$8grow_one17heb7bf8e4920d2371E",
            "__ZN70_$LT$serde_json..read..SliceRead$u20$as$u20$serde_json..read..Read$GT$10ignore_str17h1cb96a129b194f3eE",
            "__ZN4core3fmt9Formatter12debug_struct17haddbae027cf0264cE",
            "__ZN55_$LT$serde..format..Buf$u20$as$u20$core..fmt..Write$GT$9write_str17h75ab036e36232dc3E",
            "__ZN57_$LT$core..fmt..Formatter$u20$as$u20$core..fmt..Write$GT$10write_char17h662c912fef1c59f9E",
            "__ZN59_$LT$std..io..stdio..Stderr$u20$as$u20$core..fmt..Debug$GT$3fmt17h71e2445155c9e56bE",
            "__ZN14regex_automata3nfa8thompson7builder7Builder9add_empty17he73fbfe4279f76f1E",
            "__ZN75_$LT$regex..regexset..bytes..RegexSet$u20$as$u20$core..default..Default$GT$7default17h9c02e187b8c36e9eE",
            "__ZN3std2fs82_$LT$impl$u20$std..io..Write$u20$for$u20$alloc..sync..Arc$LT$std..fs..File$GT$$GT$5write17h423b83afc4aad835E",
            "__ZN67_$LT$serde_json..error..ErrorImpl$u20$as$u20$core..fmt..Display$GT$3fmt17hbdd36fb4e152f2cbE",
            "__ZN4core10intrinsics3mir12Discriminant19panic_cold_explicit17h19f327a68fe2768bE",
            "__ZN110_$LT$regex_automata..util..captures..CapturesPatternIter$u20$as$u20$core..iter..traits..iterator..Iterator$GT$4next17h0fc09cce7c0becf0E",
            "__ZN6object4read3elf10attributes15AttributeReader8read_tag17h0d837e1a8683da7cE",
            "__ZN69_$LT$std..sys..os_str..bytes..Slice$u20$as$u20$core..fmt..Display$GT$3fmt17h4a13f960b80d7289E",
            "__ZN59_$LT$std..process..ChildStdout$u20$as$u20$std..io..Read$GT$11read_to_end17h77cdaa1b0e36c66fE",
            "__ZN76_$LT$$u5b$u8$u3b$$u20$8$u5d$$u20$as$u20$nom..traits..FindToken$LT$u8$GT$$GT$10find_token17hcc19273bb31ab785E",
            "__ZN94_$LT$object..xcoff..SectionHeader32$u20$as$u20$object..read..xcoff..section..SectionHeader$GT$6s_size17h63b8c5ce01c78f4cE",
            "__ZN10cel_parser6parser20__parse__Conditional6__goto17h8d31f20207e59d48E",
            "__ZN8cel_eval6models44_$LT$impl$u20$cel_eval..DisplayableValue$GT$11to_passable17h61e4356861829461E",
            "__ZN12regex_syntax3hir10ClassBytes10difference17hed1fb899b3481e07E",
            "__ZN4core10intrinsics3mir6Offset19panic_cold_explicit17h62f3e35e362f5a90E",
            "__ZN6chrono5naive4date9NaiveDate11years_since17haf31edaaaf0e98bbE",
            "__ZN4core3fmt3num50_$LT$impl$u20$core..fmt..Octal$u20$for$u20$i32$GT$3fmt17h9f8aa02c76535088E",
            "__ZN51_$LT$$RF$std..fs..File$u20$as$u20$std..io..Read$GT$11read_to_end17hba9c3b202c2bcb16E",
            "__ZN90_$LT$serde_json..value..de..VariantRefDeserializer$u20$as$u20$serde..de..VariantAccess$GT$12unit_variant17h06e64f0ed52f15ffE",
            "__ZN3std3sys3pal4unix7process14process_common7Command5stdin17hac420e8d074353f5E",
            "__ZN79_$LT$alloc..string..Drain$u20$as$u20$core..iter..traits..iterator..Iterator$GT$9size_hint17h4161818bcec4fe9eE",
            "__ZN10cel_parser6parser15__parse__Member12MemberParser5parse17h3b61e18cb8425b87E",
            "__ZN3std9panicking11panic_count16set_always_abort17h871e32deb627e0f8E",
            "__ZN130_$LT$cel_parser..parser..__parse__ArithmeticMulDivMod..__StateMachine$u20$as$u20$lalrpop_util..state_machine..ParserDefinition$GT$15expected_tokens17he4589d2973287e26E",
            "__ZN12regex_syntax3ast7visitor11HeapVisitor3pop17h07f8e4e1b06acd02E",
            "__ZN83_$LT$object..xcoff..AuxHeader64$u20$as$u20$object..read..xcoff..file..AuxHeader$GT$12o_data_start17ha10c9c2ca6e2a0e9E",
            "__ZN97_$LT$regex_automata..meta..strategy..Core$u20$as$u20$regex_automata..meta..strategy..Strategy$GT$12memory_usage17hcb29ae61a3fa5f86E",
            "__ZN4core5slice4sort6stable14driftsort_main17hd28d44b7dd9138ffE",
            "__ZN74_$LT$bytes..buf..uninit_slice..UninitSlice$u20$as$u20$core..fmt..Debug$GT$3fmt17he130a814e0d525a2E",
            "__ZN83_$LT$object..xcoff..CsectAux32$u20$as$u20$object..read..xcoff..symbol..CsectAux$GT$8x_scnlen17hba64281e872cea5eE",
            "__ZN6chrono5naive4date9NaiveDate14parse_from_str17ha04f57b2074bf355E",
            "__ZN14regex_automata4meta8strategy3new17h3224681ac1995d1aE",
            "__ZN14regex_automata3nfa8thompson9backtrack7Builder5build17hb632e956a860afadE",
            "__ZN4core10intrinsics3mir13CastTransmute19panic_cold_explicit17hb0f17fba62f23f88E",
            "__ZN4core5slice4sort6stable9quicksort9quicksort17hd7819707847515eaE",
            "__ZN85_$LT$regex_automata..nfa..thompson..range_trie..State$u20$as$u20$core..fmt..Debug$GT$3fmt17h64bc3395f4c373afE",
            "__ZN12regex_syntax3hir15ClassBytesRange3new17hc10ed4d1d31e4439E",
            "__ZN10cel_parser6parser28__parse__ArithmeticMulDivMod6__goto17h3d6d4a8ade5fcd29E",
            "__ZN5alloc7raw_vec19RawVec$LT$T$C$A$GT$8grow_one17he0d97d5e4a66e8cbE",
            "__ZN62_$LT$gimli..constants..DwCfa$u20$as$u20$core..fmt..Display$GT$3fmt17he08c4fa26837086aE",
            "__ZN12regex_syntax3ast3Ast6concat17hbb3d7b85aafe7ee9E",
            "__ZN79_$LT$std..backtrace_rs..symbolize..SymbolName$u20$as$u20$core..fmt..Display$GT$3fmt17hcb608ed40dbe0fddE",
            "__ZN94_$LT$object..xcoff..SectionHeader64$u20$as$u20$object..read..xcoff..section..SectionHeader$GT$9s_lnnoptr17h0d26654c1a5bd478E",
            "__ZN5alloc6string6String18from_utf16le_lossy17h30c1109159c35575E",
            "__ZN12regex_syntax3hir10ClassBytes5empty17hfb545253afd9f062E",
            "__ZN14regex_automata6hybrid6search8find_rev17h227434501f653df5E",
            "__ZN4core3num7flt2dec17digits_to_exp_str17h8510424f0ad88701E",
            "__ZN5alloc6string13FromUtf8Error8as_bytes17h95943414f5c690c7E",
            "__ZN5alloc7raw_vec19RawVec$LT$T$C$A$GT$8grow_one17heec343e8f9e0c5e6E",
            "__ZN58_$LT$std..io..stdio..StdinRaw$u20$as$u20$std..io..Read$GT$14read_to_string17h16b43f71bd6e5520E",
            "__ZN3std5alloc8rust_oom17hf975186aa9928377E",
            "__ZN60_$LT$$RF$std..pipe..PipeWriter$u20$as$u20$std..io..Write$GT$5write17hdac1353995aa2ef4E",
            "__ZN10serde_json5error103_$LT$impl$u20$core..convert..From$LT$serde_json..error..Error$GT$$u20$for$u20$std..io..error..Error$GT$4from17hf9830d9752f15928E",
            "__ZN3std3ffi6os_str95_$LT$impl$u20$core..convert..TryFrom$LT$$RF$std..ffi..os_str..OsStr$GT$$u20$for$u20$$RF$str$GT$8try_from17h30467ed3339f8588E",
            "__ZN4core5slice4sort6stable9quicksort9quicksort17h38a08bc92cda1869E",
            "__ZN79_$LT$cel_interpreter..ser..SerializeMap$u20$as$u20$serde..ser..SerializeMap$GT$3end17h8c24df620572b211E",
            "__ZN61_$LT$std..io..stdio..StdoutLock$u20$as$u20$std..io..Write$GT$18write_all_vectored17hfc8ddbb2bd8624cbE",
            "__ZN4core3fmt17FormattingOptions8get_sign17he5a37ddd6e7689f1E",
            "__ZN62_$LT$gimli..constants..DwEnd$u20$as$u20$core..fmt..Display$GT$3fmt17h486934aa667992bdE",
            "__ZN15cel_interpreter5magic22arg_value_from_context17hfce484240515193eE",
            "__ZN106_$LT$$LT$std..path..Iter$u20$as$u20$core..fmt..Debug$GT$..fmt..DebugHelper$u20$as$u20$core..fmt..Debug$GT$3fmt17h7cda0d8eb0927286E",
            "__ZN80_$LT$alloc..borrow..Cow$LT$str$GT$$u20$as$u20$regex..regex..string..Replacer$GT$12no_expansion17h70d26378000eb057E",
            "__ZN14regex_automata3nfa8thompson6pikevm5Cache5reset17h4d3c38c3486159f8E",
            "__ZN3std7process5Child8try_wait17h827e98296064b9ecE",
            "__ZN57_$LT$std..io..stdio..Stdout$u20$as$u20$std..io..Write$GT$5flush17h79393ddfff31ec5eE",
            "__ZN4core5slice4sort6stable9quicksort9quicksort17h9b0ff6ec94dc5ec2E",
            "__ZN72_$LT$core..time..TryFromFloatSecsError$u20$as$u20$core..fmt..Display$GT$3fmt17hbc5dffc469439084E",
            "__ZN12aho_corasick6packed9rabinkarp9RabinKarp7find_at17h7f1e89f9602b4c89E",
            "__ZN63_$LT$serde_json..error..Error$u20$as$u20$core..error..Error$GT$6source17hf06facb62761a934E",
            "__ZN4core3fmt3num52_$LT$impl$u20$core..fmt..UpperHex$u20$for$u20$i8$GT$3fmt17hc448b384dad22789E",
            "__ZN5alloc4sync16Arc$LT$T$C$A$GT$9drop_slow17h88a43c5783942669E",
            "__ZN122_$LT$cel_interpreter..objects..Key$u20$as$u20$core..convert..From$LT$alloc..sync..Arc$LT$alloc..string..String$GT$$GT$$GT$4from17hce212829c4081709E",
            "__ZN60_$LT$serde..de..value..Error$u20$as$u20$core..fmt..Debug$GT$3fmt17hf1b20e6905e80ddcE",
            "__ZN104_$LT$aho_corasick..util..primitives..PatternIDIter$u20$as$u20$core..iter..traits..iterator..Iterator$GT$4next17h4d3ed2e48122a0aaE",
            "__ZN57_$LT$std..process..Output$u20$as$u20$core..fmt..Debug$GT$3fmt17h8426e143668daeeeE",
            "__ZN60_$LT$bytes..bytes..Bytes$u20$as$u20$core..cmp..PartialEq$GT$2eq17hb6ed199f4d5a1566E",
            "__ZN12aho_corasick3nfa13noncontiguous8Compiler31add_unanchored_start_state_loop17h4b2510376ab4cba1E",
            "__ZN4core3num14overflow_panic3add17h7de67f43b3c68cd4E",
            "__ZN83_$LT$object..xcoff..AuxHeader64$u20$as$u20$object..read..xcoff..file..AuxHeader$GT$10o_x64flags17he56420bec4ade596E",
            "__ZN12regex_syntax21try_is_word_character17hcd563788c4e21573E",
            "__ZN14regex_automata6hybrid3dfa4Lazy17cache_start_group17hc9f70628fd48f180E",
            "__ZN93_$LT$aho_corasick..util..primitives..StateID$u20$as$u20$core..convert..TryFrom$LT$u64$GT$$GT$8try_from17hfad61dff7a8c5894E",
            "__ZN3std6thread6Thread4name17h3ea5e8e8d4ba8ffcE",
            "__ZN83_$LT$object..xcoff..AuxHeader64$u20$as$u20$object..read..xcoff..file..AuxHeader$GT$9o_snentry17h58ad8171c4d4a068E",
            "__ZN4core3fmt3num3imp55_$LT$impl$u20$core..fmt..UpperExp$u20$for$u20$isize$GT$3fmt17h9e0ad2d962b70c93E",
            "__ZN3std2fs8DirEntry9file_name17h403a659fb77305adE",
            "__ZN59_$LT$core..str..iter..Chars$u20$as$u20$core..fmt..Debug$GT$3fmt17h41dc6220f71f6602E",
            "__ZN59_$LT$std..process..ChildStderr$u20$as$u20$std..io..Read$GT$13read_vectored17h7dba2aefb9b02ff8E",
            "__ZN63_$LT$alloc..ffi..c_str..CString$u20$as$u20$core..fmt..Debug$GT$3fmt17h6528dd75b69f1bbbE",
            "__ZN65_$LT$hashbrown..control..tag..Tag$u20$as$u20$core..fmt..Debug$GT$3fmt17h873c4faea8b8afc5E",
            "__ZN5gimli4read5value5Value3shr17h5a3eb247e78700bdE",
            "__ZN14regex_automata4util4iter8Searcher30handle_overlapping_empty_match17h4d7d1a2d1b81bf6aE",
            "__ZN172_$LT$cel_eval..models.._..$LT$impl$u20$serde..de..Deserialize$u20$for$u20$cel_eval..models..PassableValue$GT$..deserialize..__FieldVisitor$u20$as$u20$serde..de..Visitor$GT$9expecting17h8e850c260090d6e1E",
            "__ZN14regex_automata3nfa8thompson9backtrack7Builder14build_from_nfa17h473461c13f04a993E",
            "__ZN3std3net3tcp11TcpListener10local_addr17he71abfd70777bacdE",
            "__ZN11uniffi_core8metadata14MetadataBuffer6concat17hf8c691d6ec8fca0aE",
            "__ZN12aho_corasick6packed3api7Builder5build17h10bffa37cee2f55dE",
            "__ZN3std3env4_var17ha92f0ea9f6760b38E",
            "__ZN62_$LT$alloc..string..Drain$u20$as$u20$core..ops..drop..Drop$GT$4drop17hada8ae92d8c09399E",
            "__ZN3std6thread15park_timeout_ms17ha535ee63daf0d4a8E",
            "__ZN4core3fmt3num53_$LT$impl$u20$core..fmt..Display$u20$for$u20$u128$GT$3fmt17he02e5b69c0465871E",
            "__ZN5alloc4sync16Arc$LT$T$C$A$GT$9drop_slow17h3def11ede033353eE",
            "__ZN11uniffi_core3ffi10rustbuffer10RustBuffer3new17h94566dd463ce4192E",
            "__ZN60_$LT$std..io..stdio..StdoutRaw$u20$as$u20$std..io..Write$GT$9write_fmt17h886b20b49a23d7e8E",
            "__ZN3std4time10SystemTime7elapsed17h004673d600854dc9E",
            "__ZN3std4sync6poison4once4Once4wait17hbf0b4b2110c9830aE",
            "__ZN61_$LT$regex_syntax..hir..Hir$u20$as$u20$core..fmt..Display$GT$3fmt17ha57f9163614c889fE",
            "__ZN3std3sys3pal4unix7process14process_common7Command9set_arg_017h3b46b2a44f369ec5E",
            "__ZN14regex_automata3nfa8thompson9backtrack18BoundedBacktracker12always_match17h70d933597da69538E",
            "__ZN14regex_automata3dfa7onepass7Builder14build_from_nfa17h69b456989b136854E",
            "__ZN60_$LT$$RF$std..pipe..PipeWriter$u20$as$u20$std..io..Write$GT$14write_vectored17h16ef1704b52e76afE",
            "__ZN70_$LT$core..slice..ascii..EscapeAscii$u20$as$u20$core..fmt..Display$GT$3fmt17h8ced6efbaa7a59a4E",
            "__ZN3std3sys4sync14thread_parking6darwin6Parker6unpark17hbef5ccb7b34a741cE",
            "__ZN6memchr6memmem8searcher23prefilter_kind_fallback17hdd88be04ce0ed5fdE",
            "__ZN12aho_corasick3nfa13noncontiguous8Compiler24fill_failure_transitions17h17777106fc6aec27E",
            "__ZN5bytes9bytes_mut8BytesMut6resize17h03ec3da75e17ce6dE",
            "__ZN121_$LT$cel_parser..parser..__parse__LogicalAnd..__StateMachine$u20$as$u20$lalrpop_util..state_machine..ParserDefinition$GT$6reduce17hdb5c307c4f4c8e3dE",
            "__ZN14regex_automata6hybrid6search8find_fwd17hd35073935473b70bE",
            "__ZN84_$LT$cel_eval..UniFFICallbackHandlerHostContext$u20$as$u20$core..ops..drop..Drop$GT$4drop17hdd6f1cf8d8566f1aE",
            "__ZN87_$LT$regex_automata..util..primitives..PatternIDError$u20$as$u20$core..fmt..Display$GT$3fmt17h0302977354c6baadE",
            "__ZN3std2io5stdio18set_output_capture17hb8cf32119384407cE",
            "__ZN3std4sync4mpmc7context7Context3new17h434b909f7548a7efE",
            "__ZN120_$LT$cel_parser..parser..__parse__Relations..__StateMachine$u20$as$u20$lalrpop_util..state_machine..ParserDefinition$GT$15expected_tokens17h41acb5f12c25230aE",
            "__ZN14regex_automata4meta5regex6Config9prefilter17h00894ca4e65164c6E",
            "__ZN5alloc7raw_vec19RawVec$LT$T$C$A$GT$8grow_one17had8a7a1ad824dfb6E",
            "__ZN85_$LT$core..option..Option$LT$i64$GT$$u20$as$u20$cel_interpreter..magic..FromValue$GT$10from_value17hfc063293ee974ab1E",
            "__ZN122_$LT$regex_automata..util..prefilter..aho_corasick..AhoCorasick$u20$as$u20$regex_automata..util..prefilter..PrefilterI$GT$6prefix17hbdea3742e1d7bd29E",
            "__ZN101_$LT$core..char..CaseMappingIter$u20$as$u20$core..iter..traits..double_ended..DoubleEndedIterator$GT$9next_back17hdffa815cf8faade0E",
            "__ZN4core3num14overflow_panic3mul17h4aa37b8511f251b6E",
            "__ZN4core3fmt3num3imp52_$LT$impl$u20$core..fmt..Display$u20$for$u20$u32$GT$3fmt17hea7e235c408d4ea8E",
            "__ZN119_$LT$regex_automata..nfa..thompson..literal_trie..StateChunksIter$u20$as$u20$core..iter..traits..iterator..Iterator$GT$4next17h3608ce6857ef1721E",
            "__ZN4core3num6bignum8Big32x409mul_small17h050fb4dcbe4a98c4E",
            "__ZN62_$LT$std..ffi..os_str..Display$u20$as$u20$core..fmt..Debug$GT$3fmt17hec1b3f1cbc62317aE",
            "__ZN85_$LT$object..xcoff..FileHeader32$u20$as$u20$object..read..xcoff..file..FileHeader$GT$8f_opthdr17h1b7db5812660550eE",
            "__ZN73_$LT$std..env..Vars$u20$as$u20$core..iter..traits..iterator..Iterator$GT$4next17h4e9a268b5b1d7e7dE",
            "__ZN102_$LT$regex..regexset..string..SetMatchesIntoIter$u20$as$u20$core..iter..traits..iterator..Iterator$GT$4next17h537e6ff253d75790E",
            "__ZN71_$LT$core..ascii..ascii_char..AsciiChar$u20$as$u20$core..fmt..Debug$GT$3fmt17hd689bfd030787d2cE",
            "__ZN12aho_corasick3dfa7Builder24build_from_noncontiguous17h8072fcb9b5bf82cfE",
            "__ZN5bytes9bytes_mut111_$LT$impl$u20$core..cmp..PartialOrd$LT$bytes..bytes_mut..BytesMut$GT$$u20$for$u20$alloc..vec..Vec$LT$u8$GT$$GT$11partial_cmp17h86d379b2fda395a8E",
            "__ZN10serde_json5value5Value11pointer_mut17h624e9c43841997eaE",
            "__ZN6memchr4arch3all6memchr5Three4iter17hdc64c4bc5f415761E",
            "__ZN112_$LT$object..read..elf..attributes..AttributeIndexIterator$u20$as$u20$core..iter..traits..iterator..Iterator$GT$4next17hf7b1d29d497e7920E",
            "__ZN4core3fmt3num3imp53_$LT$impl$u20$core..fmt..UpperExp$u20$for$u20$i64$GT$3fmt17ha20c946e758d00b8E",
            "__ZN10serde_json5value10partial_eq86_$LT$impl$u20$core..cmp..PartialEq$LT$serde_json..value..Value$GT$$u20$for$u20$str$GT$2eq17he0a84c6a14bce03aE",
            "__ZN82_$LT$std..sys..pal..unix..fs..cfm..CachedFileMetadata$u20$as$u20$std..io..Read$GT$4read17h8651aa37bac4697bE",
            "__ZN72_$LT$bytes..bytes_mut..BytesMut$u20$as$u20$bytes..buf..buf_impl..Buf$GT$13copy_to_bytes17hd9a13036d33d88a8E",
            "__ZN99_$LT$regex_automata..util..primitives..PatternID$u20$as$u20$core..convert..TryFrom$LT$usize$GT$$GT$8try_from17h80ed21918e5325c7E",
            "__ZN77_$LT$chrono..naive..time..NaiveTime$u20$as$u20$core..str..traits..FromStr$GT$8from_str17h9d3cd5c27a2c1842E",
            "__ZN6chrono5naive4date9NaiveDate25from_num_days_from_ce_opt17hfb2eb14dc6bf87c2E",
            "__ZN14regex_automata3nfa8thompson9backtrack5Cache3new17hc490887e09195a8cE",
            "__ZN4core7unicode9printable12is_printable17hc9e206adfdb16fd7E",
            "__ZN75_$LT$cel_interpreter..ser..Serializer$u20$as$u20$serde..ser..Serializer$GT$13serialize_seq17hbf9064e243061776E",
            "__ZN3std4time7Instant3now17ha019eef4350dce3eE",
            "__ZN14regex_automata3nfa8thompson3nfa10Transition7matches17h11d0bd2752e95f01E",
            "__ZN67_$LT$std..os..fd..owned..BorrowedFd$u20$as$u20$core..fmt..Debug$GT$3fmt17he29185a550d97a34E",
            "__ZN48_$LT$std..fs..File$u20$as$u20$std..io..Write$GT$14write_vectored17h0142c7717a2cd2b3E",
            "__ZN121_$LT$cel_parser..parser..__parse__LogicalAnd..__StateMachine$u20$as$u20$lalrpop_util..state_machine..ParserDefinition$GT$15simulate_reduce17hf7f8472d1653ea0bE",
            "__ZN3std2io5error5Error4_new17h7b10f3c6d5896dbeE",
            "__ZN6anyhow5error70_$LT$impl$u20$core..ops..deref..DerefMut$u20$for$u20$anyhow..Error$GT$9deref_mut17h54a8ff0e4d7fb17fE",
            "__ZN14regex_automata6hybrid3dfa7Builder9configure17haa03f2ba38eac73bE",
            "__ZN4core9panicking13assert_failed17hb6da2ffb6ab5d38fE",
            "__ZN56_$LT$std..process..Stdio$u20$as$u20$core..fmt..Debug$GT$3fmt17haea645afbbf74accE",
            "__ZN5bytes9bytes_mut102_$LT$impl$u20$core..cmp..PartialOrd$LT$bytes..bytes_mut..BytesMut$GT$$u20$for$u20$$RF$$u5b$u8$u5d$$GT$11partial_cmp17h848557a92f324afbE",
            "__ZN69_$LT$chrono..month..ParseMonthError$u20$as$u20$core..fmt..Display$GT$3fmt17h22f56f6853c7b2dfE",
            "__ZN4core3num6bignum5tests6Big8x33sub17h99e9bc975186ce87E",
            "__ZN77_$LT$$u5b$u8$u3b$$u20$23$u5d$$u20$as$u20$nom..traits..FindToken$LT$u8$GT$$GT$10find_token17h1ca1a63f79c9b4a1E",
            "__ZN67_$LT$regex..regex..string..Captures$u20$as$u20$core..fmt..Debug$GT$3fmt17ha08d75a03c34525aE",
            "__ZN65_$LT$std..sync..mpsc..RecvError$u20$as$u20$core..fmt..Display$GT$3fmt17h9e0bc4abeb8aa71fE",
            "__ZN4core3num6bignum5tests6Big8x310mul_digits17h97134b1b5bb8ca9cE",
            "__ZN4core5slice29_$LT$impl$u20$$u5b$T$u5d$$GT$16align_to_offsets3gcd17h7c3aee43db4bf10aE",
            "__ZN3std7process7Command5spawn17hf3c43df73b4ad93aE",
            "__ZN79_$LT$object..xcoff..Symbol32$u20$as$u20$object..read..xcoff..symbol..Symbol$GT$11name_offset17h330f3a6c778aa1f9E",
            "__ZN10cel_parser5parse12parse_string17h8ba2bd9779784cbbE",
            "__ZN86_$LT$core..num..nonzero..NonZero$LT$i128$GT$$u20$as$u20$core..str..traits..FromStr$GT$8from_str17hb5ffa188133813feE",
            "__ZN12regex_syntax3ast3Ast5flags17ha6f9724e584dfb9dE",
            "__ZN10serde_json3ser20key_must_be_a_string17h4ade00c2deb1cb84E",
            "__ZN5bytes5bytes11owned_clone17h11c725e0563652f5E",
            "__ZN12aho_corasick3nfa13noncontiguous8Compiler27init_unanchored_start_state17ha5cb0517d191d200E",
            "__ZN14regex_automata3nfa8thompson3nfa3NFA8patterns17hc9e54ce6936e67a6E",
            "__ZN6anyhow5error31_$LT$impl$u20$anyhow..Error$GT$9backtrace17hc382e8df5d71560dE",
            "__ZN85_$LT$object..xcoff..FileHeader64$u20$as$u20$object..read..xcoff..file..FileHeader$GT$7f_flags17h674c11ada42fbf1fE",
            "__ZN71_$LT$serde..de..impls..PathBufVisitor$u20$as$u20$serde..de..Visitor$GT$9expecting17h96bd9485acccb24eE",
            "__ZN3std2os4unix3net6stream10UnixStream9peer_cred17hcce706f967684a46E",
            "__ZN3std6thread8sleep_ms17h9c9048a5d32e9e64E",
            "__ZN67_$LT$core..slice..GetManyMutError$u20$as$u20$core..fmt..Display$GT$3fmt17h96cbb2905e9fad2bE",
            "__ZN10serde_json5value2de15SeqDeserializer3new17hae1067b262340890E",
            "__ZN14regex_automata3nfa8thompson6pikevm7Builder14build_from_nfa17hdcfd97bcce2a4eb8E",
            "__ZN6chrono10time_delta9TimeDelta11checked_div17h68d8d902cd799de8E",
            "__ZN71_$LT$$RF$std..sys..pal..unix..fd..FileDesc$u20$as$u20$std..io..Read$GT$8read_buf17hd4438908e3a15978E",
            "__ZN75_$LT$cel_interpreter..ser..Serializer$u20$as$u20$serde..ser..Serializer$GT$24serialize_struct_variant17h1b5146da5be0bb4bE",
            "__ZN10serde_json5error5Error13io_error_kind17hd2fa3d9398605d7eE",
            "__ZN4core3net6parser46_$LT$impl$u20$core..net..ip_addr..Ipv4Addr$GT$11parse_ascii17hf39915e599d4d671E",
            "__ZN90_$LT$$RF$str$u20$as$u20$nom..traits..Slice$LT$core..ops..range..Range$LT$usize$GT$$GT$$GT$5slice17he14034401e28044cE",
            "__ZN83_$LT$serde_json..value..ser..MapKeySerializer$u20$as$u20$serde..ser..Serializer$GT$14serialize_bool17h4700e3beacb71c80E",
            "__ZN78_$LT$cel_interpreter..ser..KeySerializer$u20$as$u20$serde..ser..Serializer$GT$14serialize_unit17hdbe8b43aecfc7a01E",
            "__ZN3std3sys3pal4unix2fs8set_perm17h7c6e05566f7bfddfE",
            "__ZN10serde_json6number6Number8from_f6417hefd3b1555b078be0E",
            "__ZN3std2os2fd5owned7OwnedFd9try_clone17hefabe3d445c7bddcE",
            "__ZN3std10sys_common3net154_$LT$impl$u20$std..sys_common..IntoInner$LT$$LP$std..sys_common..net..SocketAddrCRepr$C$u32$RP$$GT$$u20$for$u20$$RF$core..net..socket_addr..SocketAddr$GT$10into_inner17h1280856533ceb71eE",
            "__ZN3std4time10SystemTime3now17hf18aa2e177420df5E",
            "__ZN61_$LT$$RF$std..io..stdio..Stderr$u20$as$u20$std..io..Write$GT$9write_fmt17h060e80d4ab06c263E",
            "__ZN71_$LT$serde..de..value..ExpectedInMap$u20$as$u20$serde..de..Expected$GT$3fmt17he0119f63b4969f26E",
            "__ZN67_$LT$alloc..boxed..Box$LT$str$GT$$u20$as$u20$core..clone..Clone$GT$5clone17hc8c6e0570a0ef167E",
            "__ZN14regex_automata3nfa8thompson7builder7Builder5build17hca9586581aec635cE",
            "__ZN3std3env11current_dir17h0ff599cdc3465a7fE",
            "__ZN3nom8internal59Err$LT$$LP$$RF$$u5b$u8$u5d$$C$nom..error..ErrorKind$RP$$GT$8to_owned17hdfdfb705f4b09007E",
            "__ZN4core9panicking13assert_failed17h8b4722835163adf1E",
            "__ZN4core3str8converts13from_utf8_mut17hcba9a178173f48ecE",
            "__ZN14regex_automata6hybrid3dfa6Config26get_minimum_cache_capacity17h56c995c6bbfa5ad5E",
            "__ZN3std6thread7current7current17h46faff132f13bff3E",
            "__ZN93_$LT$aho_corasick..util..primitives..StateID$u20$as$u20$core..convert..TryFrom$LT$u16$GT$$GT$8try_from17h9271bd62d89b114cE",
            "__ZN10cel_parser5parse17hf8d64f4bf9b46ef0E",
            "__ZN6chrono5naive4date9NaiveDate11from_yo_opt17h42370a358e810135E",
            "__ZN4core5slice4sort6stable14driftsort_main17h190b92ace4e01877E",
            "__ZN79_$LT$$RF$alloc..vec..Vec$LT$u8$GT$$u20$as$u20$regex..regex..bytes..Replacer$GT$14replace_append17hc6f1aa9b464ad29fE",
            "__ZN80_$LT$std..sys..pal..unix..pipe..AnonPipe$u20$as$u20$std..os..fd..owned..AsFd$GT$5as_fd17h2e681bc216193489E",
            "__ZN14regex_automata3dfa7onepass3DFA12new_from_nfa17h30878ef635e17ae9E",
            "__ZN4core5slice5index22slice_index_order_fail8do_panic7runtime17h8db7eb2fbc8d39e6E",
            "__ZN78_$LT$cel_interpreter..ser..KeySerializer$u20$as$u20$serde..ser..Serializer$GT$13serialize_str17h139fc0397703d45eE",
            "__ZN14regex_automata4meta5regex9RegexInfo3new17h77604fd0bcae1afdE",
            "__ZN15cel_interpreter9functions3map17h7835a9f86f11fe4dE",
            "__ZN80_$LT$$u5b$u8$u3b$$u20$9$u5d$$u20$as$u20$nom..traits..FindToken$LT$$RF$u8$GT$$GT$10find_token17h2c1ebcb87fe60818E",
            "__ZN14regex_automata3nfa8thompson6pikevm6PikeVM12create_cache17h607d8d24db8d539cE",
            "__ZN3std3net3udp9UdpSocket9broadcast17h1299922f50f139b4E",
            "__ZN121_$LT$cel_parser..parser..__parse__Expression..__StateMachine$u20$as$u20$lalrpop_util..state_machine..ParserDefinition$GT$15expected_tokens17h5f0221e25a5a5258E",
            "__ZN3std2os4unix3net6stream10UnixStream12connect_addr17h9e1f301832721f40E",
            "__ZN4core9panicking19panic_cannot_unwind17haabece57ba254f4cE",
            "__ZN3std3ffi6os_str5OsStr18to_ascii_lowercase17h6d6cf72d48c5c6bcE",
            "__ZN61_$LT$regex_syntax..hir..Class$u20$as$u20$core..fmt..Debug$GT$3fmt17hd18ffc396a978ee3E",
            "__ZN12regex_syntax3hir10ClassBytes7literal17hf3b6dcf222aeddceE",
            "__ZN14regex_automata3nfa8thompson6pikevm6PikeVM3new17h1b6b4e858f6326c1E",
            "__ZN59_$LT$$RF$std..pipe..PipeReader$u20$as$u20$std..io..Read$GT$13read_vectored17ha3618f69e18a9b66E",
            "__ZN3std2os4unix3net8datagram12UnixDatagram4pair17h7c5b3ff04e2c1a41E",
            "__ZN121_$LT$cel_parser..parser..__parse__FieldInits..__StateMachine$u20$as$u20$lalrpop_util..state_machine..ParserDefinition$GT$15token_to_symbol17hdf1515939f5eb1feE",
            "__ZN5regex8builders5bytes12RegexBuilder14dfa_size_limit17h54e011b43abe76f6E",
            "__ZN122_$LT$cel_parser..parser..__parse__Conditional..__StateMachine$u20$as$u20$lalrpop_util..state_machine..ParserDefinition$GT$15expected_tokens17h85b89938f82db624E",
            "__ZN72_$LT$cel_interpreter..objects..Value$u20$as$u20$core..cmp..PartialEq$GT$2eq17hed860fccecd4839cE",
            "__ZN4core7unicode12unicode_data9lowercase6lookup17h85a581e7d81d3146E",
            "__ZN79_$LT$std..sys..sync..mutex..pthread..Mutex$u20$as$u20$core..ops..drop..Drop$GT$4drop17h726dbc347aff2409E",
            "__ZN72_$LT$alloc..string..String$u20$as$u20$regex..regex..string..Replacer$GT$12no_expansion17h4954536e170f8256E",
            "__ZN4core10intrinsics3mir11__debuginfo19panic_cold_explicit17h15db3d2089821816E",
            "__ZN4core3fmt3num3imp55_$LT$impl$u20$core..fmt..UpperExp$u20$for$u20$usize$GT$3fmt17h9ad0bf09bf818c93E",
            "__ZN3std4path4Path15_with_file_name17h94684495ec8bb03dE",
            "__ZN11uniffi_core3ffi10rustbuffer10RustBuffer7destroy17h790ff096dd8514a1E",
            "__ZN83_$LT$serde_json..value..ser..MapKeySerializer$u20$as$u20$serde..ser..Serializer$GT$15serialize_tuple17h2f4f4f9734672aecE",
            "__ZN104_$LT$core..iter..adapters..copied..Copied$LT$I$GT$$u20$as$u20$core..iter..traits..iterator..Iterator$GT$4next17hfc14793c2866384cE",
            "__ZN162_$LT$cel_eval..ast.._..$LT$impl$u20$serde..de..Deserialize$u20$for$u20$cel_eval..ast..JSONRelationOp$GT$..deserialize..__Visitor$u20$as$u20$serde..de..Visitor$GT$9expecting17hcd259c8a7038d96cE",
            "__ZN5bytes9bytes_mut97_$LT$impl$u20$core..cmp..PartialEq$LT$bytes..bytes_mut..BytesMut$GT$$u20$for$u20$$u5b$u8$u5d$$GT$2eq17h950b65d5f08db2d1E",
            "__ZN59_$LT$u64$u20$as$u20$cel_interpreter..magic..FromContext$GT$12from_context17h302fbda06e5eb0d7E",
            "__ZN59_$LT$std..io..stdio..StdinLock$u20$as$u20$std..io..Read$GT$10read_exact17h73bc705e3f470175E",
            "__ZN5gimli4arch7AArch6413register_name17h78fc1718e113f148E",
            "__ZN14regex_automata3nfa8thompson8compiler8Compiler14finish_pattern17hbde0c28bead5b5a3E",
            "__ZN98_$LT$cel_interpreter..objects..Key$u20$as$u20$core..convert..From$LT$alloc..string..String$GT$$GT$4from17h036f87ad7b2560edE",
            "__ZN3std2fs81_$LT$impl$u20$std..io..Read$u20$for$u20$alloc..sync..Arc$LT$std..fs..File$GT$$GT$8read_buf17h0267e7262506015dE",
            "__ZN3std3net3tcp9TcpStream11set_nodelay17hd56156ebae15211bE",
            "__ZN6anyhow5error9ErrorImpl9backtrace17h96e7d251d8edf1baE",
            "__ZN5alloc3ffi5c_str7CString19into_bytes_with_nul17h6493aadcc1247f6eE",
            "__ZN5alloc7raw_vec19RawVec$LT$T$C$A$GT$8grow_one17h649280546f5e6759E",
            "__ZN10serde_json5value2de15MapDeserializer3new17hc418374ec2208693E",
            "__ZN12regex_syntax3ast13ClassSetUnion9into_item17hfb8c1970320e4576E",
            "__ZN87_$LT$core..str..lossy..Utf8Chunks$u20$as$u20$core..iter..traits..iterator..Iterator$GT$4next17h31270ba08103b52dE",
            "__ZN99_$LT$regex..regex..string..Regex$u20$as$u20$core..convert..TryFrom$LT$alloc..string..String$GT$$GT$8try_from17hd6e7d3b0b1b90041E",
            "__ZN3std3net3tcp11TcpListener15set_nonblocking17h945b8e9c8992af24E",
            "__ZN4core3num6bignum8Big32x409add_small17he0c3e55c8484969fE",
            "__ZN88_$LT$std..sys..sync..thread_parking..darwin..Parker$u20$as$u20$core..ops..drop..Drop$GT$4drop17h2263fa1e59be19d4E",
            "__ZN61_$LT$serde_json..error..Error$u20$as$u20$serde..de..Error$GT$13invalid_value17h4afcfde6237a7c4cE",
            "__ZN99_$LT$aho_corasick..util..prefilter..Packed$u20$as$u20$aho_corasick..util..prefilter..PrefilterI$GT$7find_in17h5414a43d5faba1e3E",
            "__ZN122_$LT$cel_parser..parser..__parse__Conditional..__StateMachine$u20$as$u20$lalrpop_util..state_machine..ParserDefinition$GT$15token_to_symbol17hfd4cba0b064ffcd8E",
            "__ZN88_$LT$std..time..Instant$u20$as$u20$core..ops..arith..Add$LT$core..time..Duration$GT$$GT$3add17he998c066dfd61c27E",
            "__ZN3std6thread6Thread5cname17h54f3d6f46a635c1dE",
            "__ZN222_$LT$$LT$cel_eval..ast.._..$LT$impl$u20$serde..de..Deserialize$u20$for$u20$cel_eval..ast..JSONExpression$GT$..deserialize..__Visitor$u20$as$u20$serde..de..Visitor$GT$..visit_map..__Visitor$u20$as$u20$serde..de..Visitor$GT$9expecting17h13d3960ebd3f3cc2E",
            "__ZN5regex8builders5bytes15RegexSetBuilder5build17h4abb8647de918feeE",
            "__ZN5gimli9constants4DwOp13static_string17he031f7b06e3e059aE",
            "__ZN95_$LT$regex_automata..util..primitives..StateID$u20$as$u20$core..convert..TryFrom$LT$u64$GT$$GT$8try_from17hb9d37ee7ccb4197dE",
            "__ZN56_$LT$std..thread..Thread$u20$as$u20$core..fmt..Debug$GT$3fmt17hf99ba18b55eee8beE",
            "__ZN6chrono5naive4date9NaiveDate19parse_and_remainder17hf022db33d7275d9aE",
            "__ZN6anyhow5error67_$LT$impl$u20$core..ops..deref..Deref$u20$for$u20$anyhow..Error$GT$5deref17h31f210c41f246722E",
            "__ZN66_$LT$dyn$u20$serde..de..Expected$u20$as$u20$core..fmt..Display$GT$3fmt17h5615ef8179d5dba2E",
            "__ZN6anyhow4kind5Boxed3new17h037aadd204aa29a5E",
            "__ZN12aho_corasick9automaton24try_find_overlapping_fwd17h9f5e7234b3736b8fE",
            "__ZN5alloc4sync16Arc$LT$T$C$A$GT$9drop_slow17h664a6cea4d786ba8E",
            "__ZN6chrono6format4scan10nanosecond17hf902ec2075b8b42bE",
            "__ZN145_$LT$serde..de..impls..$LT$impl$u20$serde..de..Deserialize$u20$for$u20$usize$GT$..deserialize..PrimitiveVisitor$u20$as$u20$serde..de..Visitor$GT$9expecting17h1d1fe9c10de7f3d3E",
            "__ZN92_$LT$std..panicking..begin_panic_handler..StaticStrPayload$u20$as$u20$core..fmt..Display$GT$3fmt17h0a2d8d017a544d48E",
            "__ZN127_$LT$cel_parser..parser..__parse__ArithmeticAddSub..__StateMachine$u20$as$u20$lalrpop_util..state_machine..ParserDefinition$GT$15expected_tokens17h1cd45d24abc8e7b9E",
            "__ZN9hashbrown3raw21RawTable$LT$T$C$A$GT$14reserve_rehash17h248d8c43895423e4E",
            "__ZN64_$LT$$RF$str$u20$as$u20$nom..traits..FindToken$LT$$RF$u8$GT$$GT$10find_token17h6ba5216313eed0b6E",
            "__ZN4core3num6bignum8Big32x406digits17h1477714ba1490378E",
            "__ZN3std3sys3pal4unix7process14process_common7Command3new17h1f4e50721b3ecec2E",
            "__ZN3std4path10Components7as_path17he1da6c7ebb761d35E",
            "__ZN62_$LT$$RF$str$u20$as$u20$nom..traits..FindToken$LT$char$GT$$GT$10find_token17h1de53b9832124b14E",
            "__ZN59_$LT$core..fmt..Arguments$u20$as$u20$core..fmt..Display$GT$3fmt17hffcdd831e617b6f5E",
            "__ZN5alloc7raw_vec19RawVec$LT$T$C$A$GT$8grow_one17hff6e2229cb9daf98E",
            "__ZN5serde3ser3fmt85_$LT$impl$u20$serde..ser..Serializer$u20$for$u20$$RF$mut$u20$core..fmt..Formatter$GT$13serialize_u3217h9790ac36508e4bfcE",
            "__ZN14regex_automata4meta8wrappers11HybridCache5reset17hace2a727d3550d61E",
            "__ZN59_$LT$$RF$std..pipe..PipeReader$u20$as$u20$std..io..Read$GT$11read_to_end17hd056d65c3d4f1c6fE",
            "__ZN186_$LT$serde..de..impls..$LT$impl$u20$serde..de..Deserialize$u20$for$u20$core..num..saturating..Saturating$LT$u128$GT$$GT$..deserialize..SaturatingVisitor$u20$as$u20$serde..de..Visitor$GT$9expecting17h843052834fe14b56E",
            "__ZN14regex_automata4meta5regex5Regex3new17h7311fb3c147b636dE",
            "__ZN85_$LT$object..xcoff..FileHeader32$u20$as$u20$object..read..xcoff..file..FileHeader$GT$8f_timdat17hf72fe9939a75c6c8E",
            "__ZN3std2os4unix3net8listener12UnixListener9try_clone17h068e79a11bb6e283E",
            "__ZN75_$LT$cel_interpreter..ser..Serializer$u20$as$u20$serde..ser..Serializer$GT$15serialize_bytes17h3172236dba69b10eE",
            "__ZN4core3num6bignum8Big32x408mul_pow217h6f040e0351622fc4E",
            "__ZN3std4path4Path5_join17hbe14848dee7a4ebaE",
            "__ZN71_$LT$core..str..error..ParseBoolError$u20$as$u20$core..fmt..Display$GT$3fmt17h1b0491ae34b6ec03E",
            "__ZN77_$LT$$u5b$u8$u3b$$u20$13$u5d$$u20$as$u20$nom..traits..FindToken$LT$u8$GT$$GT$10find_token17hc742c9513d478060E",
            "__ZN87_$LT$serde_json..value..de..VariantDeserializer$u20$as$u20$serde..de..VariantAccess$GT$12unit_variant17h7d67ab4c1bb864ceE",
            "__ZN78_$LT$object..macho..FatArch32$u20$as$u20$object..read..macho..fat..FatArch$GT$10cpusubtype17hcf63165bd8455a37E",
            "__ZN5bytes3buf9vec_deque105_$LT$impl$u20$bytes..buf..buf_impl..Buf$u20$for$u20$alloc..collections..vec_deque..VecDeque$LT$u8$GT$$GT$5chunk17he85d3fcc63a5df9bE",
            "__ZN89_$LT$serde..__private..de..content..TagOrContentVisitor$u20$as$u20$serde..de..Visitor$GT$9expecting17h72b01279d7c89678E",
            "__ZN5alloc7raw_vec12handle_error17h6949cca563af0b24E",
            "__ZN77_$LT$alloc..raw_vec..RawVec$LT$T$C$A$GT$$u20$as$u20$core..ops..drop..Drop$GT$4drop17h86ed4182a081829eE",
            "__ZN94_$LT$std..time..Instant$u20$as$u20$core..ops..arith..AddAssign$LT$core..time..Duration$GT$$GT$10add_assign17hecc3ab484e0d2f4eE",
            "__ZN5bytes9bytes_mut93_$LT$impl$u20$core..cmp..PartialOrd$LT$bytes..bytes_mut..BytesMut$GT$$u20$for$u20$$RF$str$GT$11partial_cmp17h24e5f10b1adb44a8E",
            "__ZN4core3fmt8builders9DebugList6finish17h0f0018419264f1f6E",
            "__ZN3std2io5stdio5stdin17h7b7800f611d3132cE",
            "__ZN4core3fmt8builders8DebugMap6finish17h4ea7df0646ae6fceE",
            "__ZN4core5slice29_$LT$impl$u20$$u5b$T$u5d$$GT$9ends_with17h40067c90e63ef5eeE",
            "__ZN14regex_automata6hybrid3dfa3DFA3new17h848b0b2074f86e28E",
            "__ZN85_$LT$std..backtrace_rs..backtrace..libunwind..Frame$u20$as$u20$core..clone..Clone$GT$5clone17ha7736ff82d4a120dE",
            "__ZN14regex_automata4util8captures8Captures18interpolate_string17he8faee87a02c1d79E",
            "__ZN113_$LT$regex_automata..util..prefilter..byteset..ByteSet$u20$as$u20$regex_automata..util..prefilter..PrefilterI$GT$4find17hdfb013277eff242cE",
            "__ZN107_$LT$futures_lite..io..Cursor$LT$$RF$mut$u20$$u5b$u8$u5d$$GT$$u20$as$u20$futures_io..if_std..AsyncWrite$GT$19poll_write_vectored17h5a0e7ec015fadf64E",
            "__ZN12aho_corasick4util9prefilter7Builder5build17hc426766bc041be94E",
            "__ZN4core5slice4sort6stable5drift11sqrt_approx17h908a9637252f402aE",
            "__ZN5serde3ser3fmt85_$LT$impl$u20$serde..ser..Serializer$u20$for$u20$$RF$mut$u20$core..fmt..Formatter$GT$13serialize_i6417h8bd77f33495bc439E",
            "__ZN5alloc6string6String12from_utf16le17hed6a19bfa830f2d4E",
            "__ZN4core9panicking11panic_const24panic_const_add_overflow17hcab0ddd8a88274ebE",
            "__ZN5regex8builders6string12RegexBuilder5build17h1965af159b0c05b6E",
            "__ZN4core3num7dec2flt6lemire22compute_product_approx17h620aa903ef9044f1E",
            "__ZN14regex_automata6hybrid5regex5Regex7builder17hf62ee0e71712f45cE",
            "__ZN4core3fmt8builders8DebugMap21finish_non_exhaustive17ha2d48f3125ea53a5E",
            "__ZN6chrono5naive8datetime13NaiveDateTime18checked_add_months17h874b1ebffd6a9678E",
            "__ZN4core5slice5index29slice_end_index_overflow_fail17hc837fc5ecba6a400E",
            "__ZN83_$LT$memchr..memmem..FindIter$u20$as$u20$core..iter..traits..iterator..Iterator$GT$4next17hec302c074cfb0621E",
            "__ZN3std2os4unix3net6stream10UnixStream9peer_addr17he4bb0be87cdfb62fE",
            "__ZN72_$LT$serde_json..error..JsonUnexpected$u20$as$u20$core..fmt..Display$GT$3fmt17hb33093545c045f02E",
            "__ZN5alloc11collections5btree4node21LeafNode$LT$K$C$V$GT$3new17h5618de90c623ac8eE",
            "__ZN66_$LT$anyhow..wrapper..BoxedError$u20$as$u20$core..error..Error$GT$6source17h207b28ed85a2c6afE",
            "__ZN58_$LT$std..process..Command$u20$as$u20$core..fmt..Debug$GT$3fmt17h563819958007f838E",
            "__ZN5bytes97_$LT$impl$u20$core..convert..From$LT$bytes..TryGetError$GT$$u20$for$u20$std..io..error..Error$GT$4from17hcdaff7c4f8a17ce4E",
            "__ZN4core3fmt9Formatter26debug_struct_field4_finish17h8a0f9f54d2ae47c0E",
            "__ZN15cel_interpreter9functions3int17h1b9c047f1027f197E",
            "__ZN75_$LT$std..env..ArgsOs$u20$as$u20$core..iter..traits..iterator..Iterator$GT$4next17h4fbf1297d95e13b6E",
            "__ZN12regex_syntax17is_word_character17hac97627bb57585a0E",
            "__ZN78_$LT$object..macho..FatArch64$u20$as$u20$object..read..macho..fat..FatArch$GT$5align17hfaa4c8840d199ce3E",
            "__ZN5alloc7raw_vec19RawVec$LT$T$C$A$GT$8grow_one17hfaf0504cf5a681cbE",
            "__ZN63_$LT$regex..regex..bytes..Match$u20$as$u20$core..fmt..Debug$GT$3fmt17h3603473ed9d24e79E",
            "__ZN14regex_automata4util6search10PatternSet10try_insert17h19346674d3d54562E",
            "__ZN4core3num6bignum5tests6Big8x39mul_small17ha3a33feaa096dcd8E",
            "__ZN87_$LT$core..num..nonzero..NonZero$LT$usize$GT$$u20$as$u20$core..str..traits..FromStr$GT$8from_str17ha5bbd7595307eb14E",
            "__ZN119_$LT$$LT$serde_json..value..Value$u20$as$u20$core..fmt..Display$GT$..fmt..WriterFormatter$u20$as$u20$std..io..Write$GT$5write17h1600e46b904f60d3E",
            "__ZN118_$LT$std..thread..thread_name_string..ThreadNameString$u20$as$u20$core..convert..From$LT$alloc..string..String$GT$$GT$4from17hc53e464f39cb2f46E",
            "__ZN83_$LT$object..xcoff..AuxHeader32$u20$as$u20$object..read..xcoff..file..AuxHeader$GT$7o_bsize17he49d81c1d309f389E",
            "__ZN69_$LT$core..num..bignum..Big32x40$u20$as$u20$core..cmp..PartialOrd$GT$11partial_cmp17hc66b20c431828a2cE",
            "__ZN6chrono5naive4date9NaiveDate18checked_add_months17h9b6f8046b2ee8e3eE",
            "__ZN112_$LT$object..read..pe..relocation..RelocationBlockIterator$u20$as$u20$core..iter..traits..iterator..Iterator$GT$4next17hd9c9f967d2ebf5cdE",
            "__ZN6anyhow5chain82_$LT$impl$u20$core..iter..traits..iterator..Iterator$u20$for$u20$anyhow..Chain$GT$4next17h39a98aedddcf3a12E",
            "__ZN71_$LT$regex_syntax..hir..ClassBytesRange$u20$as$u20$core..fmt..Debug$GT$3fmt17h59938d7d67c93e6bE",
            "__ZN12regex_syntax4utf812Utf8Sequence7reverse17h912642d104cff272E",
            "__ZN3std2fs4File6unlock17h68042a9f1be3ede9E",
            "__ZN6chrono5month5Month8num_days17h5c391a407394db53E",
            "__ZN68_$LT$bytes..bytes_mut..BytesMut$u20$as$u20$core..ops..drop..Drop$GT$4drop17h4fb2ffef3ac3eb32E",
            "__ZN3std2fs8DirEntry8metadata17h584b53984be5e1c0E",
            "__ZN15cel_interpreter9functions4size17h8ff8ee0dc4a489b4E",
            "__ZN5alloc7raw_vec19RawVec$LT$T$C$A$GT$8grow_one17h86ff5081822b2e50E",
            "__ZN110_$LT$regex_automata..util..captures..CapturesPatternIter$u20$as$u20$core..iter..traits..iterator..Iterator$GT$9size_hint17h48564062d9320a5aE",
            "__ZN121_$LT$cel_parser..parser..__parse__Expression..__StateMachine$u20$as$u20$lalrpop_util..state_machine..ParserDefinition$GT$6reduce17hee65796d8195834aE",
            "__ZN9hashbrown3raw21RawTable$LT$T$C$A$GT$14reserve_rehash17hc429cb02541feb74E",
            "__ZN90_$LT$bytes..bytes_mut..BytesMut$u20$as$u20$core..convert..From$LT$$RF$$u5b$u8$u5d$$GT$$GT$4from17h8fb4526f4c416b30E",
            "__ZN5alloc4sync16Arc$LT$T$C$A$GT$9drop_slow17h3f96bc8bb3d5d45aE",
            "__ZN5alloc7raw_vec19RawVec$LT$T$C$A$GT$8grow_one17h57c4f8018fdc6375E",
            "__ZN12regex_syntax3hir9translate10Translator9translate17h99f44fcda0fa479aE",
            "__ZN62_$LT$std..io..stdio..StdinLock$u20$as$u20$core..fmt..Debug$GT$3fmt17h6a858fb296d81497E",
            "__ZN105_$LT$uniffi_core..ffi..callbackinterface..UnexpectedUniFFICallbackError$u20$as$u20$core..fmt..Display$GT$3fmt17h5baecb1f583cc2c5E",
            "__ZN3std2fs8DirEntry9file_type17h511ef6eb9667c245E",
            "__ZN5alloc3ffi5c_str7CString10into_bytes17h34fe619545211d12E",
            "__ZN5alloc7raw_vec19RawVec$LT$T$C$A$GT$8grow_one17hb9dfa7c086843dc4E",
            "__ZN76_$LT$regex_syntax..ast..visitor..ClassInduct$u20$as$u20$core..fmt..Debug$GT$3fmt17h0a016a64d412e76fE",
            "__ZN3std3net3tcp11TcpListener11set_only_v617h78b8bac839fbc2e1E",
            "__ZN6chrono5naive4time9NaiveTime22overflowing_sub_offset17h1b67403774ecd0e7E",
            "__ZN6chrono5naive4date9NaiveDate8from_mdf17h15d91be4f91b90dfE",
            "__ZN99_$LT$chrono..naive..date..NaiveDate$u20$as$u20$core..ops..arith..Sub$LT$chrono..naive..Days$GT$$GT$3sub17hd2f45c1436595ca5E",
            "__ZN4core3fmt3num3imp52_$LT$impl$u20$core..fmt..Display$u20$for$u20$i64$GT$3fmt17h4ace4ed02ada3a5cE",
            "__ZN87_$LT$std..sys..pal..unix..os..Env$u20$as$u20$core..iter..traits..iterator..Iterator$GT$9size_hint17h230d7e7f9b38ecafE",
            "__ZN14regex_automata3nfa8thompson7builder7Builder8add_fail17h976dbe428fb7a5cfE",
            "__ZN77_$LT$$u5b$u8$u3b$$u20$28$u5d$$u20$as$u20$nom..traits..FindToken$LT$u8$GT$$GT$10find_token17hf5726078207f20eaE",
            "__ZN127_$LT$core..result..Result$LT$u64$C$cel_interpreter..ExecutionError$GT$$u20$as$u20$cel_interpreter..magic..IntoResolveResult$GT$19into_resolve_result17hf1cf6d87a5ee98aaE",
            "__ZN3std3net3udp9UdpSocket20set_multicast_ttl_v417h54b0b359935a81a1E",
            "__ZN5gimli9constants6DwLang13static_string17hefefb856a3843313E",
            "__ZN61_$LT$$RF$std..io..stdio..Stderr$u20$as$u20$std..io..Write$GT$5write17h77e344a2352e164aE",
            "__ZN81_$LT$alloc..string..Drain$u20$as$u20$core..convert..AsRef$LT$$u5b$u8$u5d$$GT$$GT$6as_ref17h5284a1f022ecf445E",
            "__ZN11uniffi_core3ffi10rustbuffer10RustBuffer3len17h6c75b0d2a4f62861E",
            "__ZN10cel_parser6parser16__parse__Primary8__action17hfe8d427e70ca6562E",
            "__ZN66_$LT$$RF$$u5b$u8$u5d$$u20$as$u20$regex..regex..bytes..Replacer$GT$12no_expansion17h5cae66023eb8ceeaE",
            "__ZN63_$LT$std..ffi..os_str..OsString$u20$as$u20$core..fmt..Write$GT$9write_str17hdec33c8a0bd05801E",
            "__ZN3std3net3udp9UdpSocket12read_timeout17hec6c6be3ce608f15E",
            "__ZN83_$LT$object..xcoff..AuxHeader32$u20$as$u20$object..read..xcoff..file..AuxHeader$GT$9o_snentry17h07996efcbaf640efE",
            "__ZN3std3env4vars17hcfddd33f5df2b72eE",
            "__ZN73_$LT$$RF$$u5b$char$u5d$$u20$as$u20$nom..traits..FindToken$LT$char$GT$$GT$10find_token17h63a62863868d7bb2E",
            "__ZN68_$LT$serde_json..read..StrRead$u20$as$u20$serde_json..read..Read$GT$9parse_str17hd673a236680a4298E",
            "__ZN69_$LT$$RF$str$u20$as$u20$nom..traits..FindSubstring$LT$$RF$str$GT$$GT$14find_substring17h43c93de2599eab39E",
            "__ZN50_$LT$std..fs..File$u20$as$u20$core..fmt..Debug$GT$3fmt17hd3211d84d5670497E",
            "__ZN3std7process4exit17h82e039fb108205e0E",
            "__ZN78_$LT$regex_automata..util..primitives..StateID$u20$as$u20$core..fmt..Debug$GT$3fmt17h2c742827b432956dE",
            "__ZN4core3fmt3num53_$LT$impl$u20$core..fmt..UpperHex$u20$for$u20$i16$GT$3fmt17hf3eb8f5db0bf3171E",
            "__ZN66_$LT$anyhow..wrapper..BoxedError$u20$as$u20$core..fmt..Display$GT$3fmt17hf95403e20bee33d3E",
            "__ZN170_$LT$cel_eval..models.._..$LT$impl$u20$serde..de..Deserialize$u20$for$u20$cel_eval..models..PassableMap$GT$..deserialize..__FieldVisitor$u20$as$u20$serde..de..Visitor$GT$9expecting17h7a04a9d267e47d4cE",
            "__ZN77_$LT$chrono..naive..datetime..NaiveDateTime$u20$as$u20$core..fmt..Display$GT$3fmt17h5a33751929a574f0E",
            "__ZN54_$LT$parking..Unparker$u20$as$u20$core..fmt..Debug$GT$3fmt17h8ce3cadd37b296b3E",
            "__ZN64_$LT$core..ops..range..RangeFull$u20$as$u20$core..fmt..Debug$GT$3fmt17h18542963342dcc95E",
            "__ZN93_$LT$cel_interpreter..resolvers..Argument$u20$as$u20$cel_interpreter..resolvers..Resolver$GT$7resolve17hf715d37c9df076b2E",
            "__ZN6chrono5naive4date9NaiveDate8from_ymd17h39c7a74aac4b30eaE",
            "__ZN12regex_syntax3hir17ClassUnicodeRange3len17hdce7e84c80d738d3E",
            "__ZN73_$LT$alloc..ffi..c_str..IntoStringError$u20$as$u20$core..fmt..Display$GT$3fmt17had75ab2f0f215bceE",
            "__ZN15cel_interpreter9functions3max17hc92e2710e8c9b0b9E",
            "__ZN143_$LT$serde..de..impls..$LT$impl$u20$serde..de..Deserialize$u20$for$u20$u16$GT$..deserialize..PrimitiveVisitor$u20$as$u20$serde..de..Visitor$GT$9expecting17h57a00d6b757ecd1fE",
            "__ZN192_$LT$core..result..Result$LT$chrono..datetime..DateTime$LT$chrono..offset..fixed..FixedOffset$GT$$C$cel_interpreter..ExecutionError$GT$$u20$as$u20$cel_interpreter..magic..IntoResolveResult$GT$19into_resolve_result17h2bc45360c011ad8fE",
            "__ZN78_$LT$cel_interpreter..ser..KeySerializer$u20$as$u20$serde..ser..Serializer$GT$21serialize_unit_struct17h4d7cde13ec967d3fE",
            "__ZN3std2os4unix3net8datagram12UnixDatagram10local_addr17ha68801317452a134E",
            "__ZN74_$LT$core..num..dec2flt..ParseFloatError$u20$as$u20$core..fmt..Display$GT$3fmt17h922230ea5512820dE",
            "__ZN112_$LT$regex_automata..util..captures..GroupInfoPatternNames$u20$as$u20$core..iter..traits..iterator..Iterator$GT$4next17hb2e5714dd27c9c59E",
            "__ZN81_$LT$$u5b$u8$u3b$$u20$17$u5d$$u20$as$u20$nom..traits..FindToken$LT$$RF$u8$GT$$GT$10find_token17hc0454e686cdaccccE",
            "__ZN59_$LT$f32$u20$as$u20$core..num..dec2flt..float..RawFloat$GT$15pow10_fast_path17h5aa818e654fc331cE",
            "__ZN5alloc7raw_vec19RawVec$LT$T$C$A$GT$8grow_one17h44511d89e98b8b0fE",
            "__ZN96_$LT$bytes..bytes_mut..BytesMut$u20$as$u20$core..cmp..PartialEq$LT$alloc..string..String$GT$$GT$2eq17hb367ca1e77278afdE",
            "__ZN85_$LT$object..xcoff..FileHeader64$u20$as$u20$object..read..xcoff..file..FileHeader$GT$7f_magic17hea3b72e039bb881aE",
            "__ZN11uniffi_core3ffi10rustfuture9scheduler9Scheduler4wake17hd0285e8a21ce7bceE",
            "__ZN5alloc7raw_vec19RawVec$LT$T$C$A$GT$8grow_one17h58f9fc4d3a2dfe63E",
            "__ZN56_$LT$parking..Unparker$u20$as$u20$core..clone..Clone$GT$5clone17ha70725a682986d01E",
            "__ZN76_$LT$$u5b$u8$u3b$$u20$2$u5d$$u20$as$u20$nom..traits..FindToken$LT$u8$GT$$GT$10find_token17hb9d0409212a27bedE",
            "__ZN12regex_syntax3hir10Repetition4with17hf42f5e59e24d6d2fE",
            "__ZN4core7unicode12unicode_data11conversions8to_lower17h92c7d7d2ac7d11caE",
            "__ZN3std3net3tcp9TcpStream3ttl17h0479445b45b11f4bE",
            "__ZN99_$LT$alloc..sync..Arc$LT$alloc..string..String$GT$$u20$as$u20$cel_interpreter..magic..FromValue$GT$10from_value17hd583c067e623f16cE",
            "__ZN53_$LT$std..io..IoSlice$u20$as$u20$core..fmt..Debug$GT$3fmt17hb460c5f0e6175a0dE",
            "__ZN12aho_corasick3nfa13noncontiguous8Compiler3new17h0f888ba50833563dE",
            "__ZN98_$LT$regex..regexset..string..SetMatchesIter$u20$as$u20$core..iter..traits..iterator..Iterator$GT$9size_hint17h576074799f353dbdE",
            "__ZN5alloc4sync16Arc$LT$T$C$A$GT$9drop_slow17hce407494eef57041E",
            "__ZN3std9panicking20rust_panic_with_hook17h09175422388924c9E",
            "__ZN73_$LT$chrono..naive..date..NaiveDate$u20$as$u20$core..default..Default$GT$7default17h68ca699a037e7b67E",
            "__ZN68_$LT$bytes..bytes_mut..BytesMut$u20$as$u20$core..cmp..PartialOrd$GT$11partial_cmp17hc113d88862528ef4E",
            "__ZN5alloc4sync16Arc$LT$T$C$A$GT$9drop_slow17hecde2148cad302e2E",
            "__ZN14regex_automata3dfa8remapper7onepass105_$LT$impl$u20$regex_automata..dfa..remapper..Remappable$u20$for$u20$regex_automata..dfa..onepass..DFA$GT$11swap_states17h6de72dbdcec8b110E",
            "__ZN55_$LT$std..path..Display$u20$as$u20$core..fmt..Debug$GT$3fmt17h1d76f8fb7d9c5b97E",
            "__ZN6chrono10time_delta9TimeDelta6to_std17h7881bbda376d6daeE",
            "__ZN3std7process10ExitStatus7exit_ok17h9a65eb6564fbd36fE",
            "__ZN3std3sys9backtrace26__rust_end_short_backtrace17h09c59ca318c53200E",
            "__ZN72_$LT$std..os..unix..net..stream..UnixStream$u20$as$u20$std..io..Read$GT$8read_buf17hb5e25fc9f46d0bb2E",
            "__ZN74_$LT$std..sys..pal..unix..time..SystemTime$u20$as$u20$core..fmt..Debug$GT$3fmt17h5679200e7ebc5d76E",
            "__ZN5bytes5bytes85_$LT$impl$u20$core..cmp..PartialEq$LT$bytes..bytes..Bytes$GT$$u20$for$u20$$RF$str$GT$2eq17h21163ba1d538404bE",
            "__ZN108_$LT$regex_automata..util..alphabet..ByteClassElements$u20$as$u20$core..iter..traits..iterator..Iterator$GT$4next17h40dd414757355e48E",
            "__ZN7parking6Parker4park17h274dd4d5483a6d1cE",
            "__ZN64_$LT$anyhow..wrapper..BoxedError$u20$as$u20$core..fmt..Debug$GT$3fmt17hb2bd2aba6e90ec4cE",
            "__ZN3std3net3tcp9TcpStream9try_clone17hf8d846eb035a27ebE",
            "__ZN63_$LT$chrono..weekday..Weekday$u20$as$u20$core..fmt..Display$GT$3fmt17h195427adeaaa0d5fE",
            "__ZN7parking8Unparker6unpark17hcbee6ad89201198bE",
            "__ZN48_$LT$std..fs..File$u20$as$u20$std..io..Write$GT$5write17h013f0ac3bac372a0E",
            "__ZN6object4read2pe6export11ExportTable5parse17he24b4ee6b15dbecfE",
            "__ZN105_$LT$alloc..sync..Arc$LT$alloc..vec..Vec$LT$u8$GT$$GT$$u20$as$u20$cel_interpreter..magic..FromContext$GT$12from_context17h9658d026406455bdE",
            "__ZN12regex_syntax3hir12ClassUnicode5union17hd1f711c39f0e507fE",
            "__ZN73_$LT$std..backtrace_rs..symbolize..Symbol$u20$as$u20$core..fmt..Debug$GT$3fmt17hee5d0cbc9a9f283aE",
            "__ZN85_$LT$object..xcoff..FileHeader32$u20$as$u20$object..read..xcoff..file..FileHeader$GT$7f_flags17h2f25ca71baaea02fE",
            "__ZN10cel_parser6parser14__parse__Unary8__action17h2c13e875679485bdE",
            "__ZN4core3fmt8builders11DebugStruct21finish_non_exhaustive17h2f48a4cfe102d08aE",
            "__ZN4core10intrinsics3mir8ReturnTo19panic_cold_explicit17hb714453096b03644E",
            "__ZN5regex8regexset5bytes8RegexSet5empty17hb934d11ed109ea58E",
            "__ZN15cel_interpreter7objects3Map3get17h4849e512e4da667cE",
            "__ZN4core3fmt3num50_$LT$impl$u20$core..fmt..Octal$u20$for$u20$u16$GT$3fmt17he5dbc28cd1465692E",
            "__ZN85_$LT$regex_syntax..hir..literal..Literal$u20$as$u20$core..convert..From$LT$u8$GT$$GT$4from17hba415ab3c1e74cccE",
            "__ZN83_$LT$object..xcoff..AuxHeader32$u20$as$u20$object..read..xcoff..file..AuxHeader$GT$5o_toc17hc9ae0b1e0d2b3a0aE",
            "__ZN63_$LT$gimli..constants..DwEhPe$u20$as$u20$core..fmt..Display$GT$3fmt17h4285705570d1fcd1E",
            "__ZN12regex_syntax3hir10ClassBytes9intersect17h67151d017d4ac0a4E",
            "__ZN5bytes5bytes13static_to_mut17hc1b5d4dc1dd31c36E",
            "__ZN90_$LT$std..env..ArgsOs$u20$as$u20$core..iter..traits..double_ended..DoubleEndedIterator$GT$9next_back17h0ad6b8cecdbea549E",
            "__ZN4core9panicking9panic_fmt17h6c401a9b2a07864dE",
            "__ZN7parking6Parker3new17h38a09e83036a7ff0E",
            "__ZN67_$LT$core..char..TryFromCharError$u20$as$u20$core..fmt..Display$GT$3fmt17h6004a414d7f859a3E",
            "__ZN85_$LT$object..xcoff..FileHeader32$u20$as$u20$object..read..xcoff..file..FileHeader$GT$7f_nscns17h0d528349048c74ecE",
            "__ZN143_$LT$serde..de..impls..$LT$impl$u20$serde..de..Deserialize$u20$for$u20$u32$GT$..deserialize..PrimitiveVisitor$u20$as$u20$serde..de..Visitor$GT$9expecting17h7474bf8dfaa614baE",
            "__ZN12regex_syntax3ast7visitor11HeapVisitor9pop_class17hbeaa5fb8b33c0361E",
            "__ZN63_$LT$core..cell..BorrowMutError$u20$as$u20$core..fmt..Debug$GT$3fmt17h2bb6ec2a142aa3baE",
            "__ZN3std6thread6Thread11new_unnamed17hbde8951d9e375009E",
            "__ZN86_$LT$std..env..ArgsOs$u20$as$u20$core..iter..traits..exact_size..ExactSizeIterator$GT$8is_empty17heaa16ba0a690ec07E",
            "__ZN3std3sys3pal4unix2fs7symlink17hf317afa0cb0af0afE",
            "__ZN120_$LT$futures_lite..io..Cursor$LT$$RF$mut$u20$alloc..vec..Vec$LT$u8$GT$$GT$$u20$as$u20$futures_io..if_std..AsyncWrite$GT$10poll_write17hd4a7b42df84a33fcE",
            "__ZN59_$LT$f64$u20$as$u20$cel_interpreter..magic..FromContext$GT$12from_context17hfa579e3a30ed1ae2E",
            "__ZN14regex_automata3nfa8thompson8compiler8Compiler9add_empty17hcc18b2e4b1d2295aE",
            "__ZN14regex_automata3nfa8thompson6pikevm6PikeVM7builder17h31d4ccb4ffd5e25aE",
            "__ZN75_$LT$alloc..vec..Vec$LT$u8$GT$$u20$as$u20$regex..regex..bytes..Replacer$GT$14replace_append17h6d64a50683e23c7dE",
            "__ZN5alloc6string6String15from_utf8_lossy17h14df623e5e0cfe1cE",
            "__ZN59_$LT$std..process..ChildStderr$u20$as$u20$std..io..Read$GT$8read_buf17h0c4d648a33bb7d0aE",
            "__ZN4core3fmt3num3imp52_$LT$impl$u20$core..fmt..LowerExp$u20$for$u20$u8$GT$3fmt17hb8e411cfef1ab1dfE",
            "__ZN65_$LT$core..sync..atomic..AtomicI8$u20$as$u20$core..fmt..Debug$GT$3fmt17h6970213538827228E",
            "__ZN14regex_automata3nfa8thompson6pikevm7Builder9configure17h0bca4b8bb7ff4d02E",
            "__ZN97_$LT$regex_syntax..hir..translate..TranslatorI$u20$as$u20$regex_syntax..ast..visitor..Visitor$GT$10visit_post17hd5b9b31db77c136eE",
            "__ZN72_$LT$alloc..string..String$u20$as$u20$regex..regex..string..Replacer$GT$14replace_append17h1eaf9fe4d059f11dE",
            "__ZN75_$LT$regex_syntax..ast..visitor..ClassFrame$u20$as$u20$core..fmt..Debug$GT$3fmt17h9dc8be53f5b492fdE",
            "__ZN83_$LT$serde_json..value..ser..MapKeySerializer$u20$as$u20$serde..ser..Serializer$GT$12serialize_i817hac8e31ad277779c8E",
            "__ZN14regex_automata4meta8strategy4Core15is_match_nofail17hc771402b65f040adE",
            "__ZN12regex_syntax4utf813Utf8Sequences5reset17he2af06150bbb0007E",
            "__ZN5alloc4sync16Arc$LT$T$C$A$GT$9drop_slow17h7aa77834af8a39e2E",
            "__ZN64_$LT$std..ffi..os_str..Display$u20$as$u20$core..fmt..Display$GT$3fmt17hcf55e64b26516fd7E",
            "__ZN5alloc7raw_vec19RawVec$LT$T$C$A$GT$8grow_one17hb97e5bab9d437540E",
            "__ZN83_$LT$object..xcoff..AuxHeader64$u20$as$u20$object..read..xcoff..file..AuxHeader$GT$7o_bsize17h391727a2ea95816dE",
            "__ZN68_$LT$serde..de..impls..CharVisitor$u20$as$u20$serde..de..Visitor$GT$9expecting17h10824a198e9305ecE",
            "__ZN94_$LT$std..sys..pal..unix..process..process_inner..ExitStatus$u20$as$u20$core..fmt..Display$GT$3fmt17h4bc805c682a99f9fE",
            "__ZN3std3sys3pal4unix2fs5rmdir17h234c2aa4f0bc2feaE",
            "__ZN3std3net3udp9UdpSocket10local_addr17h473d6fb577499ad1E",
            "__ZN42_$LT$$RF$T$u20$as$u20$core..fmt..Debug$GT$3fmt17h42872ad2a950687eE",
            "__ZN4core10intrinsics3mir12CopyForDeref19panic_cold_explicit17he84bc5d0678ca016E",
            "__ZN97_$LT$regex_automata..util..primitives..StateID$u20$as$u20$core..convert..TryFrom$LT$usize$GT$$GT$8try_from17h5d944ab27c7ae7d0E",
            "__ZN67_$LT$std..hash..random..RandomState$u20$as$u20$core..fmt..Debug$GT$3fmt17ha287a2d7c5413d87E",
            "__ZN5alloc11collections5btree3map5entry30OccupiedEntry$LT$K$C$V$C$A$GT$8into_mut17h5acdb4a5be8d53b4E",
            "__ZN4core10intrinsics3mir6Return19panic_cold_explicit17h282db3eaec709650E",
            "__ZN5gimli4arch9PowerPc6413register_name17h1d3db3ba8caadf68E",
            "__ZN4core3fmt8builders8DebugMap5entry17hb9810cea131b3160E",
            "__ZN3std3net3udp9UdpSocket9peer_addr17hcc14a85b5210b3e2E",
            "__ZN83_$LT$object..xcoff..AuxHeader64$u20$as$u20$object..read..xcoff..file..AuxHeader$GT$12o_text_start17hcbe76346a8b2edeaE",
            "__ZN3std2fs4File4lock17h98e585e0b5f8fdcdE",
            "__ZN12regex_syntax3hir7literal9Extractor7extract17h1e0ca9bb940b0f7aE",
            "__ZN5bytes9bytes_mut104_$LT$impl$u20$core..cmp..PartialEq$LT$bytes..bytes_mut..BytesMut$GT$$u20$for$u20$bytes..bytes..Bytes$GT$2eq17h00b21fc2d31ead1eE",
            "__ZN4core3num6bignum8Big32x408from_u6417h908ad90ffb4ad1ffE",
            "__ZN5alloc7raw_vec19RawVec$LT$T$C$A$GT$8grow_one17h3ab5eef5213ce38eE",
            "__ZN63_$LT$$RF$std..net..tcp..TcpStream$u20$as$u20$std..io..Write$GT$14write_vectored17h3d18a9e71df9c0d0E",
            "__ZN3std2os4unix3net6stream10UnixStream10take_error17hc239008e761fdc1dE",
            "__ZN76_$LT$$RF$alloc..string..String$u20$as$u20$regex..regex..string..Replacer$GT$12no_expansion17h95b45acfa6578c56E",
            "__ZN3std2fs4File9sync_data17hce7d7764c5e448a9E",
            "__ZN12regex_syntax4utf812Utf8Sequence7matches17h10b90c313a91db3dE",
            "__ZN3std3net3udp9UdpSocket21set_multicast_loop_v617h128ae7abc0bb6273E",
            "__ZN14regex_automata3nfa8thompson3nfa3NFA11never_match17h1cd26cc54b3c7efaE",
            "__ZN5alloc11collections5btree4node12slice_insert17hebd8626dc64be192E",
            "__ZN14regex_automata6hybrid3dfa5Cache16search_total_len17hfc19fdf7c6a3328eE",
            "__ZN79_$LT$regex..regex..bytes..NoExpand$u20$as$u20$regex..regex..bytes..Replacer$GT$14replace_append17h37adf85fbd57ceceE",
            "__ZN5serde3ser3fmt85_$LT$impl$u20$serde..ser..Serializer$u20$for$u20$$RF$mut$u20$core..fmt..Formatter$GT$13serialize_u6417h223530e9afbceaf7E",
            "__ZN62_$LT$gimli..constants..DwLns$u20$as$u20$core..fmt..Display$GT$3fmt17h25a1b09396d81ed9E",
            "__ZN81_$LT$aho_corasick..nfa..noncontiguous..Transition$u20$as$u20$core..fmt..Debug$GT$3fmt17h7b5e71b86ac434bbE",
            "__ZN77_$LT$object..xcoff..Rel32$u20$as$u20$object..read..xcoff..relocation..Rel$GT$7r_vaddr17h417084254b3d7af3E",
            "__ZN69_$LT$regex_syntax..utf8..Utf8Sequence$u20$as$u20$core..fmt..Debug$GT$3fmt17h63a7e57fd8d5bc24E",
            "__ZN5alloc4sync16Arc$LT$T$C$A$GT$9drop_slow17h17caff91b3c1a8ccE",
            "__ZN62_$LT$core..num..bignum..Big32x40$u20$as$u20$core..cmp..Ord$GT$3cmp17h077e0eda9e2adafbE",
            "__ZN12aho_corasick9automaton12try_find_fwd17h1ba461cb9fce8143E",
            "__ZN3std10sys_common3net9UdpSocket4bind17h25b7c8677879f896E",
            "__ZN4core3fmt3num51_$LT$impl$u20$core..fmt..Octal$u20$for$u20$u128$GT$3fmt17h2a471f43c90bc782E",
            "__ZN4core5slice5index22slice_index_order_fail17hfd9462710242cf50E",
            "__ZN5alloc7raw_vec19RawVec$LT$T$C$A$GT$8grow_one17ha7afeff6b9729ce6E",
            "__ZN61_$LT$std..net..tcp..TcpStream$u20$as$u20$core..fmt..Debug$GT$3fmt17h005147c2b04d37aaE",
            "__ZN6object4read4coff7section12SectionTable23max_section_file_offset17hea6103d92e2af20fE",
            "__ZN71_$LT$chrono..time_delta..TimeDelta$u20$as$u20$core..ops..arith..Sub$GT$3sub17h88af04e3f870653fE",
            "__ZN4core5alloc6layout6Layout19is_size_align_valid17h683d3667d52a65faE",
            "__ZN83_$LT$serde_json..value..ser..MapKeySerializer$u20$as$u20$serde..ser..Serializer$GT$13serialize_f6417ha13597906a9f05ecE",
            "__ZN101_$LT$aho_corasick..packed..pattern..PatternIter$u20$as$u20$core..iter..traits..iterator..Iterator$GT$4next17h3575f09ffda62042E",
            "__ZN5alloc3vec16Vec$LT$T$C$A$GT$9split_off13assert_failed17hc46f5f0839cb802eE",
            "__ZN116_$LT$cel_parser..parser..__parse__Unary..__StateMachine$u20$as$u20$lalrpop_util..state_machine..ParserDefinition$GT$15simulate_reduce17h625ded089afc7849E",
            "__ZN193_$LT$std..sys..pal..unix..process..process_inner..$LT$impl$u20$std..sys..pal..unix..process..process_common..Command$GT$..posix_spawn..PosixSpawnFileActions$u20$as$u20$core..ops..drop..Drop$GT$4drop17h545f8bc64e660365E",
            "__ZN69_$LT$std..sync..mpmc..zero..ZeroToken$u20$as$u20$core..fmt..Debug$GT$3fmt17ha60df746093e16e9E",
            "__ZN6anyhow5error62_$LT$impl$u20$core..fmt..Display$u20$for$u20$anyhow..Error$GT$3fmt17h921632e48645d51dE",
            "__ZN72_$LT$std..sys..pal..unix..fs..DirBuilder$u20$as$u20$core..fmt..Debug$GT$3fmt17hff07977c0cb95027E",
            "__ZN120_$LT$cel_parser..parser..__parse__LogicalOr..__StateMachine$u20$as$u20$lalrpop_util..state_machine..ParserDefinition$GT$15token_to_symbol17hb2bf273126970addE",
            "__ZN14regex_automata6hybrid3dfa7Builder6syntax17h93af961681fa1dc2E",
            "__ZN72_$LT$core..net..parser..AddrParseError$u20$as$u20$core..fmt..Display$GT$3fmt17h016347e351590759E",
            "__ZN4core5slice6memchr14memchr_aligned17h146bff8c35d1ef90E",
            "__ZN5alloc7raw_vec19RawVec$LT$T$C$A$GT$8grow_one17he5efe3d8ad61e218E",
            "__ZN10serde_json5value2de42_$LT$impl$u20$serde_json..value..Value$GT$10unexpected17h3b32bccdc025c187E",
            "__ZN4core3num7flt2dec8round_up17hd23f4db200926d29E",
            "__ZN94_$LT$serde..__private..de..content..TagOrContentFieldVisitor$u20$as$u20$serde..de..Visitor$GT$9expecting17h52d4b0fa1f6fca7dE",
            "__ZN12regex_syntax3hir10Properties4look17h7dcf5ca4c3f01309E",
            "__ZN55_$LT$chrono..OutOfRange$u20$as$u20$core..fmt..Debug$GT$3fmt17h932f8e9e736a8df8E",
            "__ZN61_$LT$chrono..offset..utc..Utc$u20$as$u20$core..fmt..Debug$GT$3fmt17ha797ce6a3a1e8c1aE",
            "__ZN65_$LT$std..sys..os_str..bytes..Buf$u20$as$u20$core..fmt..Debug$GT$3fmt17h530bbf0999d40a6fE",
            "__ZN76_$LT$$RF$std..os..unix..net..stream..UnixStream$u20$as$u20$std..io..Read$GT$13read_vectored17h922fff5e0250ccb1E",
            "__ZN4core10intrinsics3mir7Variant19panic_cold_explicit17h5a81aa3aa684fc64E",
            "__ZN4core5slice4sort6stable14driftsort_main17h597d516153dc4e1aE",
            "__ZN4core3fmt5float50_$LT$impl$u20$core..fmt..Debug$u20$for$u20$f32$GT$3fmt17h4a7d5bb06f528abcE",
            "__ZN12regex_syntax3ast3Ast3dot17h5bc9c83635d08022E",
            "__ZN5alloc4sync16Arc$LT$T$C$A$GT$9drop_slow17h77b46e41a82d2914E",
            "__ZN59_$LT$std..process..ChildStdout$u20$as$u20$std..io..Read$GT$8read_buf17he530bc27943520ecE",
            "__ZN153_$LT$core..result..Result$LT$chrono..time_delta..TimeDelta$C$cel_interpreter..ExecutionError$GT$$u20$as$u20$cel_interpreter..magic..IntoResolveResult$GT$19into_resolve_result17hb34d7b6fa1e6e6b9E",
            "__ZN57_$LT$chrono..OutOfRange$u20$as$u20$core..fmt..Display$GT$3fmt17h42daf7de21b26a8bE",
            "__ZN12regex_syntax3ast13ClassSetUnion4push17hc101e0d9ca747c6aE",
            "__ZN3std2fs8DirEntry4path17h22170f17c304a564E",
            "__ZN4core3str21_$LT$impl$u20$str$GT$18split_at_unchecked17h9678feb75c812db0E",
            "__ZN6chrono5naive8datetime13NaiveDateTime14parse_from_str17hf426f458839cb434E",
            "__ZN229_$LT$$LT$cel_eval..ast.._..$LT$impl$u20$serde..de..Deserialize$u20$for$u20$cel_eval..ast..JSONExpression$GT$..deserialize..__Seed$u20$as$u20$serde..de..DeserializeSeed$GT$..deserialize..__Visitor$u20$as$u20$serde..de..Visitor$GT$9expecting17he0862b302d95e8ffE",
            "__ZN3std2io8buffered9bufreader6buffer6Buffer9backshift17h3702a904f1d41914E",
            "__ZN3std3sys6random19hashmap_random_keys17h98a8d863715d570fE",
            "__ZN65_$LT$std..time..SystemTimeError$u20$as$u20$core..fmt..Display$GT$3fmt17h084e608d444e75cfE",
            "__ZN10cel_parser3ast20ExpressionReferences9variables17he43f907f74b53456E",
            "__ZN4core10intrinsics3mir3Len19panic_cold_explicit17hfe59f9d175ba30ceE",
            "__ZN63_$LT$gimli..constants..DwAddr$u20$as$u20$core..fmt..Display$GT$3fmt17hf80d65bdcdca0d43E",
            "__ZN14regex_automata6hybrid5regex5Cache12memory_usage17he6dce3abd70ee98eE",
            "__ZN10serde_json2de21Deserializer$LT$R$GT$22parse_decimal_overflow17h91d8a1d02156bdafE",
            "__ZN6memchr6memmem8searcher22searcher_kind_one_byte17h82d633f266868b84E",
            "__ZN10cel_parser6parser19__parse__Expression6__goto17h332f4a97de93e5c6E",
            "__ZN61_$LT$std..io..stdio..StdoutLock$u20$as$u20$std..io..Write$GT$9write_all17hc0a5f3da27a7e4b4E",
            "__ZN3std3sys3pal4unix4pipe9anon_pipe17hc9fa0d2a49308fa7E",
            "__ZN91_$LT$std..sys..pal..unix..fs..ReadDir$u20$as$u20$core..iter..traits..iterator..Iterator$GT$4next17h2efbf19dc55a8a1fE",
            "__ZN75_$LT$regex_syntax..unicode..CaseFoldError$u20$as$u20$core..fmt..Display$GT$3fmt17h14ceff145ae2cef7E",
            "__ZN14regex_automata3nfa8thompson9backtrack7Builder3new17h5735216adfc09a54E",
            "__ZN77_$LT$serde_json..value..ser..Serializer$u20$as$u20$serde..ser..Serializer$GT$13serialize_seq17hb60840c800c2bd9aE",
            "__ZN75_$LT$std..os..unix..net..stream..UnixStream$u20$as$u20$core..fmt..Debug$GT$3fmt17h6f0253e37e2c9982E",
            "__ZN12aho_corasick4util5error10MatchError17unsupported_empty17ha937567f09c683deE",
            "__ZN65_$LT$std..sys..pal..unix..os..Env$u20$as$u20$core..fmt..Debug$GT$3fmt17h1b473b79fa9859eaE",
            "__ZN175_$LT$cel_eval..models.._..$LT$impl$u20$serde..de..Deserialize$u20$for$u20$cel_eval..models..ExecutionContext$GT$..deserialize..__FieldVisitor$u20$as$u20$serde..de..Visitor$GT$9expecting17h00a35395ae8bd914E",
            "__ZN83_$LT$object..xcoff..AuxHeader64$u20$as$u20$object..read..xcoff..file..AuxHeader$GT$9o_modtype17hf2d9ef709f9e2652E",
            "__ZN83_$LT$serde_json..value..ser..MapKeySerializer$u20$as$u20$serde..ser..Serializer$GT$13serialize_seq17h7735d5a8629d238fE",
            "__ZN5gimli4read5value5Value2or17hd54babac39a7c90aE",
            "__ZN5gimli4read5value5Value3div17h2668429121677036E",
            "__ZN77_$LT$chrono..time_delta..TimeDelta$u20$as$u20$core..ops..arith..SubAssign$GT$10sub_assign17h66de464cc7bc96bfE",
            "__ZN12regex_syntax5error11repeat_char17habb485f4ebd95b45E",
            "__ZN7parking6Parker12park_timeout17h3c337df82c88aaedE",
            "__ZN3std2os4unix3net4addr11sockaddr_un17hcdfe1d8f30ed23e1E",
            "__ZN97_$LT$regex_syntax..hir..translate..TranslatorI$u20$as$u20$regex_syntax..ast..visitor..Visitor$GT$24visit_class_set_item_pre17h015807ea88fcb0bdE",
            "__ZN83_$LT$object..xcoff..AuxHeader32$u20$as$u20$object..read..xcoff..file..AuxHeader$GT$7o_tsize17h8b9808e7450081e8E",
            "__ZN202_$LT$core..result..Result$LT$alloc..sync..Arc$LT$alloc..vec..Vec$LT$cel_interpreter..objects..Value$GT$$GT$$C$cel_interpreter..ExecutionError$GT$$u20$as$u20$cel_interpreter..magic..IntoResolveResult$GT$19into_resolve_result17h1e5c7bc2f71a71e1E",
            "__ZN5serde9__private2de7content7Content6as_str17h98a1f75535b02e9dE",
            "__ZN67_$LT$core..num..bignum..tests..Big8x3$u20$as$u20$core..cmp..Ord$GT$3cmp17h5e30261e7ce6ec11E",
            "__ZN169_$LT$serde..de..impls..$LT$impl$u20$serde..de..Deserialize$u20$for$u20$core..net..socket_addr..SocketAddr$GT$..deserialize..EnumVisitor$u20$as$u20$serde..de..Visitor$GT$9expecting17h49ca578c23b2b7a2E",
            "__ZN12regex_syntax3ast14ClassAsciiKind9from_name17hebd8c06afda2804eE",
            "__ZN105_$LT$regex_automata..meta..strategy..ReverseInner$u20$as$u20$regex_automata..meta..strategy..Strategy$GT$12memory_usage17h49b1acea0732fa6aE",
            "__ZN10cel_parser6parser17__parse__MapInits6__goto17h93c103e99eebaa75E",
            "__ZN14regex_automata6hybrid5regex5Cache5reset17hcd38ab6832521b75E",
            "__ZN10cel_parser6parser17__parse__MapInits8__action17h4c189c2ca2cefb3eE",
            "__ZN67_$LT$core..net..ip_addr..Ipv4Addr$u20$as$u20$core..fmt..Display$GT$3fmt17hba6fb9f1dbfd74b4E",
            "__ZN3std6thread6Thread12park_timeout17h31e3d4671320d583E",
            "__ZN5gimli4arch5RiscV16name_to_register17h80c8da4f6efa91b8E",
            "__ZN3std3sys3pal4unix2fs4copy17h6d1e886be64180f8E",
            "__ZN15cel_interpreter9functions6filter17h50a16064548abc0bE",
            "__ZN5alloc3ffi5c_str7CString17from_vec_with_nul17h1aa7ba55ffefb0baE",
            "__ZN127_$LT$std..sys..pal..unix..process..process_common..CommandArgs$u20$as$u20$core..iter..traits..exact_size..ExactSizeIterator$GT$3len17h5503ec8e9db551daE",
            "__ZN5bytes5bytes22promotable_even_to_mut17hf7cdf3625b1461e9E",
            "__ZN5gimli4read6abbrev12Abbreviation3new17he86af3cfea89e8d2E",
            "__ZN74_$LT$bytes..bytes_mut..BytesMut$u20$as$u20$bytes..buf..buf_mut..BufMut$GT$9put_bytes17ha124a4b755521251E",
            "__ZN6chrono5naive4date9NaiveDate15from_isoywd_opt17hfff6c5e0ac9cd443E",
            "__ZN4core3net6parser44_$LT$impl$u20$core..net..ip_addr..IpAddr$GT$11parse_ascii17hc84be56a87581138E",
            "__ZN4core3num6bignum5tests6Big8x36digits17h1b7234cc0ca1831bE",
            "__ZN86_$LT$core..num..nonzero..NonZero$LT$u128$GT$$u20$as$u20$core..str..traits..FromStr$GT$8from_str17hac03631007813558E",
            "__ZN141_$LT$$LT$serde..de..impls..range_to..Field$u20$as$u20$serde..de..Deserialize$GT$..deserialize..FieldVisitor$u20$as$u20$serde..de..Visitor$GT$9expecting17h5d3a966e8ae3a1adE",
            "__ZN4core10intrinsics3mir9StaticMut19panic_cold_explicit17h59b76e8f61987e77E",
            "__ZN51_$LT$$RF$std..fs..File$u20$as$u20$std..io..Seek$GT$4seek17h5e26e8ac77f322c7E",
            "__ZN77_$LT$chrono..time_delta..TimeDelta$u20$as$u20$core..ops..arith..AddAssign$GT$10add_assign17h6e7d85ddef2552c7E"
          ]
        }
      },
      {
        "data": {
          "global": [
            "__ZN4core7unicode12unicode_data9lowercase17BITSET_CHUNKS_MAP17hcf4641a4d6a39260E",
            "__ZN6memchr4arch6x86_646memchr12memrchr2_raw2FN17h8843a4ee8ad5b743E",
            "__ZN10std_detect6detect5cache5CACHE17h1ea57b31082b65fcE",
            "__ZN3std2io5stdio6stderr8INSTANCE17hc1551f667733b509E",
            "__ZN3std9panicking11EMPTY_PANIC17h5d29102f62c8c175E",
            "__ZN4core7unicode12unicode_data9lowercase16BITSET_CANONICAL17hc6205b93acd8fca8E",
            "__ZN6memchr4arch6x86_646memchr9count_raw2FN17haa8fb96aa98a8312E",
            "__ZN6memchr4arch6x86_646memchr12memrchr3_raw2FN17hf5174e9c012470f0E",
            "__ZN14regex_automata4util4pool5inner15THREAD_ID_INUSE17h9deefd373fdec1b1E",
            "__ZN10serde_json2de5POW1017h79fd96102585030aE",
            "__ZN3std9panicking11panic_count18GLOBAL_PANIC_COUNT17ha2b43f316c0e1cf4E",
            "__ZN6memchr4arch6x86_646memchr11memchr3_raw2FN17hdb43c7e1df105f0bE",
            "__ZN4core7unicode12unicode_data9lowercase14BITSET_MAPPING17hffb22571536334faE",
            "__ZN5bytes5bytes21PROMOTABLE_ODD_VTABLE17hce1e835dde7cfc6cE",
            "__ZN6memchr4arch6x86_646memchr12memrchr3_raw2FN17h54775956d009cfc6E",
            "__ZN5bytes9bytes_mut13SHARED_VTABLE17hf3c1b5c5cffa2378E",
            "__ZN6memchr4arch6x86_646memchr9count_raw2FN17h310c4e5b2647e88fE",
            "__ZN4core7unicode12unicode_data11white_space14WHITESPACE_MAP17h780ad1c1008718d6E",
            "__ZN5alloc4sync18STATIC_INNER_SLICE17hbe114d2306fd5fc5E",
            "__ZN10serde_json5value5index87_$LT$impl$u20$core..ops..index..Index$LT$I$GT$$u20$for$u20$serde_json..value..Value$GT$5index4NULL17h410503a61cc469cdE",
            "__ZN5bytes5bytes12OWNED_VTABLE17he1e8a847987f0c86E",
            "__ZN4core7unicode12unicode_data9uppercase16BITSET_CANONICAL17h67c5f943d17d28aeE",
            "__ZN3std6thread7Builder16spawn_unchecked_28_$u7b$$u7b$closure$u7d$$u7d$3MIN17hbce95699a7a5832aE",
            "__ZN10serde_json3ser9Formatter17write_char_escape10HEX_DIGITS17h34c77fff8dfe5f61E",
            "__ZN6memchr4arch6x86_646memchr11memrchr_raw2FN17hd388fb1b9c689f21E",
            "__ZN14regex_automata4util4pool5inner7COUNTER17h6253b3310963d11fE",
            "__ZN5serde2de5impls74_$LT$impl$u20$serde..de..Deserialize$u20$for$u20$std..time..SystemTime$GT$11deserialize14check_overflow13NANOS_PER_SEC17hf227dcd5e17fabaeE",
            "__ZN4core7unicode12unicode_data9uppercase19BITSET_INDEX_CHUNKS17h01f04c509b16d569E",
            "__ZN4core3num7flt2dec8strategy5grisu12CACHED_POW1017h1e418142a764744cE",
            "__ZN6memchr4arch6x86_646memchr10memchr_raw2FN17hf06562b6d6e19142E",
            "__ZN6memchr4arch6x86_646memchr12memrchr2_raw2FN17h8e65bf7576a9f251E",
            "__ZN6memchr4arch6x86_646memchr11memchr3_raw2FN17hfe9ceb1e95c4a7faE",
            "__ZN14regex_automata4util4pool5inner17THREAD_ID_UNOWNED17hbf728030afdc3df4E",
            "__ZN10serde_json3ser6ESCAPE17h960cd63c6d231aa4E",
            "__ZN6memchr4arch6x86_646memchr11memrchr_raw2FN17h1f539968f293ae9eE",
            "__ZN4core7unicode12unicode_data9uppercase17BITSET_CHUNKS_MAP17hb4c0b72f8e219e48E",
            "__ZN6memchr4arch6x86_646memchr10memchr_raw2FN17hab3b87e8fade7591E",
            "__ZN5serde2de5impls79_$LT$impl$u20$serde..de..Deserialize$u20$for$u20$core..net..ip_addr..IpAddr$GT$11deserialize8VARIANTS17hc4ef9232a68336c0E",
            "__ZN6memchr4arch6x86_646memchr11memchr2_raw2FN17hfa3e56c7bfa02706E",
            "__ZN5serde2de5impls87_$LT$impl$u20$serde..de..Deserialize$u20$for$u20$core..net..socket_addr..SocketAddr$GT$11deserialize8VARIANTS17h93994b4fb426fe33E",
            "__ZN5serde2de5impls14OSSTR_VARIANTS17h7f208b592f658bd2E",
            "__ZN5serde2de5impls73_$LT$impl$u20$serde..de..Deserialize$u20$for$u20$core..time..Duration$GT$11deserialize14check_overflow13NANOS_PER_SEC17hf7482c3ca8ca582dE",
            "__ZN4core7unicode12unicode_data9uppercase14BITSET_MAPPING17h8d560db9389b647eE",
            "__ZN3log20MAX_LOG_LEVEL_FILTER17h3c05e1f21be1de48E",
            "__ZN3std9panicking4HOOK17h49d99a8615345378E",
            "__ZN5bytes5bytes22PROMOTABLE_EVEN_VTABLE17h44a8e46fd4eb2b88E",
            "__ZN14regex_automata4util4pool5inner17THREAD_ID_DROPPED17h0a8cf8684834fca7E",
            "__ZN6memchr4arch6x86_646memchr11memchr2_raw2FN17h2f8382e323ca1562E",
            "__ZN4core7unicode12unicode_data9lowercase19BITSET_INDEX_CHUNKS17h0aebe29c0485cf58E"
          ],
          "thread_local": [
            "__ZN14regex_automata4util4pool5inner9THREAD_ID29_$u7b$$u7b$constant$u7d$$u7d$28_$u7b$$u7b$closure$u7d$$u7d$3VAL17h9019337524ebeef1E",
            "__ZN3std6thread9spawnhook11SPAWN_HOOKS29_$u7b$$u7b$constant$u7d$$u7d$28_$u7b$$u7b$closure$u7d$$u7d$3VAL17hc98a569217473e73E",
            "__ZN3std6thread7current7CURRENT17hf9e8197372090f85E",
            "__ZN3std4sync4mpmc7context7Context4with7CONTEXT29_$u7b$$u7b$constant$u7d$$u7d$28_$u7b$$u7b$closure$u7d$$u7d$3VAL17h207ee0dc69d29c3bE",
            "__ZN3std4hash6random11RandomState3new4KEYS29_$u7b$$u7b$constant$u7d$$u7d$28_$u7b$$u7b$closure$u7d$$u7d$3VAL17h9a7d4dbb96e0e795E",
            "__ZN12futures_lite6future8block_on5CACHE29_$u7b$$u7b$constant$u7d$$u7d$28_$u7b$$u7b$closure$u7d$$u7d$3VAL17hb987e7c911faba39E",
            "__ZN3std6thread7current2id2ID17h4399b81f033fe2e8E",
            "__ZN3std4sync4mpmc5waker17current_thread_id5DUMMY29_$u7b$$u7b$constant$u7d$$u7d$28_$u7b$$u7b$closure$u7d$$u7d$3VAL17h21f3ec73de657e28E"
          ]
        },
        "targets": [
          "x86_64-ios-simulator"
        ],
        "text": {
          "global": [
            "__ZN12regex_syntax11escape_into17h6516ede3a28f9af6E",
            "__ZN4core9panicking11panic_const28panic_const_async_fn_resumed17he129e0a474a5078aE",
            "__ZN10cel_parser6parser15__parse__Member6__goto17hf802cf4c63153008E",
            "__ZN79_$LT$$RF$alloc..vec..Vec$LT$u8$GT$$u20$as$u20$regex..regex..bytes..Replacer$GT$12no_expansion17h1f44f73f25d1a659E",
            "__ZN6chrono8datetime50DateTime$LT$chrono..offset..fixed..FixedOffset$GT$19parse_and_remainder17h2ab5f0d2e1dd793eE",
            "__ZN3std3sys3pal4unix2os5chdir17hfb4b3b0ca2ca7c5bE",
            "__ZN87_$LT$std..sys..pal..unix..os..Env$u20$as$u20$core..iter..traits..iterator..Iterator$GT$9size_hint17h11141ed8a823b25dE",
            "__ZN14rustc_demangle12try_demangle17h26f38abeaa191977E",
            "__ZN4core3fmt3num3imp53_$LT$impl$u20$core..fmt..UpperExp$u20$for$u20$u16$GT$3fmt17h0e7d9c819ea44c98E",
            "__ZN9hashbrown3raw21RawTable$LT$T$C$A$GT$14reserve_rehash17h1f748eaf9489094eE",
            "__ZN6object4read4coff7section48_$LT$impl$u20$object..pe..ImageSectionHeader$GT$8raw_name17h2527a74099eeaaebE",
            "__ZN3std3net3tcp11TcpListener3ttl17h4123fca3a2573d9fE",
            "__ZN77_$LT$$u5b$u8$u3b$$u20$18$u5d$$u20$as$u20$nom..traits..FindToken$LT$u8$GT$$GT$10find_token17hd263ed99649d64d3E",
            "__ZN5gimli4read5Error11description17ha44ce3c58051ab64E",
            "__ZN10serde_json5value10partial_eq90_$LT$impl$u20$core..cmp..PartialEq$LT$serde_json..value..Value$GT$$u20$for$u20$$RF$str$GT$2eq17hd5e747f48a9837b5E",
            "__ZN80_$LT$$u5b$u8$u3b$$u20$4$u5d$$u20$as$u20$nom..traits..FindToken$LT$$RF$u8$GT$$GT$10find_token17h7643c59dbc12a7caE",
            "__ZN3std5alloc21take_alloc_error_hook17h8f1ccef992fd4437E",
            "__ZN3std3env7_var_os17h8d9932b5dcbc2274E",
            "__ZN67_$LT$std..sys..os_str..bytes..Slice$u20$as$u20$core..fmt..Debug$GT$3fmt17hcf252b75fadbbca8E",
            "__ZN73_$LT$regex_automata..meta..regex..Regex$u20$as$u20$core..clone..Clone$GT$5clone17h392c410c028ff843E",
            "__ZN4core3num3fmt9Formatted5write17hfa77aecc1150d714E",
            "__ZN14regex_automata4meta5regex5Regex3new17h42747cb5e3021c57E",
            "__ZN122_$LT$cel_interpreter..objects..Key$u20$as$u20$core..convert..From$LT$alloc..sync..Arc$LT$alloc..string..String$GT$$GT$$GT$4from17h66f1e42aeedf3fefE",
            "__ZN5alloc4sync16Arc$LT$T$C$A$GT$9drop_slow17h32be6b3413fdb368E",
            "__ZN10cel_parser6parser28__parse__ArithmeticMulDivMod25ArithmeticMulDivModParser5parse17h33dea28c65dbee19E",
            "__ZN77_$LT$std..backtrace_rs..symbolize..SymbolName$u20$as$u20$core..fmt..Debug$GT$3fmt17h5dfb883da1f6b17fE",
            "__ZN69_$LT$serde_json..value..index..Type$u20$as$u20$core..fmt..Display$GT$3fmt17h7507b699d749482cE",
            "__ZN10serde_json5value4from89_$LT$impl$u20$core..convert..From$LT$$RF$str$GT$$u20$for$u20$serde_json..value..Value$GT$4from17h417ae0d0051b7efcE",
            "__ZN57_$LT$core..fmt..Formatter$u20$as$u20$core..fmt..Write$GT$10write_char17hcd671edc43ab89f6E",
            "__ZN4core10intrinsics3mir11Unreachable19panic_cold_explicit17hd187bdf8e5e1f227E",
            "__ZN3std3sys3pal4unix2fd8FileDesc14write_vectored17heb4d8cade976939eE",
            "__ZN72_$LT$core..net..parser..AddrParseError$u20$as$u20$core..fmt..Display$GT$3fmt17h4b1c5308dc99857bE",
            "__ZN72_$LT$alloc..string..String$u20$as$u20$regex..regex..string..Replacer$GT$12no_expansion17h4bb67cbfa582af6fE",
            "__ZN170_$LT$cel_eval..models.._..$LT$impl$u20$serde..de..Deserialize$u20$for$u20$cel_eval..models..ExecutionContext$GT$..deserialize..__Visitor$u20$as$u20$serde..de..Visitor$GT$9expecting17ha8b33f36bfc8ffd1E",
            "__ZN63_$LT$core..net..ip_addr..IpAddr$u20$as$u20$core..fmt..Debug$GT$3fmt17h3eb58f43765706e5E",
            "__ZN12regex_syntax3hir12ClassUnicode16case_fold_simple17h340d08a46c747405E",
            "__ZN49_$LT$u8$u20$as$u20$core..num..bignum..FullOps$GT$12full_div_rem17hf859e36d3840c41eE",
            "__ZN12aho_corasick4util5error10MatchError3new17h032a314da3fbeb67E",
            "__ZN5bytes5bytes5Bytes9is_unique17h3368161aeec4c695E",
            "__ZN62_$LT$bytes..bytes..Shared$u20$as$u20$core..ops..drop..Drop$GT$4drop17h7f391462f8f6c498E",
            "__ZN12regex_syntax3hir10ClassBytes5empty17ha384f378368d2f8eE",
            "__ZN3std4path18compare_components17ha56bb5de40e57604E",
            "__ZN78_$LT$core..ffi..c_str..FromBytesWithNulError$u20$as$u20$core..fmt..Display$GT$3fmt17hcbdbd5e49a65c1d7E",
            "__ZN52_$LT$$RF$std..fs..File$u20$as$u20$std..io..Write$GT$14write_vectored17ha8611fee4593f57fE",
            "__ZN4core9panicking13assert_failed17hf17f9ea1099051f7E",
            "__ZN5alloc6string6String15from_utf8_lossy17h0276377f10ebb045E",
            "__ZN12regex_syntax3ast3Ast10class_perl17h166cd6512aa69252E",
            "__ZN15cel_interpreter14ExecutionError20undeclared_reference17hc6dc356ac6ab75c4E",
            "__ZN5serde9__private2de7content7Content6as_str17he8613814f0b51948E",
            "__ZN71_$LT$core..alloc..layout..LayoutError$u20$as$u20$core..fmt..Display$GT$3fmt17hb5e45850571491a6E",
            "__ZN75_$LT$serde_json..value..de..KeyClassifier$u20$as$u20$serde..de..Visitor$GT$9expecting17h53f4d1e2ab2565b6E",
            "__ZN6chrono5naive4date9NaiveDate18checked_add_signed17h95bc9821763270c4E",
            "__ZN5gimli4arch7AArch6413register_name17h4f82862c72ac6ca2E",
            "__ZN87_$LT$std..sys..pal..unix..os..Env$u20$as$u20$core..iter..traits..iterator..Iterator$GT$4next17h8151ba54fceb8f6fE",
            "__ZN6chrono5naive4date9NaiveDate21signed_duration_since17haae7a954a19429abE",
            "__ZN12regex_syntax3hir10ClassBytes9intersect17h279cf774eb7ac660E",
            "__ZN77_$LT$$u5b$u8$u3b$$u20$31$u5d$$u20$as$u20$nom..traits..FindToken$LT$u8$GT$$GT$10find_token17h766ed26907b75d5aE",
            "__ZN12regex_syntax3hir9translate10Translator9translate17h687e6847bf3c6156E",
            "__ZN3std2os4unix3net6stream10UnixStream8shutdown17h37daa7830ac0d115E",
            "__ZN71_$LT$memchr..memmem..searcher..Searcher$u20$as$u20$core..fmt..Debug$GT$3fmt17h450f59d58e335381E",
            "__ZN4core3net6parser52_$LT$impl$u20$core..net..socket_addr..SocketAddr$GT$11parse_ascii17h8ace95e70aef1aafE",
            "__ZN73_$LT$core..ascii..ascii_char..AsciiChar$u20$as$u20$core..fmt..Display$GT$3fmt17h2c8a17201693aca2E",
            "__ZN81_$LT$$u5b$u8$u3b$$u20$17$u5d$$u20$as$u20$nom..traits..FindToken$LT$$RF$u8$GT$$GT$10find_token17hcf8560ba5549aa81E",
            "__ZN118_$LT$cel_parser..parser..__parse__Primary..__StateMachine$u20$as$u20$lalrpop_util..state_machine..ParserDefinition$GT$15token_to_symbol17hc57dfa1b06e38a4aE",
            "__ZN14regex_automata4util8captures14GroupInfoInner14small_slot_len17h2ad5bf76d8f14fe1E",
            "__ZN5bytes18panic_does_not_fit17h673da84dd011c523E",
            "__ZN12regex_syntax3hir10Properties5empty17h4abbed398b105a50E",
            "__ZN65_$LT$core..net..ip_addr..IpAddr$u20$as$u20$core..fmt..Display$GT$3fmt17ha588810c66d4e2c8E",
            "__ZN5bytes5bytes102_$LT$impl$u20$core..convert..From$LT$bytes..bytes..Bytes$GT$$u20$for$u20$alloc..vec..Vec$LT$u8$GT$$GT$4from17h2a5ca73985134b93E",
            "__ZN83_$LT$serde_json..value..ser..MapKeySerializer$u20$as$u20$serde..ser..Serializer$GT$13serialize_f3217h884c1ab13d298c10E",
            "__ZN64_$LT$std..io..error..ErrorKind$u20$as$u20$core..fmt..Display$GT$3fmt17h3ad59f98e652e35aE",
            "__ZN63_$LT$gimli..constants..DwLang$u20$as$u20$core..fmt..Display$GT$3fmt17h3a75a46aecea40fbE",
            "__ZN63_$LT$std..ffi..os_str..OsString$u20$as$u20$core..fmt..Write$GT$9write_str17h7bc1c232c364392dE",
            "__ZN167_$LT$cel_eval..ast.._..$LT$impl$u20$serde..de..Deserialize$u20$for$u20$cel_eval..ast..JSONRelationOp$GT$..deserialize..__FieldVisitor$u20$as$u20$serde..de..Visitor$GT$9expecting17hb1b94b5c5e9da286E",
            "__ZN14regex_automata4util8captures8Captures7matches17he213c0f9a98bf6fbE",
            "__ZN3std3net3tcp9TcpStream16set_read_timeout17hf35eae0f6b0826f6E",
            "__ZN88_$LT$std..env..Args$u20$as$u20$core..iter..traits..double_ended..DoubleEndedIterator$GT$9next_back17h9aac8700d435c01fE",
            "__ZN5alloc4sync16Arc$LT$T$C$A$GT$9drop_slow17h60cf9a3813f90fdcE",
            "__ZN119_$LT$$LT$serde_json..value..Value$u20$as$u20$core..fmt..Display$GT$..fmt..WriterFormatter$u20$as$u20$std..io..Write$GT$5write17h1c396b001b237f55E",
            "__ZN65_$LT$object..read..SectionIndex$u20$as$u20$core..fmt..Display$GT$3fmt17hc82b5d34286ad9baE",
            "__ZN68_$LT$bytes..bytes_mut..BytesMut$u20$as$u20$core..ops..drop..Drop$GT$4drop17h314e42e06007521aE",
            "__ZN6object4read9ObjectMap3get17hc4a4527d87c280a7E",
            "__ZN12regex_syntax3ast3Ast7literal17h60f9e6d73372cdb4E",
            "__ZN12aho_corasick3nfa13noncontiguous8Compiler3new17h47f3f95c366b35d6E",
            "__ZN12regex_syntax3hir5Class16case_fold_simple17h3b66a4e47edfac4fE",
            "__ZN85_$LT$object..xcoff..FileHeader64$u20$as$u20$object..read..xcoff..file..FileHeader$GT$8f_opthdr17h874ffc52c5850d18E",
            "__ZN50_$LT$u16$u20$as$u20$core..num..bignum..FullOps$GT$12full_div_rem17h5ee561131cdee42dE",
            "__ZN64_$LT$anyhow..wrapper..BoxedError$u20$as$u20$core..fmt..Debug$GT$3fmt17h9277df30c96cfa18E",
            "__ZN86_$LT$std..env..ArgsOs$u20$as$u20$core..iter..traits..exact_size..ExactSizeIterator$GT$8is_empty17ha6107a8befadc91dE",
            "__ZN3std2os2fd5owned10BorrowedFd18try_clone_to_owned17h6a89470d105bd445E",
            "__ZN10cel_parser6parser20__parse__Conditional17ConditionalParser3new17hfc4b1c172b94db56E",
            "__ZN12aho_corasick4util5error10MatchError18unsupported_stream17hba1c8efd90d661c3E",
            "__ZN81_$LT$$u5b$u8$u3b$$u20$20$u5d$$u20$as$u20$nom..traits..FindToken$LT$$RF$u8$GT$$GT$10find_token17ha8c0a067e8da3a5dE",
            "__ZN68_$LT$regex_syntax..hir..literal..Seq$u20$as$u20$core..fmt..Debug$GT$3fmt17h864e33bc21804911E",
            "__ZN4core3str7pattern11StrSearcher3new17h7561c4042222fa04E",
            "__ZN3std3sys4sync6rwlock5queue6RwLock21read_unlock_contended17h6f2abaaa78970b5fE",
            "__ZN83_$LT$object..xcoff..AuxHeader64$u20$as$u20$object..read..xcoff..file..AuxHeader$GT$7o_mflag17h2e9e11a1662b8f5fE",
            "__ZN5serde3ser3fmt85_$LT$impl$u20$serde..ser..Serializer$u20$for$u20$$RF$mut$u20$core..fmt..Formatter$GT$14serialize_u12817h93326a8a7a7c4191E",
            "__ZN12aho_corasick3dfa7Builder24build_from_noncontiguous17h8a65f8c551374bbaE",
            "__ZN116_$LT$cel_parser..parser..__parse__Unary..__StateMachine$u20$as$u20$lalrpop_util..state_machine..ParserDefinition$GT$15simulate_reduce17h20cf3246d91866e5E",
            "__ZN5gimli9constants4DwOp13static_string17h2df8dfe4f19e5e88E",
            "__ZN101_$LT$alloc..sync..Arc$LT$alloc..string..String$GT$$u20$as$u20$cel_interpreter..magic..FromContext$GT$12from_context17h0fe0b39708058e7bE",
            "__ZN103_$LT$alloc..sync..Arc$LT$alloc..vec..Vec$LT$u8$GT$$GT$$u20$as$u20$cel_interpreter..magic..FromValue$GT$10from_value17hfd61252457033547E",
            "__ZN4core3fmt3num53_$LT$impl$u20$core..fmt..LowerHex$u20$for$u20$u16$GT$3fmt17hb755d7cd0d43a9f7E",
            "__ZN4core9panicking26panic_nounwind_nobacktrace17hb48df9b564d149b1E",
            "__ZN192_$LT$core..result..Result$LT$chrono..datetime..DateTime$LT$chrono..offset..fixed..FixedOffset$GT$$C$cel_interpreter..ExecutionError$GT$$u20$as$u20$cel_interpreter..magic..IntoResolveResult$GT$19into_resolve_result17h65879c95b1305791E",
            "__ZN67_$LT$std..sys..pal..unix..stdio..Stdin$u20$as$u20$std..io..Read$GT$4read17h49a378158034fe11E",
            "__ZN14regex_automata3nfa8thompson6pikevm7Builder9configure17hc7f6682cc46c5aa7E",
            "__ZN81_$LT$$u5b$u8$u3b$$u20$28$u5d$$u20$as$u20$nom..traits..FindToken$LT$$RF$u8$GT$$GT$10find_token17he7eeeb33a17004a8E",
            "__ZN14regex_automata4util8captures9GroupInfo5empty17h7fe6830330fbed71E",
            "__ZN3std2os4unix3net6stream10UnixStream9try_clone17hb3c7b5a4d0b8f804E",
            "__ZN4core3fmt3num3imp53_$LT$impl$u20$core..fmt..LowerExp$u20$for$u20$i64$GT$3fmt17h6fa4b002b7e3da51E",
            "__ZN71_$LT$chrono..weekday..ParseWeekdayError$u20$as$u20$core..fmt..Debug$GT$3fmt17hc3e1dae35c157975E",
            "__ZN4core5slice4sort6shared9smallsort22panic_on_ord_violation17h6ff03cfef5c4aa80E",
            "__ZN4core3num3fmt9Formatted3len17h89a6238bacec173aE",
            "__ZN83_$LT$object..xcoff..AuxHeader64$u20$as$u20$object..read..xcoff..file..AuxHeader$GT$9o_modtype17he70c18aae70bec82E",
            "__ZN62_$LT$$RF$std..net..tcp..TcpStream$u20$as$u20$std..io..Read$GT$8read_buf17h869557c3b6bef6b7E",
            "__ZN14regex_automata6hybrid3dfa6Config8get_quit17hf49a726f0571b915E",
            "__ZN108_$LT$regex_automata..util..alphabet..ByteClassElements$u20$as$u20$core..iter..traits..iterator..Iterator$GT$4next17h57d6880af45a1586E",
            "__ZN6memchr4arch3all6twoway6Suffix7forward17h86f91be4caa3d892E",
            "__ZN6chrono5naive4date9NaiveDate8from_mdf17h3bf94fb1c36572d3E",
            "__ZN76_$LT$std..process..Command$u20$as$u20$std..os..unix..process..CommandExt$GT$6groups17h27c10959a384ee05E",
            "__ZN4core7unicode12unicode_data1n6lookup17h83f50dd5a10f3e18E",
            "__ZN77_$LT$std..sys_common..wtf8..Wtf8Buf$u20$as$u20$core..ops..deref..DerefMut$GT$9deref_mut17hb5382c1d5bd5e144E",
            "__ZN4core3num6bignum8Big32x4010mul_digits17h4a1abbc3fc601ef4E",
            "__ZN12regex_syntax5error11repeat_char17hbe81fc12777c4266E",
            "__ZN161_$LT$serde..de..impls..$LT$impl$u20$serde..de..Deserialize$u20$for$u20$core..net..ip_addr..IpAddr$GT$..deserialize..EnumVisitor$u20$as$u20$serde..de..Visitor$GT$9expecting17h1e1a103789dc7c88E",
            "__ZN12regex_syntax3hir12ClassUnicode20try_case_fold_simple17h8d993c6eb896bb64E",
            "__ZN7parking6Parker13park_deadline17h941497829a97c7c2E",
            "__ZN14regex_automata3nfa8thompson7builder7Builder17add_union_reverse17h1e31f1a11e49aca9E",
            "__ZN60_$LT$std..fs..File$u20$as$u20$std..os..unix..fs..FileExt$GT$8write_at17h5cd1773f96474c93E",
            "__ZN4core5slice4sort6stable14driftsort_main17h2f938d24e167110bE",
            "__ZN3std9panicking11panic_count9get_count17hd127c482dd04c59bE",
            "__ZN55_$LT$std..io..util..Repeat$u20$as$u20$std..io..Read$GT$11read_to_end17h2753efd09398a33eE",
            "__ZN75_$LT$aho_corasick..ahocorasick..AhoCorasick$u20$as$u20$core..fmt..Debug$GT$3fmt17h2b4177d8cf3729a0E",
            "__ZN5alloc11collections5btree4node171Handle$LT$alloc..collections..btree..node..NodeRef$LT$alloc..collections..btree..node..marker..Mut$C$K$C$V$C$NodeType$GT$$C$alloc..collections..btree..node..marker..KV$GT$15split_leaf_data17hc1b60c83aa75187cE",
            "__ZN4core7unicode12unicode_data5cased6lookup17hacc5ec1eca0640ceE",
            "__ZN4core3fmt3num54_$LT$impl$u20$core..fmt..LowerExp$u20$for$u20$i128$GT$3fmt17h23062cfde9b09396E",
            "__ZN3std3net11socket_addr130_$LT$impl$u20$std..sys_common..IntoInner$LT$libc..unix..bsd..sockaddr_in6$GT$$u20$for$u20$core..net..socket_addr..SocketAddrV6$GT$10into_inner17hed5e1569ddcf0d9dE",
            "__ZN78_$LT$cel_interpreter..ser..KeySerializer$u20$as$u20$serde..ser..Serializer$GT$13serialize_seq17hbd62b42eb244e2b6E",
            "__ZN5alloc4sync16Arc$LT$T$C$A$GT$9drop_slow17ha19defc3bd82286fE",
            "__ZN4core5slice4sort6stable14driftsort_main17h1141a3abfc024bdcE",
            "__ZN14regex_automata3nfa8thompson6pikevm6PikeVM12always_match17h76a589c02fb80c0aE",
            "__ZN81_$LT$$u5b$u8$u3b$$u20$12$u5d$$u20$as$u20$nom..traits..FindToken$LT$$RF$u8$GT$$GT$10find_token17hb191af29c7e49c5fE",
            "__ZN14regex_automata3nfa8thompson6pikevm7Builder14build_from_nfa17hdfa5622b463d4b0bE",
            "__ZN15cel_interpreter9functions3has17hd61867b9a9865c16E",
            "__ZN5alloc7raw_vec19RawVec$LT$T$C$A$GT$8grow_one17hf4e01d5ad4dc3f0aE",
            "__ZN5alloc3ffi5c_str7CString17from_vec_with_nul17h679abc6f58c040d0E",
            "__ZN6anyhow5chain66_$LT$impl$u20$core..default..Default$u20$for$u20$anyhow..Chain$GT$7default17hf47373d938251d2bE",
            "__ZN3std3env4_var17hba92f1038e14da18E",
            "__ZN66_$LT$regex_syntax..utf8..Utf8Range$u20$as$u20$core..fmt..Debug$GT$3fmt17hbe1dad448aa41bfeE",
            "__ZN108_$LT$aho_corasick..util..prefilter..StartBytesThree$u20$as$u20$aho_corasick..util..prefilter..PrefilterI$GT$7find_in17h358642644315f885E",
            "__ZN62_$LT$core..char..EscapeDebug$u20$as$u20$core..fmt..Display$GT$3fmt17hb2df4bb5a514f931E",
            "__ZN3std6thread8ThreadId3new17h2878140fd2c32bfbE",
            "__ZN5bytes9bytes_mut18shared_v_is_unique17hf83ca319180ec185E",
            "__ZN85_$LT$regex_automata..util..wire..BE$u20$as$u20$regex_automata..util..wire..Endian$GT$9write_u1617h574976c7aa0ffd4fE",
            "__ZN14regex_automata3nfa8thompson6pikevm5Cache3new17h5c8d5a78697531e4E",
            "__ZN57_$LT$bytes..TryGetError$u20$as$u20$core..fmt..Display$GT$3fmt17hc6540170e7ecdb22E",
            "__ZN121_$LT$cel_parser..parser..__parse__Expression..__StateMachine$u20$as$u20$lalrpop_util..state_machine..ParserDefinition$GT$15simulate_reduce17h46d385c00553d08bE",
            "__ZN5alloc7raw_vec19RawVec$LT$T$C$A$GT$8grow_one17h71e7b3b6365aa9b7E",
            "__ZN4core5slice4sort6stable14driftsort_main17h0134544576ce58fcE",
            "__ZN122_$LT$cel_parser..parser..__parse__Conditional..__StateMachine$u20$as$u20$lalrpop_util..state_machine..ParserDefinition$GT$15expected_tokens17hb43c112fbd403c7eE",
            "__ZN12regex_syntax6parser13ParserBuilder5build17hd947badbf7f4e2efE",
            "__ZN79_$LT$std..backtrace_rs..symbolize..SymbolName$u20$as$u20$core..fmt..Display$GT$3fmt17h4795e57a264b1f22E",
            "__ZN68_$LT$core..ptr..alignment..Alignment$u20$as$u20$core..fmt..Debug$GT$3fmt17h9083e1874e71aefeE",
            "__ZN83_$LT$object..xcoff..AuxHeader64$u20$as$u20$object..read..xcoff..file..AuxHeader$GT$10o_maxstack17h5bb6cf9ade47a62cE",
            "__ZN3std4sync6poison4once4Once10wait_force17h2a0fbf6dd7ee042fE",
            "__ZN62_$LT$$RF$str$u20$as$u20$nom..traits..FindToken$LT$char$GT$$GT$10find_token17haa0bcdb9334b710eE",
            "__ZN83_$LT$serde_json..value..ser..MapKeySerializer$u20$as$u20$serde..ser..Serializer$GT$13serialize_u3217hbad8a7c3027375d3E",
            "__ZN4core3num7dec2flt5parse12parse_number17h72aa54f0c66be63aE",
            "__ZN83_$LT$object..xcoff..AuxHeader32$u20$as$u20$object..read..xcoff..file..AuxHeader$GT$7o_dsize17h86d4cae59d7c54f3E",
            "__ZN4core3fmt5float53_$LT$impl$u20$core..fmt..UpperExp$u20$for$u20$f64$GT$3fmt17h11f6aed859f3f803E",
            "__ZN5alloc11collections5btree4node12slice_insert17h62ae74a72a5439afE",
            "__ZN59_$LT$std..io..stdio..StdinLock$u20$as$u20$std..io..Read$GT$11read_to_end17h85df0eb38f744cd2E",
            "__ZN4core7unicode12unicode_data2cc6lookup17h21880e43f8104c9dE",
            "__ZN127_$LT$dyn$u20$cel_eval..HostContext$u20$as$u20$uniffi_core..ffi_converter_traits..FfiConverterArc$LT$cel_eval..UniFfiTag$GT$$GT$5lower17h46c3cbf16b552e3cE",
            "__ZN78_$LT$object..macho..FatArch64$u20$as$u20$object..read..macho..fat..FatArch$GT$5align17h0ba4a5bff5f3e7c9E",
            "__ZN55_$LT$std..io..stdio..Stdin$u20$as$u20$std..io..Read$GT$4read17hdc750f29c7825aa7E",
            "__ZN11uniffi_core8metadata14MetadataBuffer9from_code17ha8ce440c7f793801E",
            "__ZN14regex_automata3dfa7onepass5Cache5reset17h04575f35d6513e9dE",
            "__ZN83_$LT$uniffi_core..ffi..rustbuffer..RustBuffer$u20$as$u20$core..default..Default$GT$7default17hb1c6611d5cc84cf3E",
            "__ZN5alloc7raw_vec19RawVec$LT$T$C$A$GT$8grow_one17hdc1a7d6b6d7f1b70E",
            "__ZN5bytes9bytes_mut15shared_v_to_mut17hdc21d41894d457b4E",
            "__ZN14regex_automata3nfa8thompson9backtrack7Builder8thompson17haaf4da71554d7ffdE",
            "__ZN4core5slice4sort6stable14driftsort_main17h8433084415de40a7E",
            "__ZN4core5slice6memchr14memchr_aligned17h2b923ab97389c672E",
            "__ZN173_$LT$std..sys..pal..unix..process..process_inner..$LT$impl$u20$std..sys..pal..unix..process..process_common..Command$GT$..do_exec..Reset$u20$as$u20$core..ops..drop..Drop$GT$4drop17h678bc0b3517f4843E",
            "__ZN70_$LT$serde_json..read..SliceRead$u20$as$u20$serde_json..read..Read$GT$13parse_str_raw17h156a472013faa97aE",
            "__ZN47_$LT$std..fs..File$u20$as$u20$std..io..Read$GT$13read_vectored17hd2ea3f671a9bdc78E",
            "__ZN4core3fmt3num54_$LT$impl$u20$core..fmt..UpperHex$u20$for$u20$i128$GT$3fmt17hf08c9ae7f5480e4fE",
            "__ZN77_$LT$$u5b$u8$u3b$$u20$27$u5d$$u20$as$u20$nom..traits..FindToken$LT$u8$GT$$GT$10find_token17hfc1052f62067001bE",
            "__ZN5bytes3fmt3hex70_$LT$impl$u20$core..fmt..UpperHex$u20$for$u20$bytes..fmt..BytesRef$GT$3fmt17h211f18a1870f1dfbE",
            "__ZN4core3fmt3num52_$LT$impl$u20$core..fmt..LowerHex$u20$for$u20$i8$GT$3fmt17h8393303c2323e86aE",
            "__ZN5regex6escape17h89ca4040fa7bd492E",
            "__ZN3std4path4Path10_ends_with17h039e3f36694e8c3eE",
            "__ZN82_$LT$core..char..ToUppercase$u20$as$u20$core..iter..traits..iterator..Iterator$GT$5count17h922eadaec8d275baE",
            "__ZN85_$LT$std..backtrace_rs..backtrace..libunwind..Frame$u20$as$u20$core..clone..Clone$GT$5clone17h40209492980ef9e1E",
            "__ZN67_$LT$core..str..iter..EscapeDebug$u20$as$u20$core..fmt..Display$GT$3fmt17hec7a3d0b9aade5a7E",
            "__ZN12regex_syntax17is_word_character17h31fd22e319292249E",
            "__ZN81_$LT$std..io..buffered..bufwriter..WriterPanicked$u20$as$u20$core..fmt..Debug$GT$3fmt17h96df52523432cb5aE",
            "__ZN68_$LT$serde..de..impls..CharVisitor$u20$as$u20$serde..de..Visitor$GT$9expecting17h561328f68fc7ccacE",
            "__ZN14regex_automata4util8captures8Captures17interpolate_bytes17hac59cb6e43b8c8ccE",
            "__ZN4core9panicking13assert_failed17hc75e7e4d444bd32eE",
            "__ZN60_$LT$$RF$std..pipe..PipeWriter$u20$as$u20$std..io..Write$GT$14write_vectored17hf600988012afd022E",
            "__ZN92_$LT$bytes..bytes..Bytes$u20$as$u20$core..convert..From$LT$alloc..vec..Vec$LT$u8$GT$$GT$$GT$4from17h345ce23b661336e2E",
            "__ZN10cel_parser6parser17__parse__MapInits8__action17h7520e098acd27cdbE",
            "__ZN5alloc11collections9vec_deque21VecDeque$LT$T$C$A$GT$4grow17h7883c744e6c529e1E",
            "__ZN12aho_corasick6packed7pattern8Patterns3add17h0621ab97b1b01dffE",
            "__ZN234_$LT$$LT$cel_eval..models.._..$LT$impl$u20$serde..de..Deserialize$u20$for$u20$cel_eval..models..PassableValue$GT$..deserialize..__Seed$u20$as$u20$serde..de..DeserializeSeed$GT$..deserialize..__Visitor$u20$as$u20$serde..de..Visitor$GT$9expecting17h861117de5c6c854aE",
            "__ZN3std3ffi6os_str5OsStr14into_os_string17h9d2e95fdce16da1bE",
            "__ZN79_$LT$futures_lite..future..YieldNow$u20$as$u20$core..future..future..Future$GT$4poll17h905900d2e431b1b4E",
            "__ZN92_$LT$cel_eval..ast..JSONAtom$u20$as$u20$core..convert..From$LT$cel_parser..ast..Atom$GT$$GT$4from17h6a11774afb249e59E",
            "__ZN83_$LT$object..xcoff..AuxHeader64$u20$as$u20$object..read..xcoff..file..AuxHeader$GT$7o_tsize17hbfe8cbe0932c49bdE",
            "__ZN14regex_automata3nfa8thompson8compiler8Compiler9add_union17h2feb959aaceac598E",
            "__ZN4core9panicking15const_panic_fmt17h254261553bb38da4E",
            "__ZN72_$LT$serde_json..error..JsonUnexpected$u20$as$u20$core..fmt..Display$GT$3fmt17hd58c2dc1f17c4a5aE",
            "__ZN4core5slice29_$LT$impl$u20$$u5b$T$u5d$$GT$15copy_from_slice17len_mismatch_fail8do_panic7runtime17hae016b6c4f7b4750E",
            "__ZN3std4path4Path10is_symlink17h7ab2f2cdcd304069E",
            "__ZN76_$LT$$u5b$u8$u3b$$u20$8$u5d$$u20$as$u20$nom..traits..FindToken$LT$u8$GT$$GT$10find_token17h2c27a33217f4d9e3E",
            "__ZN14regex_automata3nfa8thompson8compiler8Compiler5c_cap17hdb8424daf1b177c7E",
            "__ZN94_$LT$object..xcoff..SectionHeader64$u20$as$u20$object..read..xcoff..section..SectionHeader$GT$7s_flags17h58ec676fa44622c9E",
            "__ZN74_$LT$chrono..time_delta..OutOfRangeError$u20$as$u20$core..fmt..Display$GT$3fmt17h3b4ba22ca3396996E",
            "__ZN116_$LT$std..sys..pal..unix..process..process_common..CommandArgs$u20$as$u20$core..iter..traits..iterator..Iterator$GT$9size_hint17hc1f67d8900b01459E",
            "__ZN83_$LT$object..xcoff..AuxHeader64$u20$as$u20$object..read..xcoff..file..AuxHeader$GT$7o_dsize17hac227b580ef1b350E",
            "__ZN57_$LT$std..io..stdio..Stderr$u20$as$u20$std..io..Write$GT$5write17hcddcb2f7362aec8dE",
            "__ZN5alloc7raw_vec19RawVec$LT$T$C$A$GT$8grow_one17hd6110c7464adb79bE",
            "__ZN97_$LT$regex_automata..meta..strategy..Core$u20$as$u20$regex_automata..meta..strategy..Strategy$GT$12memory_usage17he529a018b7c20780E",
            "__ZN3std2fs8Metadata8accessed17hcedd203cc781207bE",
            "__ZN71_$LT$serde..de..value..ExpectedInMap$u20$as$u20$serde..de..Expected$GT$3fmt17h008712f5aeb6dc4dE",
            "__ZN14regex_automata3dfa7onepass3DFA12always_match17h4eea19355d7d8542E",
            "__ZN105_$LT$aho_corasick..util..prefilter..RareBytesTwo$u20$as$u20$aho_corasick..util..prefilter..PrefilterI$GT$7find_in17h9d2c558fe17e0871E",
            "__ZN94_$LT$object..xcoff..SectionHeader64$u20$as$u20$object..read..xcoff..section..SectionHeader$GT$7s_nlnno17hf4ec5be09c597d7dE",
            "__ZN59_$LT$$RF$std..io..stdio..Stdin$u20$as$u20$std..io..Read$GT$8read_buf17h75cf1e9b55f78c14E",
            "__ZN14regex_automata4util6search10PatternSet6insert17hbf1849eb3c9926f3E",
            "__ZN58_$LT$std..io..stdio..StdinRaw$u20$as$u20$std..io..Read$GT$11read_to_end17h5cb671d0a8eadcdeE",
            "__ZN3std9panicking9take_hook17h569cc834cef845d5E",
            "__ZN63_$LT$$RF$std..net..tcp..TcpStream$u20$as$u20$std..io..Write$GT$14write_vectored17he42424cd2f887011E",
            "__ZN75_$LT$core..net..socket_addr..SocketAddrV4$u20$as$u20$core..fmt..Display$GT$3fmt17hd6e81f9c7bd09fb0E",
            "__ZN4core3str6traits23str_index_overflow_fail17h2e967636fb37dea6E",
            "__ZN12regex_syntax4utf813Utf8Sequences3new17he005b5489c0eac63E",
            "__ZN56_$LT$std..process..Stdio$u20$as$u20$core..fmt..Debug$GT$3fmt17hd75f7c6746251d15E",
            "__ZN59_$LT$std..process..ChildStdout$u20$as$u20$std..io..Read$GT$4read17h9c846868ec4d13b9E",
            "__ZN55_$LT$std..pipe..PipeReader$u20$as$u20$std..io..Read$GT$11read_to_end17h21c2bb0b15e20401E",
            "__ZN172_$LT$cel_eval..models.._..$LT$impl$u20$serde..de..Deserialize$u20$for$u20$cel_eval..models..PassableValue$GT$..deserialize..__FieldVisitor$u20$as$u20$serde..de..Visitor$GT$9expecting17hc9adbf881e618081E",
            "__ZN5alloc7raw_vec19RawVec$LT$T$C$A$GT$8grow_one17h1002173a402c6454E",
            "__ZN65_$LT$cel_eval..DisplayableValue$u20$as$u20$core..fmt..Display$GT$3fmt17hf01527582b93d923E",
            "__ZN67_$LT$std..sys..pal..unix..stdio..Stdin$u20$as$u20$std..io..Read$GT$8read_buf17h5f5c77e489822494E",
            "__ZN58_$LT$std..net..tcp..TcpStream$u20$as$u20$std..io..Read$GT$13read_vectored17hceca1e369f799c49E",
            "__ZN4core3num14overflow_panic3add17hd8a521d562f629cbE",
            "__ZN5alloc7raw_vec20RawVecInner$LT$A$GT$15try_allocate_in17h34791502592a6391E",
            "__ZN69_$LT$std..sys..pal..unix..stdio..Stderr$u20$as$u20$std..io..Write$GT$14write_vectored17hebdc3541036fdc2aE",
            "__ZN5serde3ser3fmt85_$LT$impl$u20$serde..ser..Serializer$u20$for$u20$$RF$mut$u20$core..fmt..Formatter$GT$12serialize_u817h19c99c6f2cb6e9cfE",
            "__ZN5alloc4sync16Arc$LT$T$C$A$GT$9drop_slow17hc7e8043f3f450d2dE",
            "__ZN56_$LT$std..process..Child$u20$as$u20$core..fmt..Debug$GT$3fmt17h3a63072885e0c391E",
            "__ZN254_$LT$alloc..boxed..convert..$LT$impl$u20$core..convert..From$LT$alloc..string..String$GT$$u20$for$u20$alloc..boxed..Box$LT$dyn$u20$core..error..Error$u2b$core..marker..Send$u2b$core..marker..Sync$GT$$GT$..from..StringError$u20$as$u20$core..fmt..Debug$GT$3fmt17hbfde198460420acbE",
            "__ZN57_$LT$f64$u20$as$u20$cel_interpreter..magic..FromValue$GT$10from_value17h020394ee9ae96771E",
            "__ZN5gimli4arch6X86_6413register_name17h3540a693dbed8e6aE",
            "__ZN3std3net3udp9UdpSocket17multicast_loop_v417hfb494a3ce93fa048E",
            "__ZN79_$LT$object..xcoff..Symbol32$u20$as$u20$object..read..xcoff..symbol..Symbol$GT$7n_value17hd5c342b83a8946aaE",
            "__ZN5regex8regexset6string8RegexSet5empty17h8421e43f6218da94E",
            "__ZN60_$LT$std..io..stdio..StderrRaw$u20$as$u20$std..io..Write$GT$9write_fmt17ha959b8d69c5aa240E",
            "__ZN69_$LT$std..sync..mpmc..zero..ZeroToken$u20$as$u20$core..fmt..Debug$GT$3fmt17h6b04206a4c274881E",
            "__ZN5bytes9bytes_mut102_$LT$impl$u20$core..cmp..PartialOrd$LT$bytes..bytes_mut..BytesMut$GT$$u20$for$u20$$RF$$u5b$u8$u5d$$GT$11partial_cmp17h29bdf0007b575df0E",
            "__ZN5serde3ser3fmt85_$LT$impl$u20$serde..ser..Serializer$u20$for$u20$$RF$mut$u20$core..fmt..Formatter$GT$13serialize_f6417h64a71deb73dea9a5E",
            "__ZN83_$LT$aho_corasick..util..prefilter..RareByteOffsets$u20$as$u20$core..fmt..Debug$GT$3fmt17h8116acf2c55c76bfE",
            "__ZN5regex8builders6string15RegexSetBuilder15line_terminator17haded0c5ed1bd80c8E",
            "__ZN4core3fmt3num3imp53_$LT$impl$u20$core..fmt..LowerExp$u20$for$u20$u16$GT$3fmt17hd9af1cbd3b2da980E",
            "__ZN11uniffi_core3ffi10rustbuffer28uniffi_rustbuffer_from_bytes17h28da58792a66e09cE",
            "__ZN143_$LT$serde..de..impls..$LT$impl$u20$serde..de..Deserialize$u20$for$u20$i32$GT$..deserialize..PrimitiveVisitor$u20$as$u20$serde..de..Visitor$GT$9expecting17h3f7444b7bb5fc264E",
            "__ZN4core7unicode12unicode_data10alphabetic6lookup17h0d68e7e758699695E",
            "__ZN68_$LT$serde_json..read..StrRead$u20$as$u20$serde_json..read..Read$GT$17decode_hex_escape17hf98f41a5cbed7d19E",
            "__ZN14regex_automata3nfa8thompson9backtrack7Builder9configure17h3fa601639a7668d3E",
            "__ZN14regex_automata6hybrid5regex5Regex12create_cache17ha0fd21e88f3463d7E",
            "__ZN4core3fmt3num51_$LT$impl$u20$core..fmt..Binary$u20$for$u20$u16$GT$3fmt17hf469fd9cc69e5d7bE",
            "__ZN105_$LT$alloc..sync..Arc$LT$alloc..vec..Vec$LT$u8$GT$$GT$$u20$as$u20$cel_interpreter..magic..FromContext$GT$12from_context17h32615820b8eccf84E",
            "__ZN14regex_automata4meta8wrappers13ReverseHybrid12create_cache17h7a4d25ca6395f8c6E",
            "__ZN63_$LT$gimli..constants..DwAddr$u20$as$u20$core..fmt..Display$GT$3fmt17h248b288a2f1cac8aE",
            "__ZN4core5slice4sort6stable14driftsort_main17h871ec8bd842ca941E",
            "__ZN3std3sys3pal4unix6thread6Thread3new17hfce41c03dd4a70c7E",
            "__ZN14regex_automata3nfa8thompson7builder7Builder15add_capture_end17h0c52fdbcc2cfe424E",
            "__ZN14regex_automata4util8alphabet4Unit7is_byte17h2d54830a6deb8ffbE",
            "__ZN122_$LT$regex_automata..util..prefilter..aho_corasick..AhoCorasick$u20$as$u20$regex_automata..util..prefilter..PrefilterI$GT$6prefix17h7a0221b4d0507347E",
            "__ZN3std4path4Path6is_dir17h781df9fe662b4590E",
            "__ZN14regex_automata4util8captures8Captures23interpolate_string_into17h09e9f421310095d9E",
            "__ZN4core5slice6memchr7memrchr17h66167fa8dc524f5dE",
            "__ZN15cel_interpreter9functions11starts_with17h7c9b6a7778ab759fE",
            "__ZN5alloc4sync16Arc$LT$T$C$A$GT$9drop_slow17hfa52c9c80c5bd0e9E",
            "__ZN12aho_corasick6packed3api8Searcher12find_in_slow17h8b92f5fca4fe9ee1E",
            "__ZN3std2fs4File15set_permissions17h9f2a8bc4bc04bb45E",
            "__ZN77_$LT$$u5b$u8$u3b$$u20$16$u5d$$u20$as$u20$nom..traits..FindToken$LT$u8$GT$$GT$10find_token17h63cda3cc19bf415aE",
            "__ZN12regex_syntax3ast13ClassSetUnion4push17h63c95390f7cf4c85E",
            "__ZN5gimli4read5value5Value3not17hb2d823e246d5fb4fE",
            "__ZN73_$LT$alloc..ffi..c_str..IntoStringError$u20$as$u20$core..fmt..Display$GT$3fmt17h6446d12c4b3e11daE",
            "__ZN64_$LT$regex_syntax..ast..Position$u20$as$u20$core..fmt..Debug$GT$3fmt17h46230c2d1d273ce1E",
            "__ZN62_$LT$core..char..ToLowercase$u20$as$u20$core..fmt..Display$GT$3fmt17h52e500e4935eec1cE",
            "__ZN87_$LT$regex_automata..util..primitives..PatternIDError$u20$as$u20$core..fmt..Display$GT$3fmt17h2b41f85f50c8280aE",
            "__ZN82_$LT$std..sys..pal..unix..fs..cfm..CachedFileMetadata$u20$as$u20$std..io..Read$GT$11read_to_end17hfc123af430ed97acE",
            "__ZN5regex8builders5bytes12RegexBuilder14dfa_size_limit17h76fcdce942c4e21eE",
            "__ZN61_$LT$std..io..stdio..StderrLock$u20$as$u20$std..io..Write$GT$18write_all_vectored17hbdcdb105de8189e5E",
            "__ZN130_$LT$cel_parser..parser..__parse__ArithmeticMulDivMod..__StateMachine$u20$as$u20$lalrpop_util..state_machine..ParserDefinition$GT$15expected_tokens17h0c0eb4ef1ee616f4E",
            "__ZN14regex_automata3nfa8thompson3nfa3NFA8compiler17h83c7661e6f64ed09E",
            "__ZN73_$LT$std..os..unix..net..addr..SocketAddr$u20$as$u20$core..fmt..Debug$GT$3fmt17hbc46b08f30478f06E",
            "__ZN12regex_syntax3ast3Ast3dot17h4036b8cd18084ecfE",
            "__ZN14regex_automata6hybrid3dfa7Builder5build17h949444395baabcc3E",
            "__ZN4core3fmt8builders10DebugTuple6finish17hb97e2658e681c8d5E",
            "__ZN63_$LT$std..thread..scoped..Scope$u20$as$u20$core..fmt..Debug$GT$3fmt17hee7574efeecc5172E",
            "__ZN122_$LT$cel_parser..parser..__parse__Conditional..__StateMachine$u20$as$u20$lalrpop_util..state_machine..ParserDefinition$GT$15simulate_reduce17h1f78be9cb9d9033aE",
            "__ZN73_$LT$regex_syntax..hir..ClassUnicodeRange$u20$as$u20$core..fmt..Debug$GT$3fmt17h6ad12b146de6c562E",
            "__ZN72_$LT$cel_eval..models..PassableValue$u20$as$u20$core..cmp..PartialEq$GT$2eq17hb4fb20afdbc27090E",
            "__ZN5alloc7raw_vec19RawVec$LT$T$C$A$GT$8grow_one17hed301c54395a9b81E",
            "__ZN6chrono6format4scan16nanosecond_fixed17h1c5ad928c93924e3E",
            "__ZN78_$LT$cel_interpreter..ser..KeySerializer$u20$as$u20$serde..ser..Serializer$GT$14serialize_unit17hc76b05baaec57a7cE",
            "__ZN63_$LT$regex_syntax..hir..Literal$u20$as$u20$core..fmt..Debug$GT$3fmt17h42c8c466399ba4adE",
            "__ZN104_$LT$std..sys_common..net..LookupHost$u20$as$u20$core..convert..TryFrom$LT$$LP$$RF$str$C$u16$RP$$GT$$GT$8try_from17hdbcb52329096e173E",
            "__ZN5alloc5boxed7convert116_$LT$impl$u20$core..convert..From$LT$$RF$str$GT$$u20$for$u20$alloc..boxed..Box$LT$dyn$u20$core..error..Error$GT$$GT$4from17hd806b7bd758e0e3bE",
            "__ZN59_$LT$u64$u20$as$u20$cel_interpreter..magic..FromContext$GT$12from_context17h2bb9f1645048bd6bE",
            "__ZN14regex_automata4util9prefilter9Prefilter11from_choice17h3584e4eafd568dd6E",
            "__ZN122_$LT$cel_parser..parser..__parse__Conditional..__StateMachine$u20$as$u20$lalrpop_util..state_machine..ParserDefinition$GT$15token_to_symbol17hba634fbb7108b007E",
            "__ZN54_$LT$parking..Unparker$u20$as$u20$core..fmt..Debug$GT$3fmt17h5611d1affb4317a6E",
            "__ZN12regex_syntax3ast3Ast5group17h81f481016123e6ffE",
            "__ZN5alloc5boxed16Box$LT$T$C$A$GT$13new_uninit_in17hac0699f850fb74c9E",
            "__ZN61_$LT$bytes..bytes..Bytes$u20$as$u20$core..cmp..PartialOrd$GT$11partial_cmp17hb19b0d42d539abaeE",
            "__ZN5alloc7raw_vec19RawVec$LT$T$C$A$GT$8grow_one17hd4fb6b050631f542E",
            "__ZN68_$LT$bytes..bytes_mut..BytesMut$u20$as$u20$core..cmp..PartialOrd$GT$11partial_cmp17hc57a9a3a2bebf282E",
            "__ZN3std3sys4sync4once5queue4Once4call17hdeca10104bf8baa8E",
            "__ZN14regex_automata3nfa8thompson3nfa3NFA8patterns17h90fe424e12fd46afE",
            "__ZN175_$LT$cel_eval..models.._..$LT$impl$u20$serde..de..Deserialize$u20$for$u20$cel_eval..models..ExecutionContext$GT$..deserialize..__FieldVisitor$u20$as$u20$serde..de..Visitor$GT$9expecting17hc83ae757f79c3c7cE",
            "__ZN89_$LT$regex..regex..string..Captures$u20$as$u20$core..ops..index..Index$LT$$RF$str$GT$$GT$5index17hff246c749e5b62ecE",
            "__ZN14regex_automata4util5empty15skip_splits_fwd17hcae9a771413fbeeeE",
            "__ZN75_$LT$cel_interpreter..ser..Serializer$u20$as$u20$serde..ser..Serializer$GT$24serialize_struct_variant17h67dce1dc2cb5785dE",
            "__ZN78_$LT$cel_interpreter..ser..KeySerializer$u20$as$u20$serde..ser..Serializer$GT$14serialize_char17h6f6e6146bcb45820E",
            "__ZN5alloc4sync16Arc$LT$T$C$A$GT$9drop_slow17h5c9553ad0c68b74cE",
            "__ZN12aho_corasick3nfa13noncontiguous3NFA11alloc_state17hd9b825f9c0e3d594E",
            "__ZN62_$LT$core..char..ToUppercase$u20$as$u20$core..fmt..Display$GT$3fmt17h6ec3b45d9afddfdeE",
            "__ZN12regex_syntax3hir5Class20try_case_fold_simple17h935e1e2373713722E",
            "__ZN12regex_syntax5error5Spans6notate17h79dc43e35c63871bE",
            "__ZN91_$LT$std..sys..pal..unix..fs..ReadDir$u20$as$u20$core..iter..traits..iterator..Iterator$GT$4next17h59c0be166c97567cE",
            "__ZN229_$LT$$LT$cel_eval..ast.._..$LT$impl$u20$serde..de..Deserialize$u20$for$u20$cel_eval..ast..JSONExpression$GT$..deserialize..__Seed$u20$as$u20$serde..de..DeserializeSeed$GT$..deserialize..__Visitor$u20$as$u20$serde..de..Visitor$GT$9expecting17hbde4464036288a03E",
            "__ZN73_$LT$$u5b$A$u5d$$u20$as$u20$core..slice..cmp..SlicePartialEq$LT$B$GT$$GT$5equal17h022d344b3572c3f6E",
            "__ZN58_$LT$regex_syntax..ast..Span$u20$as$u20$core..cmp..Ord$GT$3cmp17h57ac31693f6d47ebE",
            "__ZN4core3fmt5float50_$LT$impl$u20$core..fmt..Debug$u20$for$u20$f32$GT$3fmt17ha350d5304f7c1407E",
            "__ZN67_$LT$bytes..bytes_mut..BytesMut$u20$as$u20$core..cmp..PartialEq$GT$2eq17h5dd35bdcea8c1979E",
            "__ZN93_$LT$aho_corasick..util..primitives..StateID$u20$as$u20$core..convert..TryFrom$LT$u32$GT$$GT$8try_from17hc0ebc7d57207f436E",
            "__ZN6chrono5naive4date9NaiveDate15from_isoywd_opt17hea858e3f013b25e6E",
            "__ZN112_$LT$object..read..pe..relocation..RelocationBlockIterator$u20$as$u20$core..iter..traits..iterator..Iterator$GT$4next17h70af8b537ea2d81dE",
            "__ZN5serde3ser3fmt85_$LT$impl$u20$serde..ser..Serializer$u20$for$u20$$RF$mut$u20$core..fmt..Formatter$GT$13serialize_i6417h26350bc859c03f25E",
            "__ZN170_$LT$cel_eval..models.._..$LT$impl$u20$serde..de..Deserialize$u20$for$u20$cel_eval..models..PassableMap$GT$..deserialize..__FieldVisitor$u20$as$u20$serde..de..Visitor$GT$9expecting17hb8b51d909ac1ab07E",
            "__ZN76_$LT$$u5b$u8$u3b$$u20$7$u5d$$u20$as$u20$nom..traits..FindToken$LT$u8$GT$$GT$10find_token17he90564ecff2e465dE",
            "__ZN3std3sys6os_str5bytes5Slice8to_owned17ha6eb10b3de645622E",
            "__ZN68_$LT$serde..de..impls..BoolVisitor$u20$as$u20$serde..de..Visitor$GT$9expecting17hc1d1daa6feadaa45E",
            "__ZN59_$LT$std..process..ChildStdin$u20$as$u20$std..io..Write$GT$14write_vectored17h3af23c43606ae00fE",
            "__ZN4core10intrinsics3mir11__debuginfo19panic_cold_explicit17h3f9c5ae568221c83E",
            "__ZN14regex_automata4meta5regex5Regex15create_captures17h9040f61e1a55359aE",
            "__ZN83_$LT$object..xcoff..AuxHeader64$u20$as$u20$object..read..xcoff..file..AuxHeader$GT$7o_bsize17hfe2f49638cfe14cbE",
            "__ZN78_$LT$$LP$$RF$str$C$u16$RP$$u20$as$u20$std..net..socket_addr..ToSocketAddrs$GT$15to_socket_addrs17h41c91362d8904842E",
            "__ZN12regex_syntax3hir12ClassUnicode9intersect17h482d0b6a7b1df913E",
            "__ZN12aho_corasick4util6buffer6Buffer11free_buffer17h195ae518e611ab62E",
            "__ZN82_$LT$regex_automata..util..primitives..NonMaxUsize$u20$as$u20$core..fmt..Debug$GT$3fmt17h3a6ea7969d3c20baE",
            "__ZN3std2io5stdio18set_output_capture17h0bf23d01f4ad99c7E",
            "__ZN5alloc7raw_vec12handle_error17h3a28aacf33a652d3E",
            "__ZN4core3fmt3num3imp55_$LT$impl$u20$core..fmt..UpperExp$u20$for$u20$isize$GT$3fmt17hfa0b3b2d54ea87a0E",
            "__ZN63_$LT$regex_syntax..hir..LookSet$u20$as$u20$core..fmt..Debug$GT$3fmt17hbae956685039c659E",
            "__ZN76_$LT$aho_corasick..util..primitives..StateID$u20$as$u20$core..fmt..Debug$GT$3fmt17hbc2ce041e6cd4062E",
            "__ZN65_$LT$gimli..constants..DwAccess$u20$as$u20$core..fmt..Display$GT$3fmt17he938879319936e11E",
            "__ZN78_$LT$cel_interpreter..ser..KeySerializer$u20$as$u20$serde..ser..Serializer$GT$22serialize_tuple_struct17h7834f86d79a60610E",
            "__ZN4core4cell22panic_already_borrowed17h6d667bdde54b1400E",
            "__ZN85_$LT$chrono..naive..datetime..NaiveDateTime$u20$as$u20$core..str..traits..FromStr$GT$8from_str17h4756802a3ba7594eE",
            "__ZN78_$LT$cel_interpreter..ser..KeySerializer$u20$as$u20$serde..ser..Serializer$GT$16serialize_struct17h5f097a185bff8f7bE",
            "__ZN69_$LT$std..sys..os_str..bytes..Slice$u20$as$u20$core..fmt..Display$GT$3fmt17hfdf972be3cb72539E",
            "__ZN83_$LT$object..xcoff..AuxHeader32$u20$as$u20$object..read..xcoff..file..AuxHeader$GT$9o_modtype17hb4638d2b3e27c617E",
            "__ZN60_$LT$std..io..stdio..StderrRaw$u20$as$u20$std..io..Write$GT$5flush17hcf27e6536a96a696E",
            "__ZN14regex_automata4util5empty15skip_splits_fwd17h2f5a9a1882ce271dE",
            "__ZN4core3fmt9Formatter9debug_map17h6c639989495cbbbaE",
            "__ZN72_$LT$gimli..read..abbrev..Attributes$u20$as$u20$core..cmp..PartialEq$GT$2eq17h053aa432a074521dE",
            "__ZN82_$LT$std..sys..sync..once..queue..WaiterQueue$u20$as$u20$core..ops..drop..Drop$GT$4drop17h2756e1331de66e08E",
            "__ZN11uniffi_core8metadata14MetadataBuffer10concat_u3217h333d3ba840a66564E",
            "__ZN143_$LT$serde..de..impls..$LT$impl$u20$serde..de..Deserialize$u20$for$u20$u16$GT$..deserialize..PrimitiveVisitor$u20$as$u20$serde..de..Visitor$GT$9expecting17h001372feea5012dcE",
            "__ZN113_$LT$regex..regexset..string..SetMatchesIter$u20$as$u20$core..iter..traits..double_ended..DoubleEndedIterator$GT$9next_back17hd6195b82fcade4ddE",
            "__ZN3std3sys3pal4unix2os8unsetenv17hce02d791664562e6E",
            "__ZN14regex_automata4meta5regex7Builder6syntax17ha42d902ca9de4401E",
            "__ZN5serde3ser3fmt85_$LT$impl$u20$serde..ser..Serializer$u20$for$u20$$RF$mut$u20$core..fmt..Formatter$GT$12serialize_i817hccc7aed01e0f67fdE",
            "__ZN3std3net3tcp9TcpStream9peer_addr17hc58df9cbb2f42d15E",
            "__ZN6memchr4arch6x86_646memchr9count_raw6detect17h107be3c7249465e9E",
            "__ZN10serde_json5error5Error13io_error_kind17h8db66a5a8df00e11E",
            "__ZN4core3fmt3num51_$LT$impl$u20$core..fmt..Octal$u20$for$u20$u128$GT$3fmt17hbb64ac7f869848f0E",
            "__ZN61_$LT$gimli..constants..DwAt$u20$as$u20$core..fmt..Display$GT$3fmt17hb675d90b6f2fd3ccE",
            "__ZN6memchr6memmem8searcher19prefilter_kind_sse217h64383c728fd61f34E",
            "__ZN3std3sys14anonymous_pipe4unix79_$LT$impl$u20$std..os..fd..raw..FromRawFd$u20$for$u20$std..pipe..PipeReader$GT$11from_raw_fd17h8ea272b6b465cfe8E",
            "__ZN77_$LT$$u5b$u8$u3b$$u20$11$u5d$$u20$as$u20$nom..traits..FindToken$LT$u8$GT$$GT$10find_token17h86b36618da4da0e4E",
            "__ZN14regex_automata3nfa8thompson8compiler8Compiler10c_at_least17h9c561892a9c68117E",
            "__ZN63_$LT$regex..regex..bytes..Match$u20$as$u20$core..fmt..Debug$GT$3fmt17h2a8b556dbd821056E",
            "__ZN94_$LT$std..time..Instant$u20$as$u20$core..ops..arith..SubAssign$LT$core..time..Duration$GT$$GT$10sub_assign17hea6da3e28badb93cE",
            "__ZN5bytes3buf9vec_deque105_$LT$impl$u20$bytes..buf..buf_impl..Buf$u20$for$u20$alloc..collections..vec_deque..VecDeque$LT$u8$GT$$GT$15chunks_vectored17h748e8987a0db9c86E",
            "__ZN82_$LT$std..sys..pal..unix..fs..cfm..CachedFileMetadata$u20$as$u20$std..io..Read$GT$4read17hcf4c8e13c36dd4bdE",
            "__ZN10serde_json5value10partial_eq90_$LT$impl$u20$core..cmp..PartialEq$LT$$RF$str$GT$$u20$for$u20$serde_json..value..Value$GT$2eq17h3fde5152fff00c56E",
            "__ZN59_$LT$std..net..tcp..TcpStream$u20$as$u20$std..io..Write$GT$14write_vectored17h6c1ad0a844c171b2E",
            "__ZN6chrono5naive4date9NaiveDate25from_num_days_from_ce_opt17h7b1f600bbfb4e35bE",
            "__ZN105_$LT$chrono..datetime..DateTime$LT$chrono..offset..utc..Utc$GT$$u20$as$u20$core..str..traits..FromStr$GT$8from_str17h801109830566cd90E",
            "__ZN14regex_automata6hybrid5regex5Cache12memory_usage17h2b26d3acdc7983d6E",
            "__ZN3std2os4unix3net6stream10UnixStream4peek17h86f3f70ffaf5a96eE",
            "__ZN77_$LT$std..sys..pal..unix..fs..File$u20$as$u20$std..os..fd..raw..FromRawFd$GT$11from_raw_fd17hd6d68e73b2a131b6E",
            "__ZN5bytes5bytes22promotable_even_to_vec17h56e0c6979dca9e68E",
            "__ZN4core3fmt3num3imp52_$LT$impl$u20$core..fmt..UpperExp$u20$for$u20$u8$GT$3fmt17hf5eb54e85d5f9b2eE",
            "__ZN91_$LT$std..sys..pal..unix..process..process_common..ExitCode$u20$as$u20$core..fmt..Debug$GT$3fmt17he4f51910e1ab6651E",
            "__ZN11uniffi_core3ffi10rustbuffer25uniffi_rustbuffer_reserve17hc6e1743fb16bcac8E",
            "__ZN60_$LT$std..fs..File$u20$as$u20$std..os..unix..fs..FileExt$GT$16read_vectored_at17hdb91b5263bfc7b03E",
            "__ZN14regex_automata3dfa7onepass7Builder5build17hda64298a59faa274E",
            "__ZN11uniffi_core8metadata13calc_checksum17h3c90812f25e0684aE",
            "__ZN12regex_syntax3hir7literal14PreferenceTrie8minimize17hfb40d8f08773b762E",
            "__ZN6chrono5naive4time9NaiveTime22overflowing_sub_offset17h501928852fa946b3E",
            "__ZN83_$LT$object..xcoff..AuxHeader32$u20$as$u20$object..read..xcoff..file..AuxHeader$GT$7o_entry17h040770cb89f29120E",
            "__ZN83_$LT$object..xcoff..CsectAux64$u20$as$u20$object..read..xcoff..symbol..CsectAux$GT$8x_scnlen17h836b0da5ff01227cE",
            "__ZN5alloc7raw_vec19RawVec$LT$T$C$A$GT$8grow_one17hbbf855315a889130E",
            "__ZN3std4path7PathBuf5_push17h6c3b0da5b0784094E",
            "__ZN83_$LT$serde_json..value..ser..MapKeySerializer$u20$as$u20$serde..ser..Serializer$GT$14serialize_none17h41101a7f83658249E",
            "__ZN9addr2line13demangle_auto17heae74b89bb534d67E",
            "__ZN14regex_automata4util6search10MatchError7gave_up17he8f01f8926467b37E",
            "__ZN4core3fmt9Formatter26debug_struct_field1_finish17hef794d4ba7ee404aE",
            "__ZN14regex_automata4meta5regex6Config9prefilter17h462b9b93ab71f398E",
            "__ZN5alloc7raw_vec19RawVec$LT$T$C$A$GT$8grow_one17h451abc1915135435E",
            "__ZN11uniffi_core24check_compatible_version17h9cf5b93922496cdeE",
            "__ZN87_$LT$core..num..nonzero..NonZero$LT$usize$GT$$u20$as$u20$core..str..traits..FromStr$GT$8from_str17h9e10e4477df5a21eE",
            "__ZN125_$LT$memchr..arch..all..packedpair..DefaultFrequencyRank$u20$as$u20$memchr..arch..all..packedpair..HeuristicFrequencyRank$GT$4rank17hd1574e8dd8996218E",
            "__ZN3std10sys_common3net9UdpSocket7connect17h82046f4ba40b22f0E",
            "__ZN85_$LT$core..num..nonzero..NonZero$LT$u32$GT$$u20$as$u20$core..str..traits..FromStr$GT$8from_str17he547ec7f021613faE",
            "__ZN107_$LT$futures_lite..io..Cursor$LT$$RF$mut$u20$$u5b$u8$u5d$$GT$$u20$as$u20$futures_io..if_std..AsyncWrite$GT$10poll_write17hd8763e139a04f20bE",
            "__ZN78_$LT$cel_interpreter..ser..KeySerializer$u20$as$u20$serde..ser..Serializer$GT$24serialize_struct_variant17hda9264cebb874a73E",
            "__ZN75_$LT$object..read..pe..export..ExportTarget$u20$as$u20$core..fmt..Debug$GT$3fmt17h8624e6914bd34d94E",
            "__ZN77_$LT$$RF$std..os..unix..net..stream..UnixStream$u20$as$u20$std..io..Write$GT$14write_vectored17h94d35e05b1ed3476E",
            "__ZN78_$LT$cel_interpreter..ser..KeySerializer$u20$as$u20$serde..ser..Serializer$GT$14serialize_none17h5f4d67846dc8e2a5E",
            "__ZN127_$LT$cel_parser..parser..__parse__ArithmeticAddSub..__StateMachine$u20$as$u20$lalrpop_util..state_machine..ParserDefinition$GT$15token_to_symbol17hd287f192e6b71a1dE",
            "__ZN6chrono10time_delta9TimeDelta6to_std17h01a6a8f775fff841E",
            "__ZN3std2os4unix3net4addr10SocketAddr10is_unnamed17h29ee2634ef7993dfE",
            "__ZN14regex_automata4util6search10MatchError3new17hd08966e267b8d1d8E",
            "__ZN61_$LT$std..io..stdio..StderrLock$u20$as$u20$std..io..Write$GT$5write17h2e26288c38b1a177E",
            "__ZN10serde_json3ser20key_must_be_a_string17h50d6a6b10bef7e5aE",
            "__ZN14regex_automata3nfa8thompson8compiler8Compiler6c_fail17hac8b28408143e7e3E",
            "__ZN83_$LT$object..xcoff..CsectAux32$u20$as$u20$object..read..xcoff..symbol..CsectAux$GT$8x_scnlen17h7d64f06d83dbe9ccE",
            "__ZN15cel_interpreter9functions10exists_one17h49c1eaef6f43039aE",
            "__ZN83_$LT$object..xcoff..AuxHeader64$u20$as$u20$object..read..xcoff..file..AuxHeader$GT$12o_data_start17h527bcaed504298a2E",
            "__ZN12regex_syntax6parser6Parser3new17h5b299db62c53e3ddE",
            "__ZN3std6thread9spawnhook15run_spawn_hooks17h060c1b07eaed9748E",
            "__ZN5bytes9bytes_mut8BytesMut6resize17hec7fd4adc4218245E",
            "__ZN78_$LT$object..macho..FatArch32$u20$as$u20$object..read..macho..fat..FatArch$GT$5align17h8250b80813c7c40fE",
            "__ZN83_$LT$object..xcoff..AuxHeader32$u20$as$u20$object..read..xcoff..file..AuxHeader$GT$10o_algntext17h7bbfa9d3b78f8203E",
            "__ZN87_$LT$regex_automata..nfa..thompson..error..BuildError$u20$as$u20$core..fmt..Display$GT$3fmt17h1df62999ddf205a8E",
            "__ZN3std3sys3pal4unix2fs4File13read_vectored17h5985f687f8d88f4bE",
            "__ZN5alloc7raw_vec19RawVec$LT$T$C$A$GT$8grow_one17hfb4b8a9ce2c0c541E",
            "__ZN5alloc11collections5btree4node119NodeRef$LT$alloc..collections..btree..node..marker..Mut$C$K$C$V$C$alloc..collections..btree..node..marker..Internal$GT$30correct_childrens_parent_links17h62b687554ad90c91E",
            "__ZN3std12backtrace_rs9symbolize5gimli7resolve17he26a787d69728926E",
            "__ZN4core5slice4sort8unstable7ipnsort17h09039ebf8051398eE",
            "__ZN85_$LT$std..sys..pal..unix..sync..mutex..AttrGuard$u20$as$u20$core..ops..drop..Drop$GT$4drop17h54021da608308414E",
            "__ZN5alloc7raw_vec19RawVec$LT$T$C$A$GT$8grow_one17hcf818f049c30bf96E",
            "__ZN4core3str21_$LT$impl$u20$str$GT$22split_at_mut_unchecked17hf6dc41fedd5aca66E",
            "__ZN11uniffi_core3ffi10rustbuffer10RustBuffer13new_with_size17hac695dce8fd0d77eE",
            "__ZN4core3num6bignum5tests6Big8x39mul_small17h68f509bcbc89ebfbE",
            "__ZN77_$LT$serde..de..impls..StringInPlaceVisitor$u20$as$u20$serde..de..Visitor$GT$9expecting17h590e2938714a5c0cE",
            "__ZN5alloc7raw_vec19RawVec$LT$T$C$A$GT$8grow_one17h898452d88ed36dfaE",
            "__ZN5alloc7raw_vec19RawVec$LT$T$C$A$GT$8grow_one17h851495a3d37023d5E",
            "__ZN6object4read2pe6export11ExportTable18address_by_ordinal17h4b09bb10a16c7c85E",
            "__ZN3std6thread6Thread4name17ha30d773324930d36E",
            "__ZN3std3net3udp9UdpSocket20set_multicast_ttl_v417h36b9fb5e3cf4b574E",
            "__ZN57_$LT$u8$u20$as$u20$regex_syntax..hir..interval..Bound$GT$9decrement17hc0c8db3a7e189ae3E",
            "__ZN5gimli4arch9PowerPc6413register_name17h0c1f3cfd65b036ceE",
            "__ZN5bytes9bytes_mut14shared_v_clone17h546f564ca1b47e0bE",
            "__ZN222_$LT$$LT$cel_eval..ast.._..$LT$impl$u20$serde..de..Deserialize$u20$for$u20$cel_eval..ast..JSONExpression$GT$..deserialize..__Visitor$u20$as$u20$serde..de..Visitor$GT$..visit_map..__Visitor$u20$as$u20$serde..de..Visitor$GT$9expecting17h4aae82f1fb3148c7E",
            "__ZN4core3fmt3num3imp52_$LT$impl$u20$core..fmt..UpperExp$u20$for$u20$i8$GT$3fmt17h467427bddf1f7ee1E",
            "__ZN10cel_parser6parser19__parse__Expression6__goto17hbcc8e1f0004091f5E",
            "__ZN8cel_eval25evaluate_ast_with_context17hf9573079a4572fddE",
            "__ZN14regex_automata3nfa8thompson6pikevm5Cache5reset17hc22255bc1998801eE",
            "__ZN59_$LT$$RF$std..io..stdio..Stdin$u20$as$u20$std..io..Read$GT$14read_buf_exact17hfae7fa734a11709eE",
            "__ZN95_$LT$std..path..Components$u20$as$u20$core..iter..traits..double_ended..DoubleEndedIterator$GT$9next_back17hc98b280e30d64a5dE",
            "__ZN68_$LT$serde..de..impls..PathVisitor$u20$as$u20$serde..de..Visitor$GT$9expecting17h1dd8c5399986fe2aE",
            "__ZN5alloc7raw_vec19RawVec$LT$T$C$A$GT$8grow_one17h4f2ff4608f5f4687E",
            "__ZN14regex_automata3nfa8thompson9backtrack18BoundedBacktracker15create_captures17h43b5b87b74595b50E",
            "__ZN69_$LT$std..sys..pal..unix..fs..ReadDir$u20$as$u20$core..fmt..Debug$GT$3fmt17hcdb0af7bcb9ba2d1E",
            "__ZN8cel_eval3ast102_$LT$impl$u20$core..convert..From$LT$cel_eval..ast..JSONAtom$GT$$u20$for$u20$cel_parser..ast..Atom$GT$4from17h135a7c47f1ed73c2E",
            "__ZN5alloc7raw_vec19RawVec$LT$T$C$A$GT$8grow_one17h76545ac47464652aE",
            "__ZN63_$LT$rustc_demangle..Demangle$u20$as$u20$core..fmt..Display$GT$3fmt17h68da1a40ea6ceea5E",
            "__ZN83_$LT$object..xcoff..AuxHeader32$u20$as$u20$object..read..xcoff..file..AuxHeader$GT$8o_sntbss17h7e432d395c22913dE",
            "__ZN5alloc11collections5btree4node117NodeRef$LT$alloc..collections..btree..node..marker..Owned$C$K$C$V$C$alloc..collections..btree..node..marker..Leaf$GT$8new_leaf17hba95198bb6d8359dE",
            "__ZN6object4read2pe8resource17ResourceDirectory4root17h96f173e8b0a61686E",
            "__ZN105_$LT$dyn$u20$core..any..Any$u2b$core..marker..Send$u2b$core..marker..Sync$u20$as$u20$core..fmt..Debug$GT$3fmt17h76cc7d48c4eec1e9E",
            "__ZN12regex_syntax3ast3Ast15class_bracketed17hba2421a024700320E",
            "__ZN70_$LT$regex_automata..dfa..onepass..DFA$u20$as$u20$core..fmt..Debug$GT$3fmt17h7347d661e7cfac30E",
            "__ZN74_$LT$cel_interpreter..objects..ValueType$u20$as$u20$core..fmt..Display$GT$3fmt17hfc6db8bbe292edc1E",
            "__ZN14regex_automata6hybrid3dfa7LazyRef7dead_id17hf4d63b20882f45c1E",
            "__ZN12regex_syntax3hir5Class7literal17hd85436cf60c4747dE",
            "__ZN82_$LT$core..char..ToUppercase$u20$as$u20$core..iter..traits..iterator..Iterator$GT$4last17h3a4934423fdb018eE",
            "__ZN3std7process7Command9env_clear17h4854256c2a2c08b6E",
            "__ZN5bytes9bytes_mut110_$LT$impl$u20$core..cmp..PartialEq$LT$bytes..bytes_mut..BytesMut$GT$$u20$for$u20$alloc..vec..Vec$LT$u8$GT$$GT$2eq17h6b8c666d110635aaE",
            "__ZN5alloc7raw_vec19RawVec$LT$T$C$A$GT$8grow_one17h578de165297ae760E",
            "__ZN98_$LT$alloc..string..String$u20$as$u20$core..convert..From$LT$alloc..borrow..Cow$LT$str$GT$$GT$$GT$4from17h04bd74eba8f232d8E",
            "__ZN6chrono5naive4time9NaiveTime22overflowing_add_signed17h6d21d7f47fe4e913E",
            "__ZN69_$LT$regex_syntax..utf8..Utf8Sequence$u20$as$u20$core..fmt..Debug$GT$3fmt17h6116a0d827f9f045E",
            "__ZN3std3sys3pal4unix2fs7readdir17h836209c51e28834eE",
            "__ZN4core3fmt3num51_$LT$impl$u20$core..fmt..Octal$u20$for$u20$i128$GT$3fmt17hfe838c9578fc70eaE",
            "__ZN167_$LT$cel_eval..ast.._..$LT$impl$u20$serde..de..Deserialize$u20$for$u20$cel_eval..ast..JSONExpression$GT$..deserialize..__FieldVisitor$u20$as$u20$serde..de..Visitor$GT$9expecting17haed6ed091a1f611fE",
            "__ZN5bytes9bytes_mut93_$LT$impl$u20$core..cmp..PartialOrd$LT$bytes..bytes_mut..BytesMut$GT$$u20$for$u20$$RF$str$GT$11partial_cmp17hd8442e0c1245b375E",
            "__ZN5regex8regexset5bytes8RegexSet5empty17h0dba11f7c45fba03E",
            "__ZN5alloc7raw_vec19RawVec$LT$T$C$A$GT$8grow_one17h6fdf28ffb57c65bfE",
            "__ZN83_$LT$cel_parser..ast..Expression$u20$as$u20$cel_interpreter..magic..FromContext$GT$12from_context17hf08a39059dc1dd18E",
            "__ZN84_$LT$core..num..nonzero..NonZero$LT$u8$GT$$u20$as$u20$core..str..traits..FromStr$GT$8from_str17hcaf9ca93c0a2ee46E",
            "__ZN73_$LT$std..sys..pal..unix..os..EnvStrDebug$u20$as$u20$core..fmt..Debug$GT$3fmt17hc0410030e0a7c70fE",
            "__ZN82_$LT$serde_json..value..de..SeqRefDeserializer$u20$as$u20$serde..de..SeqAccess$GT$9size_hint17h6cfac4697c4ddca2E",
            "__ZN5bytes5bytes21promotable_odd_to_vec17h34f8aa11a980b96fE",
            "__ZN14regex_automata6hybrid3dfa7Builder9configure17heb27dc3510133974E",
            "__ZN83_$LT$object..xcoff..AuxHeader64$u20$as$u20$object..read..xcoff..file..AuxHeader$GT$8o_vstamp17h6847f72d3f0a5925E",
            "__ZN5alloc7raw_vec19RawVec$LT$T$C$A$GT$8grow_one17heae7845a2c7299c2E",
            "__ZN12regex_syntax3ast14ClassAsciiKind9from_name17h8eee3096bed31077E",
            "__ZN164_$LT$cel_eval..ast.._..$LT$impl$u20$serde..de..Deserialize$u20$for$u20$cel_eval..ast..JSONArithmeticOp$GT$..deserialize..__Visitor$u20$as$u20$serde..de..Visitor$GT$9expecting17h4be88afcefc6d662E",
            "__ZN14regex_automata3nfa8thompson9backtrack20min_visited_capacity17hc1586bcfbd2c9105E",
            "__ZN5alloc7raw_vec19RawVec$LT$T$C$A$GT$8grow_one17h53e779bfbc0ca6bbE",
            "__ZN5alloc6string13FromUtf8Error8as_bytes17hda16159de64ae5c4E",
            "__ZN5serde3ser3fmt85_$LT$impl$u20$serde..ser..Serializer$u20$for$u20$$RF$mut$u20$core..fmt..Formatter$GT$14serialize_i12817ha049a5194cecaec0E",
            "__ZN5alloc6string6String18from_utf16be_lossy17h1160810847c5b4a3E",
            "__ZN67_$LT$core..char..TryFromCharError$u20$as$u20$core..fmt..Display$GT$3fmt17h80e786e072ca223bE",
            "__ZN76_$LT$$u5b$u8$u3b$$u20$4$u5d$$u20$as$u20$nom..traits..FindToken$LT$u8$GT$$GT$10find_token17haa591e56af9d6877E",
            "__ZN3std2fs81_$LT$impl$u20$std..io..Read$u20$for$u20$alloc..sync..Arc$LT$std..fs..File$GT$$GT$11read_to_end17h708821d93d8a82adE",
            "__ZN4core3num6bignum5tests6Big8x310bit_length17h0cdd576e727c019fE",
            "__ZN94_$LT$object..xcoff..SectionHeader64$u20$as$u20$object..read..xcoff..section..SectionHeader$GT$8s_relptr17h5cb8d40add8d10daE",
            "__ZN15cel_interpreter7Program7compile17h9a7a853590b17e94E",
            "__ZN5alloc7raw_vec11finish_grow17he46ced090bb1915aE",
            "__ZN85_$LT$regex_automata..util..wire..LE$u20$as$u20$regex_automata..util..wire..Endian$GT$9write_u1617h17dc9e1e3ca637b9E",
            "__ZN97_$LT$regex_syntax..hir..translate..TranslatorI$u20$as$u20$regex_syntax..ast..visitor..Visitor$GT$28visit_class_set_binary_op_in17ha2e4a03b4fa2147fE",
            "__ZN62_$LT$gimli..constants..DwInl$u20$as$u20$core..fmt..Display$GT$3fmt17h0451cb8a0a669a48E",
            "__ZN5alloc11collections5btree6search91_$LT$impl$u20$alloc..collections..btree..node..NodeRef$LT$BorrowType$C$K$C$V$C$Type$GT$$GT$14find_key_index17h31a6c687caa7d61bE",
            "__ZN60_$LT$std..fs..File$u20$as$u20$std..os..unix..fs..FileExt$GT$7read_at17h711e66d83172bea9E",
            "__ZN14regex_automata3nfa8thompson8compiler8Compiler6syntax17h78f0bd3cd7db226aE",
            "__ZN60_$LT$core..str..lossy..Debug$u20$as$u20$core..fmt..Debug$GT$3fmt17h7911e33c622563bbE",
            "__ZN63_$LT$$RF$std..process..ChildStdin$u20$as$u20$std..io..Write$GT$14write_vectored17h9bc9b6ec82b9aaf0E",
            "__ZN9hashbrown3raw21RawTable$LT$T$C$A$GT$14reserve_rehash17hfef1a49d72c15ecfE",
            "__ZN83_$LT$serde_json..value..ser..MapKeySerializer$u20$as$u20$serde..ser..Serializer$GT$14serialize_unit17h609345563c0e43f5E",
            "__ZN4core3fmt8builders9DebugList21finish_non_exhaustive17hbff98c9065f3cd85E",
            "__ZN3std2os4unix3net6stream10UnixStream9peer_addr17hf56abcaaa2729fffE",
            "__ZN61_$LT$gimli..constants..DwUt$u20$as$u20$core..fmt..Display$GT$3fmt17heebbc9272e29cb61E",
            "__ZN4core3fmt3num53_$LT$impl$u20$core..fmt..UpperHex$u20$for$u20$u64$GT$3fmt17ha773364ebe41508aE",
            "__ZN5alloc7raw_vec19RawVec$LT$T$C$A$GT$8grow_one17h2dd41ef4051b6294E",
            "__ZN5alloc4sync16Arc$LT$T$C$A$GT$9drop_slow17h5fc10c8075cad7e2E",
            "__ZN5alloc4sync16Arc$LT$T$C$A$GT$9drop_slow17h015abab81df3dbe5E",
            "__ZN5bytes9bytes_mut106_$LT$impl$u20$core..cmp..PartialEq$LT$bytes..bytes_mut..BytesMut$GT$$u20$for$u20$alloc..string..String$GT$2eq17h0af65f96f106eaeeE",
            "__ZN10cel_parser6parser19__parse__Expression8__action17h009da8f31b85ddb6E",
            "__ZN73_$LT$$u5b$A$u5d$$u20$as$u20$core..slice..cmp..SlicePartialEq$LT$B$GT$$GT$5equal17h68a8f020693bc512E",
            "__ZN96_$LT$std..panicking..rust_panic_without_hook..RewrapBox$u20$as$u20$core..panic..PanicPayload$GT$8take_box17hadb179d3532fde8dE",
            "__ZN5alloc11collections5btree4node121NodeRef$LT$alloc..collections..btree..node..marker..Owned$C$K$C$V$C$alloc..collections..btree..node..marker..Internal$GT$17from_new_internal17h1eef74c5d3407851E",
            "__ZN112_$LT$$LT$regex..regex..bytes..Captures$u20$as$u20$core..fmt..Debug$GT$..fmt..Key$u20$as$u20$core..fmt..Debug$GT$3fmt17hd4fad10db0de81f5E",
            "__ZN57_$LT$bytes..bytes..Vtable$u20$as$u20$core..fmt..Debug$GT$3fmt17hdf86e775f8321278E",
            "__ZN10serde_json5error5Error2io17h74e35185a6a2e6e3E",
            "__ZN12regex_syntax3hir7visitor11HeapVisitor3pop17h90c8fdc371fd7b37E",
            "__ZN14regex_automata4util5empty15skip_splits_rev17h8e2c88c7621946ddE",
            "__ZN93_$LT$aho_corasick..util..primitives..StateID$u20$as$u20$core..convert..TryFrom$LT$u16$GT$$GT$8try_from17he5dbb26d8814d202E",
            "__ZN6memchr4arch3all6twoway6Suffix7reverse17h9042699984ae1716E",
            "__ZN15cel_interpreter9functions6filter17h297306cfd79f5f84E",
            "__ZN95_$LT$aho_corasick..util..primitives..StateID$u20$as$u20$core..convert..TryFrom$LT$usize$GT$$GT$8try_from17hab18ec8507643cefE",
            "__ZN127_$LT$std..sys..pal..unix..process..process_common..CommandArgs$u20$as$u20$core..iter..traits..exact_size..ExactSizeIterator$GT$3len17h40ef90b7caae4824E",
            "__ZN47_$LT$std..fs..File$u20$as$u20$std..io..Read$GT$4read17hdd1525b8f4ebd439E",
            "__ZN12regex_syntax3hir10ClassBytes8is_ascii17h4ebf1b3c2fe91bfbE",
            "__ZN122_$LT$regex_automata..util..prefilter..aho_corasick..AhoCorasick$u20$as$u20$regex_automata..util..prefilter..PrefilterI$GT$4find17h50e67ca8cd2b229cE",
            "__ZN4core9panicking11panic_const35panic_const_coroutine_resumed_panic17hb8606c1465d66a1fE",
            "__ZN5alloc3ffi5c_str19FromVecWithNulError8as_bytes17he177e6d558b1d517E",
            "__ZN6memchr4arch6x86_646memchr12memrchr2_raw6detect17had8ff3118c7df24bE",
            "__ZN83_$LT$object..xcoff..AuxHeader64$u20$as$u20$object..read..xcoff..file..AuxHeader$GT$9o_maxdata17ha6b856644426b500E",
            "__ZN10cel_parser6parser18__parse__LogicalOr15LogicalOrParser3new17h0dcdeaf13939fa7fE",
            "__ZN67_$LT$alloc..string..FromUtf8Error$u20$as$u20$core..fmt..Display$GT$3fmt17hb5d18231ea4f2040E",
            "__ZN5alloc3ffi5c_str40_$LT$impl$u20$core..ffi..c_str..CStr$GT$13into_c_string17h51b5083d13716093E",
            "__ZN6chrono6offset5fixed11FixedOffset4west17h7279aa388222efb2E",
            "__ZN10cel_parser6parser19__parse__Expression16ExpressionParser5parse17h29768dbbb162cdf8E",
            "__ZN106_$LT$regex_automata..meta..strategy..ReverseSuffix$u20$as$u20$regex_automata..meta..strategy..Strategy$GT$12memory_usage17h8a253282365acb4fE",
            "__ZN6memchr4arch3all6twoway18ApproximateByteSet3new17h55baeab6c281fb75E",
            "__ZN81_$LT$regex_automata..hybrid..regex..Builder$u20$as$u20$core..default..Default$GT$7default17h32a47b02e1adddf8E",
            "__ZN112_$LT$regex..regexset..bytes..SetMatchesIter$u20$as$u20$core..iter..traits..double_ended..DoubleEndedIterator$GT$9next_back17h07113be604b45d68E",
            "__ZN14regex_automata4meta8wrappers12OnePassCache5reset17haabfdf7f2248c10fE",
            "__ZN4core9panicking36panic_misaligned_pointer_dereference17h9c2ab22cc543b241E",
            "__ZN77_$LT$$u5b$u8$u3b$$u20$30$u5d$$u20$as$u20$nom..traits..FindToken$LT$u8$GT$$GT$10find_token17h83e2670db62be8bdE",
            "__ZN89_$LT$cel_interpreter..magic..Arguments$u20$as$u20$cel_interpreter..magic..FromContext$GT$12from_context17h09c0cdfd57b70a8cE",
            "__ZN4core3fmt3num51_$LT$impl$u20$core..fmt..Binary$u20$for$u20$u32$GT$3fmt17h8cce363fbb40a9ebE",
            "__ZN76_$LT$$u5b$u8$u3b$$u20$9$u5d$$u20$as$u20$nom..traits..FindToken$LT$u8$GT$$GT$10find_token17hc053b28954db3cd8E",
            "__ZN6anyhow3fmt42_$LT$impl$u20$anyhow..error..ErrorImpl$GT$5debug17h3842a63ea30c95f2E",
            "__ZN70_$LT$serde_json..read..SliceRead$u20$as$u20$serde_json..read..Read$GT$13peek_position17hccf0365f60281cfeE",
            "__ZN4core5slice4sort6stable9quicksort9quicksort17h30b154650cb9dfc1E",
            "__ZN73_$LT$$RF$$u5b$u8$u5d$$u20$as$u20$nom..traits..FindToken$LT$$RF$u8$GT$$GT$10find_token17h36895d9917fdc48eE",
            "__ZN4core9panicking11panic_const24panic_const_shl_overflow17hef208420f1560f7bE",
            "__ZN94_$LT$std..sys..pal..unix..process..process_inner..ExitStatus$u20$as$u20$core..fmt..Display$GT$3fmt17h68d2496c210133a5E",
            "__ZN6object4read3elf10attributes15AttributeReader8read_tag17h5982d8b35c4dc468E",
            "__ZN3std4path4Path11is_absolute17h15dfc46523d3441dE",
            "__ZN3std3sys3pal4unix2fs6fchown17he63fc1d56ad1315aE",
            "__ZN41_$LT$char$u20$as$u20$core..fmt..Debug$GT$3fmt17h47de13af59f0aaa1E",
            "__ZN4core10intrinsics3mir21__internal_make_place19panic_cold_explicit17h867df673cc5f039fE",
            "__ZN5alloc5alloc18handle_alloc_error17h81dc3fd95d665600E",
            "__ZN3std2io5error5Error4_new17hd6d91f38a8f164f1E",
            "__ZN4core5slice29_$LT$impl$u20$$u5b$T$u5d$$GT$11starts_with17h914874b44f7663d7E",
            "__ZN55_$LT$std..io..stdio..Stdin$u20$as$u20$std..io..Read$GT$14read_to_string17hd7addabc867d63cbE",
            "__ZN62_$LT$$RF$std..net..tcp..TcpStream$u20$as$u20$std..io..Read$GT$4read17h5d12e254ccc5e632E",
            "__ZN59_$LT$std..process..ChildStdout$u20$as$u20$std..io..Read$GT$11read_to_end17h436b34dacf5e3103E",
            "__ZN48_$LT$$u5b$T$u5d$$u20$as$u20$core..fmt..Debug$GT$3fmt17h50edce42b78c2b77E",
            "__ZN3std2io5stdio5Stdin9read_line17h943eb43b81924749E",
            "__ZN59_$LT$$RF$std..pipe..PipeReader$u20$as$u20$std..io..Read$GT$4read17h9af6a7716574d336E",
            "__ZN58_$LT$$RF$str$u20$as$u20$regex..regex..string..Replacer$GT$14replace_append17h606ee1e9fc395bf0E",
            "__ZN84_$LT$regex_automata..util..determinize..state..State$u20$as$u20$core..fmt..Debug$GT$3fmt17h7e4eccd8b663c665E",
            "__ZN66_$LT$alloc..ffi..c_str..NulError$u20$as$u20$core..fmt..Display$GT$3fmt17h18dbd3f0ef2083f7E",
            "__ZN70_$LT$serde_json..read..SliceRead$u20$as$u20$serde_json..read..Read$GT$10ignore_str17hbbf718ce23b5a638E",
            "__ZN3std6thread11sleep_until17h54c0bcd414c51f9cE",
            "__ZN5alloc7raw_vec19RawVec$LT$T$C$A$GT$8grow_one17h7429bc4a39f90cd6E",
            "__ZN10serde_json5value5Value7pointer17hee68719df07f84c4E",
            "__ZN104_$LT$std..io..error..Error$u20$as$u20$core..convert..From$LT$alloc..collections..TryReserveError$GT$$GT$4from17hceb1c69962190a15E",
            "__ZN78_$LT$regex_automata..nfa..thompson..nfa..Inner$u20$as$u20$core..fmt..Debug$GT$3fmt17h31364ba1ea39c4bcE",
            "__ZN76_$LT$$u5b$u8$u3b$$u20$5$u5d$$u20$as$u20$nom..traits..FindToken$LT$u8$GT$$GT$10find_token17h247b9f86d2a85ba5E",
            "__ZN61_$LT$bytes..bytes_mut..BytesMut$u20$as$u20$core..cmp..Ord$GT$3cmp17h8ad6a14b4d515c4eE",
            "__ZN3std3net3udp9UdpSocket10local_addr17h0d8530076a30c5b2E",
            "__ZN4core3fmt3num3imp55_$LT$impl$u20$core..fmt..LowerExp$u20$for$u20$usize$GT$3fmt17h01dcab929402cfe6E",
            "__ZN63_$LT$std..net..tcp..TcpListener$u20$as$u20$core..fmt..Debug$GT$3fmt17h1da9a68fb79c4b4fE",
            "__ZN82_$LT$regex_automata..meta..error..RetryFailError$u20$as$u20$core..fmt..Display$GT$3fmt17h99c92b18ff387a61E",
            "__ZN143_$LT$serde..de..impls..$LT$impl$u20$serde..de..Deserialize$u20$for$u20$f64$GT$..deserialize..PrimitiveVisitor$u20$as$u20$serde..de..Visitor$GT$9expecting17h17935775d20f635eE",
            "__ZN78_$LT$object..macho..FatArch32$u20$as$u20$object..read..macho..fat..FatArch$GT$4size17ha07e0ca08a79dcf8E",
            "__ZN4core3fmt3num3imp54_$LT$impl$u20$core..fmt..Display$u20$for$u20$usize$GT$3fmt17h9025b9a48c03bb86E",
            "__ZN144_$LT$serde..de..impls..$LT$impl$u20$serde..de..Deserialize$u20$for$u20$i128$GT$..deserialize..PrimitiveVisitor$u20$as$u20$serde..de..Visitor$GT$9expecting17h20066cf3b49e22c6E",
            "__ZN5alloc4sync16Arc$LT$T$C$A$GT$9drop_slow17h3526a314ef4134b6E",
            "__ZN10serde_json5value5Value11pointer_mut17h2915e275497fcee3E",
            "__ZN5alloc4sync16Arc$LT$T$C$A$GT$9drop_slow17h730b92e900b682b3E",
            "__ZN64_$LT$core..num..bignum..Big32x40$u20$as$u20$core..fmt..Debug$GT$3fmt17hc979971ff449a445E",
            "__ZN60_$LT$alloc..string..String$u20$as$u20$core..clone..Clone$GT$5clone17ha3e42642c83dd0e0E",
            "__ZN73_$LT$core..panic..panic_info..PanicInfo$u20$as$u20$core..fmt..Display$GT$3fmt17he2f7e0ff90bb53cbE",
            "__ZN97_$LT$cel_interpreter..resolvers..AllArguments$u20$as$u20$cel_interpreter..resolvers..Resolver$GT$7resolve17h92bc16f761ee4e54E",
            "__ZN3std7process5Child4kill17h1719841ec2e3bd5cE",
            "__ZN87_$LT$std..backtrace_rs..backtrace..libunwind..Bomb$u20$as$u20$core..ops..drop..Drop$GT$4drop17h2f8d6caa1b0fbc1eE",
            "__ZN4core3num6bignum8Big32x407get_bit17h106e3e955565ebdeE",
            "__ZN14regex_automata6hybrid3dfa34skip_empty_utf8_splits_overlapping17hd3e27ad41aa5ea37E",
            "__ZN9hashbrown3raw11Fallibility17capacity_overflow17h79b2925d045c356eE",
            "__ZN3std3sys3pal4unix2fs4stat17h6563ad4c9005818fE",
            "__ZN4core5slice5index24slice_end_index_len_fail17h9d6149bda2fa12d9E",
            "__ZN3std3ffi6os_str5OsStr18to_ascii_lowercase17h1157013af92d5cc1E",
            "__ZN72_$LT$core..time..TryFromFloatSecsError$u20$as$u20$core..fmt..Display$GT$3fmt17h348ef578440ff555E",
            "__ZN97_$LT$regex_automata..meta..strategy..Core$u20$as$u20$regex_automata..meta..strategy..Strategy$GT$14is_accelerated17had201bb0aa6b7a13E",
            "__ZN5alloc7raw_vec19RawVec$LT$T$C$A$GT$8grow_one17ha58cb149142ff491E",
            "__ZN5gimli4read5value5Value3and17h5484d129b2ce7140E",
            "__ZN111_$LT$aho_corasick..util..alphabet..ByteClassElementRanges$u20$as$u20$core..iter..traits..iterator..Iterator$GT$4next17h8f68e48ec22e98feE",
            "__ZN63_$LT$std..process..ExitStatus$u20$as$u20$core..fmt..Display$GT$3fmt17h438bdbb42afd2023E",
            "__ZN57_$LT$usize$u20$as$u20$serde_json..value..index..Index$GT$15index_or_insert17h364ad59c595a147eE",
            "__ZN90_$LT$std..sys..pal..unix..process..process_common..Command$u20$as$u20$core..fmt..Debug$GT$3fmt17h1a3136f754631f8dE",
            "__ZN5regex8builders6string12RegexBuilder10size_limit17h7c2a41e32594e336E",
            "__ZN61_$LT$$RF$std..io..stdio..Stdout$u20$as$u20$std..io..Write$GT$18write_all_vectored17hdde1a7921ea428e3E",
            "__ZN10cel_parser6parser25__parse__ArithmeticAddSub22ArithmeticAddSubParser5parse17h3b3c86cea6054c47E",
            "__ZN3std2fs8Metadata7created17h047c21ca2b53f297E",
            "__ZN12aho_corasick4util6buffer6Buffer4roll17h277f98a21df19a13E",
            "__ZN5alloc7raw_vec19RawVec$LT$T$C$A$GT$8grow_one17h7c7075cc0d52d92dE",
            "__ZN92_$LT$$RF$alloc..borrow..Cow$LT$$u5b$u8$u5d$$GT$$u20$as$u20$regex..regex..bytes..Replacer$GT$14replace_append17h834be6865a58fabcE",
            "__ZN4core4cell30panic_already_mutably_borrowed17hb87221b8f9b22713E",
            "__ZN3std4sync7barrier7Barrier4wait17hc8525eef40cbf1b3E",
            "__ZN86_$LT$regex_automata..util..alphabet..ByteClasses$u20$as$u20$core..default..Default$GT$7default17hcb5e89ac5a9b2f89E",
            "__ZN106_$LT$$LT$std..path..Iter$u20$as$u20$core..fmt..Debug$GT$..fmt..DebugHelper$u20$as$u20$core..fmt..Debug$GT$3fmt17hde14d2850c320378E",
            "__ZN6chrono6format8strftime13StrftimeItems14parse_to_owned17h8b937f8aa38e858aE",
            "__ZN3std6thread12park_timeout17h215b5f6fb70158ceE",
            "__ZN169_$LT$cel_eval..ast.._..$LT$impl$u20$serde..de..Deserialize$u20$for$u20$cel_eval..ast..JSONArithmeticOp$GT$..deserialize..__FieldVisitor$u20$as$u20$serde..de..Visitor$GT$9expecting17h7ed5b9f0defd5e77E",
            "__ZN3std2os4unix3net8listener12UnixListener10take_error17h4a0a0ed222a9f01fE",
            "__ZN99_$LT$regex..regex..string..Regex$u20$as$u20$core..convert..TryFrom$LT$alloc..string..String$GT$$GT$8try_from17h8e0628658f5ae700E",
            "__ZN6memchr4arch6x86_646memchr10memchr_raw6detect17h16e42b9f3dc196e4E",
            "__ZN69_$LT$regex_syntax..ast..ClassSet$u20$as$u20$core..ops..drop..Drop$GT$4drop17hf614a22007043fa3E",
            "__ZN6memchr6memmem8searcher19prefilter_kind_avx217hd547bb3593b3d221E",
            "__ZN72_$LT$core..io..borrowed_buf..BorrowedBuf$u20$as$u20$core..fmt..Debug$GT$3fmt17h154de85c3834dbf3E",
            "__ZN3std3sys3pal4unix4sync5mutex5Mutex4lock17h4451b1e9aca93f95E",
            "__ZN83_$LT$chrono..time_delta..TimeDelta$u20$as$u20$cel_interpreter..magic..FromValue$GT$10from_value17h62d3b775d1eb6abbE",
            "__ZN51_$LT$$RF$std..fs..File$u20$as$u20$std..io..Read$GT$14read_to_string17hc496bb1a90d88a8bE",
            "__ZN10cel_parser6parser18__parse__LogicalOr8__action17h2a6562be67c732bcE",
            "__ZN64_$LT$regex_syntax..ast..Ast$u20$as$u20$core..ops..drop..Drop$GT$4drop17h714bc3bf3da1d52bE",
            "__ZN68_$LT$serde..de..impls..UnitVisitor$u20$as$u20$serde..de..Visitor$GT$9expecting17h0248d499b65590f4E",
            "__ZN3std9panicking11begin_panic17hfc28c2c122db0665E",
            "__ZN107_$LT$aho_corasick..util..prefilter..RareBytesThree$u20$as$u20$aho_corasick..util..prefilter..PrefilterI$GT$7find_in17hbd54c7653652e17dE",
            "__ZN176_$LT$serde..de..impls..$LT$impl$u20$serde..de..Deserialize$u20$for$u20$core..num..nonzero..NonZero$LT$u16$GT$$GT$..deserialize..NonZeroVisitor$u20$as$u20$serde..de..Visitor$GT$9expecting17ha215f7bf210a71c5E",
            "__ZN6chrono5naive8datetime13NaiveDateTime18checked_sub_offset17h3ac145fb9f0846f6E",
            "__ZN97_$LT$std..sys..pal..unix..process..process_inner..ExitStatusError$u20$as$u20$core..fmt..Debug$GT$3fmt17h8e493d1de5106320E",
            "__ZN121_$LT$cel_parser..parser..__parse__FieldInits..__StateMachine$u20$as$u20$lalrpop_util..state_machine..ParserDefinition$GT$6reduce17hd95a9073fc5176d0E",
            "__ZN83_$LT$object..xcoff..AuxHeader32$u20$as$u20$object..read..xcoff..file..AuxHeader$GT$10o_debugger17h9dcfe0e5e80edfbcE",
            "__ZN3std2io5error5Error3new17h4dac6695080849a6E",
            "__ZN3std3net3udp9UdpSocket17join_multicast_v617h546ad0c86b649a66E",
            "__ZN6chrono5naive4date9NaiveDate21from_weekday_of_month17heaca657fdecd202fE",
            "__ZN5gimli4arch7AArch6416name_to_register17h390d31cc6934d6b1E",
            "__ZN11uniffi_core8metadata14MetadataBuffer11concat_bool17h1dfab5e077d7b67cE",
            "__ZN3std9panicking11panic_count8decrease17h6e2315d72683fe8aE",
            "__ZN78_$LT$object..macho..FatArch64$u20$as$u20$object..read..macho..fat..FatArch$GT$4size17h83d51dc4659a559aE",
            "__ZN11uniffi_core3ffi10rustbuffer10RustBuffer8capacity17h5e54858fb0e2f658E",
            "__ZN6chrono10time_delta9TimeDelta11checked_mul17h907f32e77d727407E",
            "__ZN42_$LT$$RF$T$u20$as$u20$core..fmt..Debug$GT$3fmt17h68a75b72f2f72870E",
            "__ZN67_$LT$core..net..ip_addr..Ipv4Addr$u20$as$u20$core..fmt..Display$GT$3fmt17h6bab660f053472c5E",
            "__ZN72_$LT$alloc..string..String$u20$as$u20$regex..regex..string..Replacer$GT$14replace_append17hb63b6cc754ff6b24E",
            "__ZN4core4cell4lazy14panic_poisoned17h1e318d346cc0f88cE",
            "__ZN3std10sys_common3net9TcpStream7connect17h027db5e830594dd5E",
            "__ZN12regex_syntax3ast5parse6Parser3new17h960bb9b308bd32a2E",
            "__ZN3std3sys4sync6rwlock5queue6RwLock14lock_contended17h028c363a2c3380b6E",
            "__ZN95_$LT$regex_automata..util..primitives..StateID$u20$as$u20$core..convert..TryFrom$LT$u32$GT$$GT$8try_from17hcebf8cb3b708c136E",
            "__ZN97_$LT$alloc..string..String$u20$as$u20$core..convert..From$LT$alloc..boxed..Box$LT$str$GT$$GT$$GT$4from17h2585e7c988b3e436E",
            "__ZN6object4read2pe6export11ExportTable5parse17ha1068f7133e4f6e1E",
            "__ZN3std2io5stdio7_eprint17he8d34e32a12b43b2E",
            "__ZN67_$LT$chrono..round..RoundingError$u20$as$u20$core..fmt..Display$GT$3fmt17h3b71dcb1a0767144E",
            "__ZN5alloc11collections5btree4node180Handle$LT$alloc..collections..btree..node..NodeRef$LT$BorrowType$C$K$C$V$C$alloc..collections..btree..node..marker..Internal$GT$$C$alloc..collections..btree..node..marker..Edge$GT$7descend17h23ec3560dc725d8aE",
            "__ZN5alloc3ffi5c_str7CString16into_boxed_c_str17hc720f697cedd3242E",
            "__ZN74_$LT$core..num..bignum..tests..Big8x3$u20$as$u20$core..cmp..PartialOrd$GT$11partial_cmp17hcd2e4c6bc907babcE",
            "__ZN61_$LT$serde_json..error..Error$u20$as$u20$core..fmt..Debug$GT$3fmt17hfa7dc0f3b24c0dc1E",
            "__ZN62_$LT$std..io..stdio..StdinLock$u20$as$u20$std..io..BufRead$GT$8fill_buf17h92d007a47a8b5537E",
            "__ZN64_$LT$core..char..EscapeUnicode$u20$as$u20$core..fmt..Display$GT$3fmt17h643d2f8c835c0a4aE",
            "__ZN57_$LT$std..io..stdio..Stdout$u20$as$u20$std..io..Write$GT$14write_vectored17hc3ba8b8108142620E",
            "__ZN3std3sys3pal4unix7process14process_common7Command9set_arg_017hd792a629e00d12eaE",
            "__ZN14regex_automata6hybrid6search20find_overlapping_fwd17h66cb8eb96a5b6e82E",
            "__ZN5alloc4sync16Arc$LT$T$C$A$GT$9drop_slow17h4e7f816d9c8aa7faE",
            "__ZN3std7process5Child16wait_with_output17hdf2d0a69de2f8a31E",
            "__ZN14regex_automata4util6search10PatternSet3new17h2fc88b68ca6c4441E",
            "__ZN3nom8internal50Err$LT$$LP$$RF$str$C$nom..error..ErrorKind$RP$$GT$8to_owned17hce2deedb582edb7dE",
            "__ZN3std3net3tcp9TcpStream17set_write_timeout17h1c093ff85139a325E",
            "__ZN73_$LT$chrono..naive..date..NaiveDate$u20$as$u20$core..default..Default$GT$7default17h1ce778223387a510E",
            "__ZN5bytes5bytes95_$LT$impl$u20$core..cmp..PartialOrd$LT$bytes..bytes..Bytes$GT$$u20$for$u20$$RF$$u5b$u8$u5d$$GT$11partial_cmp17hbb0054c9ba85d866E",
            "__ZN76_$LT$$RF$std..os..unix..net..stream..UnixStream$u20$as$u20$std..io..Read$GT$4read17h9cf80f247f504654E",
            "__ZN81_$LT$cel_interpreter..ser..SerializeVec$u20$as$u20$serde..ser..SerializeTuple$GT$3end17h8bf44f1502882ee2E",
            "__ZN6chrono5naive4date11yo_to_cycle17hd43bc37ec058d376E",
            "__ZN5alloc7raw_vec19RawVec$LT$T$C$A$GT$8grow_one17hf73f7182565badefE",
            "__ZN90_$LT$serde..__private..de..borrow_cow_str..CowStrVisitor$u20$as$u20$serde..de..Visitor$GT$9expecting17h5c804de61578c6dbE",
            "__ZN3std3net3udp9UdpSocket16set_read_timeout17h9355e28424677a50E",
            "__ZN3std2io8buffered9bufwriter18BufWriter$LT$W$GT$10write_cold17h42bea053e2fb83a7E",
            "__ZN80_$LT$regex_automata..util..primitives..PatternID$u20$as$u20$core..fmt..Debug$GT$3fmt17h40de06642f68902dE",
            "__ZN6anyhow5error9ErrorImpl5error17hbf1f9febc835e02bE",
            "__ZN3std2fs5write5inner17h1b573a9749b40974E",
            "__ZN78_$LT$regex_syntax..unicode..UnicodeWordError$u20$as$u20$core..fmt..Display$GT$3fmt17he803f446346f319bE",
            "__ZN5alloc11collections5btree6search142_$LT$impl$u20$alloc..collections..btree..node..NodeRef$LT$BorrowType$C$K$C$V$C$alloc..collections..btree..node..marker..LeafOrInternal$GT$$GT$11search_tree17h57a34a8502fa0a08E",
            "__ZN4core6result13unwrap_failed17hb4201d66af8866adE",
            "__ZN73_$LT$alloc..string..String$u20$as$u20$serde_json..value..index..Index$GT$15index_or_insert17hc54ef4511f2d34eeE",
            "__ZN117_$LT$regex..regexset..string..SetMatchesIntoIter$u20$as$u20$core..iter..traits..double_ended..DoubleEndedIterator$GT$9next_back17h02a1b045553232ceE",
            "__ZN81_$LT$$u5b$u8$u3b$$u20$24$u5d$$u20$as$u20$nom..traits..FindToken$LT$$RF$u8$GT$$GT$10find_token17h4b86ca2cb628f6baE",
            "__ZN3std3sys3pal4unix2fs5chown17h8477cc4561d685afE",
            "__ZN66_$LT$regex..regex..string..Regex$u20$as$u20$core..fmt..Display$GT$3fmt17h20fe48f940dabd0cE",
            "__ZN3std6thread5sleep17h46b13d53bd5879adE",
            "__ZN4core3net6parser85_$LT$impl$u20$core..str..traits..FromStr$u20$for$u20$core..net..ip_addr..Ipv4Addr$GT$8from_str17hdf10cbfe7b53307cE",
            "__ZN6chrono5naive8datetime13NaiveDateTime19parse_and_remainder17h4ae94f13a2707e01E",
            "__ZN3std6thread7current11set_current17hc3b922be7678b535E",
            "__ZN11uniffi_core3ffi10rustbuffer10RustBuffer7destroy17h2a73dca7b6e94612E",
            "__ZN4core3fmt3num3imp55_$LT$impl$u20$core..fmt..UpperExp$u20$for$u20$usize$GT$3fmt17hffd6e4b29288bd45E",
            "__ZN12regex_syntax6parser6Parser5parse17h9979792d6db329d9E",
            "__ZN85_$LT$object..xcoff..FileHeader64$u20$as$u20$object..read..xcoff..file..FileHeader$GT$8f_timdat17hc01ada6eab4c3175E",
            "__ZN94_$LT$regex_syntax..hir..ClassUnicodeIter$u20$as$u20$core..iter..traits..iterator..Iterator$GT$4next17he43509d46c687861E",
            "__ZN12aho_corasick3nfa13noncontiguous8Compiler35close_start_state_loop_for_leftmost17ha7141d82d42d8edcE",
            "__ZN5alloc7raw_vec20RawVecInner$LT$A$GT$7reserve21do_reserve_and_handle17hac3f698647a852e0E",
            "__ZN4core3fmt3num54_$LT$impl$u20$core..fmt..LowerHex$u20$for$u20$u128$GT$3fmt17h079a5e66cfb4cf66E",
            "__ZN10cel_parser6parser19__parse__LogicalAnd6__goto17h718440868b6402f3E",
            "__ZN47_$LT$str$u20$as$u20$nom..traits..HexDisplay$GT$6to_hex17h82fc0b35c9dcfa1cE",
            "__ZN3ryu6pretty8format6417h84f6b41ae24eb0b6E",
            "__ZN12regex_syntax3ast3Ast5empty17h740d50e853f032d4E",
            "__ZN5serde3ser3fmt85_$LT$impl$u20$serde..ser..Serializer$u20$for$u20$$RF$mut$u20$core..fmt..Formatter$GT$13serialize_u3217h491e66e96df3bf7bE",
            "__ZN14regex_automata4util10primitives9PatternID4iter17hccf4ebad528c0b09E",
            "__ZN48_$LT$std..fs..File$u20$as$u20$std..io..Write$GT$14write_vectored17hbd64c4d0b15663deE",
            "__ZN4core5slice5index22slice_index_order_fail17h2b10e9141d6f0d4fE",
            "__ZN4core7unicode12unicode_data9uppercase6lookup17hde9a4ecc9f1cb4ecE",
            "__ZN59_$LT$std..io..stdio..StdinLock$u20$as$u20$std..io..Read$GT$8read_buf17h51cbbdadbea248a5E",
            "__ZN108_$LT$futures_lite..io..Cursor$LT$alloc..vec..Vec$LT$u8$GT$$GT$$u20$as$u20$futures_io..if_std..AsyncWrite$GT$10poll_write17h15a7af9027ada096E",
            "__ZN4core4char7methods15encode_utf8_raw8do_panic7runtime17h8dc7d85e4da415a8E",
            "__ZN4core10intrinsics3mir6Assume19panic_cold_explicit17h4744e1ce860b746eE",
            "__ZN55_$LT$str$u20$as$u20$serde_json..value..index..Index$GT$10index_into17hc0f75369fddf05b8E",
            "__ZN72_$LT$std..os..unix..net..stream..UnixStream$u20$as$u20$std..io..Read$GT$13read_vectored17h06d4e37dcf016b30E",
            "__ZN14regex_automata3dfa7onepass3DFA12new_from_nfa17h6fbcf6347fe65038E",
            "__ZN73_$LT$std..os..unix..net..stream..UnixStream$u20$as$u20$std..io..Write$GT$14write_vectored17hb67ad1751bacb1d3E",
            "__ZN57_$LT$std..process..Output$u20$as$u20$core..fmt..Debug$GT$3fmt17hddff05ea45bd178dE",
            "__ZN86_$LT$memchr..memmem..FindRevIter$u20$as$u20$core..iter..traits..iterator..Iterator$GT$4next17h341f17c87221fff2E",
            "__ZN81_$LT$$u5b$u8$u3b$$u20$27$u5d$$u20$as$u20$nom..traits..FindToken$LT$$RF$u8$GT$$GT$10find_token17he80cd17b25ce8997E",
            "__ZN104_$LT$cel_eval..ast..JSONExpression$u20$as$u20$core..convert..From$LT$cel_parser..ast..Expression$GT$$GT$4from17h7f20370520f54c6dE",
            "__ZN62_$LT$std..process..ChildStderr$u20$as$u20$core..fmt..Debug$GT$3fmt17hef2e4ecc52e327a0E",
            "__ZN4core3fmt3num53_$LT$impl$u20$core..fmt..UpperHex$u20$for$u20$u32$GT$3fmt17h6021b62e91aace37E",
            "__ZN3std9panicking11panic_count19finished_panic_hook17h951515590e30f49dE",
            "__ZN86_$LT$uniffi_core..ffi..rustcalls..RustCallStatus$u20$as$u20$core..default..Default$GT$7default17hb09a7e6f6515203fE",
            "__ZN83_$LT$object..xcoff..AuxHeader64$u20$as$u20$object..read..xcoff..file..AuxHeader$GT$8o_sntbss17h0e3021723472ec94E",
            "__ZN6chrono6format4scan13short_weekday17hfd0dd52043081656E",
            "__ZN6chrono10time_delta9TimeDelta16num_microseconds17h23da10d3d4033d00E",
            "__ZN5regex8builders6string12RegexBuilder15line_terminator17h601b5a88a29350d7E",
            "__ZN12regex_syntax3hir15ClassBytesRange3len17h72c55afaf3d3c3e1E",
            "__ZN14regex_automata6hybrid5regex7Builder8thompson17hebb3cefc2aba4f0fE",
            "__ZN51_$LT$std..env..Args$u20$as$u20$core..fmt..Debug$GT$3fmt17h2443e0050fc685f3E",
            "__ZN52_$LT$std..path..Iter$u20$as$u20$core..fmt..Debug$GT$3fmt17h204c880aa9c2036eE",
            "__ZN63_$LT$$RF$std..net..tcp..TcpStream$u20$as$u20$std..io..Write$GT$5write17h93d6195a8bd22081E",
            "__ZN88_$LT$alloc..borrow..Cow$LT$$u5b$u8$u5d$$GT$$u20$as$u20$regex..regex..bytes..Replacer$GT$12no_expansion17h53d1d013a1480ffbE",
            "__ZN5alloc7raw_vec19RawVec$LT$T$C$A$GT$8grow_one17h695a96199e3ea702E",
            "__ZN14regex_automata3nfa8thompson9backtrack7Builder6syntax17h19068f092333f955E",
            "__ZN5gimli4arch4MIPS13register_name17h733e3f519d5a3c42E",
            "__ZN69_$LT$std..fs..DirEntry$u20$as$u20$std..os..unix..fs..DirEntryExt2$GT$13file_name_ref17h3e23094855690c5dE",
            "__ZN121_$LT$cel_parser..parser..__parse__LogicalAnd..__StateMachine$u20$as$u20$lalrpop_util..state_machine..ParserDefinition$GT$15expected_tokens17h0a4296686ab098f1E",
            "__ZN83_$LT$serde_json..value..ser..MapKeySerializer$u20$as$u20$serde..ser..Serializer$GT$12serialize_u817h3fed006260991ce0E",
            "__ZN3std3sys3pal4unix2fs4File8read_buf17h22fe1f6d0f53644dE",
            "__ZN15cel_interpreter9functions3map17h9a85ea27fcc85351E",
            "__ZN5bytes9bytes_mut107_$LT$impl$u20$core..cmp..PartialOrd$LT$bytes..bytes_mut..BytesMut$GT$$u20$for$u20$alloc..string..String$GT$11partial_cmp17h3f12ccfb87bc7ec5E",
            "__ZN70_$LT$std..thread..local..AccessError$u20$as$u20$core..fmt..Display$GT$3fmt17h61586cda2c8afa5dE",
            "__ZN63_$LT$log..LevelFilter$u20$as$u20$core..str..traits..FromStr$GT$8from_str17h0c401f49f0743925E",
            "__ZN69_$LT$std..sys..pal..unix..stdio..Stderr$u20$as$u20$std..io..Write$GT$5write17h6ea7dae3288c447eE",
            "__ZN105_$LT$core..slice..ascii..EscapeAscii$u20$as$u20$core..iter..traits..double_ended..DoubleEndedIterator$GT$9next_back17h1e70e310c8de34efE",
            "__ZN57_$LT$core..error..Request$u20$as$u20$core..fmt..Debug$GT$3fmt17he642dde15489fa82E",
            "__ZN4core10intrinsics3mir8TailCall19panic_cold_explicit17h8ce89de6caf11f0bE",
            "__ZN72_$LT$memchr..memmem..searcher..Prefilter$u20$as$u20$core..fmt..Debug$GT$3fmt17h72c26267e6b06af2E",
            "__ZN6object4read2pe6import20DelayLoadImportTable4name17he41aba84a4410eeeE",
            "__ZN4core3fmt3num52_$LT$impl$u20$core..fmt..Octal$u20$for$u20$isize$GT$3fmt17h33979db478032de8E",
            "__ZN14regex_automata4meta8wrappers7OnePass12create_cache17hac4207e32a40474aE",
            "__ZN231_$LT$$LT$serde..de..impls..$LT$impl$u20$serde..de..Deserialize$u20$for$u20$core..result..Result$LT$T$C$E$GT$$GT$..deserialize..Field$u20$as$u20$serde..de..Deserialize$GT$..deserialize..FieldVisitor$u20$as$u20$serde..de..Visitor$GT$9expecting17h8cdd6a04b9dec0e8E",
            "__ZN5alloc4sync16Arc$LT$T$C$A$GT$9drop_slow17hba0397c1b149b55dE",
            "__ZN79_$LT$std..env..SplitPaths$u20$as$u20$core..iter..traits..iterator..Iterator$GT$4next17h3ee7f5fa499cf9c3E",
            "__ZN70_$LT$core..fmt..num..Octal$u20$as$u20$core..fmt..num..GenericRadix$GT$5digit17h994467a9e21ce388E",
            "__ZN4core5slice5index10into_range17h41d2f5a3d2fb0697E",
